
./UART1/outputs//uart0bcm.shakti:     file format elf64-littleriscv


Disassembly of section .text.init:

00000000c0000000 <_start>:
    c0000000:	00000093          	li	ra,0
    c0000004:	00000113          	li	sp,0
    c0000008:	00000193          	li	gp,0
    c000000c:	00000213          	li	tp,0
    c0000010:	00000293          	li	t0,0
    c0000014:	00000313          	li	t1,0
    c0000018:	00000393          	li	t2,0
    c000001c:	00000413          	li	s0,0
    c0000020:	00000493          	li	s1,0
    c0000024:	00000513          	li	a0,0
    c0000028:	00000593          	li	a1,0
    c000002c:	00000613          	li	a2,0
    c0000030:	00000693          	li	a3,0
    c0000034:	00000713          	li	a4,0
    c0000038:	00000793          	li	a5,0
    c000003c:	00000813          	li	a6,0
    c0000040:	00000893          	li	a7,0
    c0000044:	00000913          	li	s2,0
    c0000048:	00000993          	li	s3,0
    c000004c:	00000a13          	li	s4,0
    c0000050:	00000a93          	li	s5,0
    c0000054:	00000b13          	li	s6,0
    c0000058:	00000b93          	li	s7,0
    c000005c:	00000c13          	li	s8,0
    c0000060:	00000c93          	li	s9,0
    c0000064:	00000d13          	li	s10,0
    c0000068:	00000d93          	li	s11,0
    c000006c:	00000e13          	li	t3,0
    c0000070:	00000e93          	li	t4,0
    c0000074:	00000f13          	li	t5,0
    c0000078:	00000f93          	li	t6,0
    c000007c:	0001e2b7          	lui	t0,0x1e
    c0000080:	3002a073          	csrs	mstatus,t0
    c0000084:	00100293          	li	t0,1
    c0000088:	01f29293          	slli	t0,t0,0x1f
    c000008c:	0002da63          	bgez	t0,c00000a0 <_start+0xa0>
    c0000090:	00100513          	li	a0,1
    c0000094:	00001297          	auipc	t0,0x1
    c0000098:	f6a2a623          	sw	a0,-148(t0) # c0001000 <tohost>
    c000009c:	ff5ff06f          	j	c0000090 <_start+0x90>
    c00000a0:	00000297          	auipc	t0,0x0
    c00000a4:	09028293          	addi	t0,t0,144 # c0000130 <_start+0x130>
    c00000a8:	30529073          	csrw	mtvec,t0
    c00000ac:	00301073          	fssr	zero
    c00000b0:	f0000053          	fmv.w.x	ft0,zero
    c00000b4:	f00000d3          	fmv.w.x	ft1,zero
    c00000b8:	f0000153          	fmv.w.x	ft2,zero
    c00000bc:	f00001d3          	fmv.w.x	ft3,zero
    c00000c0:	f0000253          	fmv.w.x	ft4,zero
    c00000c4:	f00002d3          	fmv.w.x	ft5,zero
    c00000c8:	f0000353          	fmv.w.x	ft6,zero
    c00000cc:	f00003d3          	fmv.w.x	ft7,zero
    c00000d0:	f0000453          	fmv.w.x	fs0,zero
    c00000d4:	f00004d3          	fmv.w.x	fs1,zero
    c00000d8:	f0000553          	fmv.w.x	fa0,zero
    c00000dc:	f00005d3          	fmv.w.x	fa1,zero
    c00000e0:	f0000653          	fmv.w.x	fa2,zero
    c00000e4:	f00006d3          	fmv.w.x	fa3,zero
    c00000e8:	f0000753          	fmv.w.x	fa4,zero
    c00000ec:	f00007d3          	fmv.w.x	fa5,zero
    c00000f0:	f0000853          	fmv.w.x	fa6,zero
    c00000f4:	f00008d3          	fmv.w.x	fa7,zero
    c00000f8:	f0000953          	fmv.w.x	fs2,zero
    c00000fc:	f00009d3          	fmv.w.x	fs3,zero
    c0000100:	f0000a53          	fmv.w.x	fs4,zero
    c0000104:	f0000ad3          	fmv.w.x	fs5,zero
    c0000108:	f0000b53          	fmv.w.x	fs6,zero
    c000010c:	f0000bd3          	fmv.w.x	fs7,zero
    c0000110:	f0000c53          	fmv.w.x	fs8,zero
    c0000114:	f0000cd3          	fmv.w.x	fs9,zero
    c0000118:	f0000d53          	fmv.w.x	fs10,zero
    c000011c:	f0000dd3          	fmv.w.x	fs11,zero
    c0000120:	f0000e53          	fmv.w.x	ft8,zero
    c0000124:	f0000ed3          	fmv.w.x	ft9,zero
    c0000128:	f0000f53          	fmv.w.x	ft10,zero
    c000012c:	f0000fd3          	fmv.w.x	ft11,zero
    c0000130:	00000297          	auipc	t0,0x0
    c0000134:	04028293          	addi	t0,t0,64 # c0000170 <trap_entry>
    c0000138:	30529073          	csrw	mtvec,t0
    c000013c:	00003197          	auipc	gp,0x3
    c0000140:	67418193          	addi	gp,gp,1652 # c00037b0 <__global_pointer$>
    c0000144:	87f18213          	addi	tp,gp,-1921 # c000302f <_end+0x3f>
    c0000148:	fc027213          	andi	tp,tp,-64
    c000014c:	f1402573          	csrr	a0,mhartid
    c0000150:	00100593          	li	a1,1
    c0000154:	00b57063          	bleu	a1,a0,c0000154 <_start+0x154>
    c0000158:	00c51613          	slli	a2,a0,0xc
    c000015c:	00c20233          	add	tp,tp,a2
    c0000160:	00150113          	addi	sp,a0,1
    c0000164:	00c11113          	slli	sp,sp,0xc
    c0000168:	00410133          	add	sp,sp,tp
    c000016c:	7a10106f          	j	c000210c <_init>

00000000c0000170 <trap_entry>:
    c0000170:	ef010113          	addi	sp,sp,-272
    c0000174:	00113423          	sd	ra,8(sp)
    c0000178:	00213823          	sd	sp,16(sp)
    c000017c:	00313c23          	sd	gp,24(sp)
    c0000180:	02413023          	sd	tp,32(sp)
    c0000184:	02513423          	sd	t0,40(sp)
    c0000188:	02613823          	sd	t1,48(sp)
    c000018c:	02713c23          	sd	t2,56(sp)
    c0000190:	04813023          	sd	s0,64(sp)
    c0000194:	04913423          	sd	s1,72(sp)
    c0000198:	04a13823          	sd	a0,80(sp)
    c000019c:	04b13c23          	sd	a1,88(sp)
    c00001a0:	06c13023          	sd	a2,96(sp)
    c00001a4:	06d13423          	sd	a3,104(sp)
    c00001a8:	06e13823          	sd	a4,112(sp)
    c00001ac:	06f13c23          	sd	a5,120(sp)
    c00001b0:	09013023          	sd	a6,128(sp)
    c00001b4:	09113423          	sd	a7,136(sp)
    c00001b8:	09213823          	sd	s2,144(sp)
    c00001bc:	09313c23          	sd	s3,152(sp)
    c00001c0:	0b413023          	sd	s4,160(sp)
    c00001c4:	0b513423          	sd	s5,168(sp)
    c00001c8:	0b613823          	sd	s6,176(sp)
    c00001cc:	0b713c23          	sd	s7,184(sp)
    c00001d0:	0d813023          	sd	s8,192(sp)
    c00001d4:	0d913423          	sd	s9,200(sp)
    c00001d8:	0da13823          	sd	s10,208(sp)
    c00001dc:	0db13c23          	sd	s11,216(sp)
    c00001e0:	0fc13023          	sd	t3,224(sp)
    c00001e4:	0fd13423          	sd	t4,232(sp)
    c00001e8:	0fe13823          	sd	t5,240(sp)
    c00001ec:	0ff13c23          	sd	t6,248(sp)
    c00001f0:	34202573          	csrr	a0,mcause
    c00001f4:	341025f3          	csrr	a1,mepc
    c00001f8:	00010613          	mv	a2,sp
    c00001fc:	541010ef          	jal	ra,c0001f3c <handle_trap>
    c0000200:	34151073          	csrw	mepc,a0
    c0000204:	000022b7          	lui	t0,0x2
    c0000208:	8002829b          	addiw	t0,t0,-2048
    c000020c:	3002a073          	csrs	mstatus,t0
    c0000210:	00813083          	ld	ra,8(sp)
    c0000214:	01013103          	ld	sp,16(sp)
    c0000218:	01813183          	ld	gp,24(sp)
    c000021c:	02013203          	ld	tp,32(sp)
    c0000220:	02813283          	ld	t0,40(sp)
    c0000224:	03013303          	ld	t1,48(sp)
    c0000228:	03813383          	ld	t2,56(sp)
    c000022c:	04013403          	ld	s0,64(sp)
    c0000230:	04813483          	ld	s1,72(sp)
    c0000234:	05013503          	ld	a0,80(sp)
    c0000238:	05813583          	ld	a1,88(sp)
    c000023c:	06013603          	ld	a2,96(sp)
    c0000240:	06813683          	ld	a3,104(sp)
    c0000244:	07013703          	ld	a4,112(sp)
    c0000248:	07813783          	ld	a5,120(sp)
    c000024c:	08013803          	ld	a6,128(sp)
    c0000250:	08813883          	ld	a7,136(sp)
    c0000254:	09013903          	ld	s2,144(sp)
    c0000258:	09813983          	ld	s3,152(sp)
    c000025c:	0a013a03          	ld	s4,160(sp)
    c0000260:	0a813a83          	ld	s5,168(sp)
    c0000264:	0b013b03          	ld	s6,176(sp)
    c0000268:	0b813b83          	ld	s7,184(sp)
    c000026c:	0c013c03          	ld	s8,192(sp)
    c0000270:	0c813c83          	ld	s9,200(sp)
    c0000274:	0d013d03          	ld	s10,208(sp)
    c0000278:	0d813d83          	ld	s11,216(sp)
    c000027c:	0e013e03          	ld	t3,224(sp)
    c0000280:	0e813e83          	ld	t4,232(sp)
    c0000284:	0f013f03          	ld	t5,240(sp)
    c0000288:	0f813f83          	ld	t6,248(sp)
    c000028c:	11010113          	addi	sp,sp,272
    c0000290:	30200073          	mret

Disassembly of section .tohost:

00000000c0001000 <tohost>:
	...

00000000c0001040 <fromhost>:
	...

Disassembly of section .text:

00000000c0001048 <WriteIntoUart>:
    c0001048:	fd010113          	addi	sp,sp,-48
    c000104c:	02813423          	sd	s0,40(sp)
    c0001050:	03010413          	addi	s0,sp,48
    c0001054:	00050793          	mv	a5,a0
    c0001058:	00058693          	mv	a3,a1
    c000105c:	00060713          	mv	a4,a2
    c0001060:	fcf40fa3          	sb	a5,-33(s0)
    c0001064:	00068793          	mv	a5,a3
    c0001068:	fcf40f23          	sb	a5,-34(s0)
    c000106c:	00070793          	mv	a5,a4
    c0001070:	fcf40ea3          	sb	a5,-35(s0)
    c0001074:	fe043423          	sd	zero,-24(s0)
    c0001078:	fde44783          	lbu	a5,-34(s0)
    c000107c:	0ff7f713          	andi	a4,a5,255
    c0001080:	00100793          	li	a5,1
    c0001084:	02f71263          	bne	a4,a5,c00010a8 <WriteIntoUart+0x60>
    c0001088:	fdf44783          	lbu	a5,-33(s0)
    c000108c:	0007871b          	sext.w	a4,a5
    c0001090:	000117b7          	lui	a5,0x11
    c0001094:	3007879b          	addiw	a5,a5,768
    c0001098:	00f707bb          	addw	a5,a4,a5
    c000109c:	0007879b          	sext.w	a5,a5
    c00010a0:	fef43423          	sd	a5,-24(s0)
    c00010a4:	0200006f          	j	c00010c4 <WriteIntoUart+0x7c>
    c00010a8:	fdf44783          	lbu	a5,-33(s0)
    c00010ac:	0007871b          	sext.w	a4,a5
    c00010b0:	000117b7          	lui	a5,0x11
    c00010b4:	2007879b          	addiw	a5,a5,512
    c00010b8:	00f707bb          	addw	a5,a4,a5
    c00010bc:	0007879b          	sext.w	a5,a5
    c00010c0:	fef43423          	sd	a5,-24(s0)
    c00010c4:	fdd44783          	lbu	a5,-35(s0)
    c00010c8:	0007871b          	sext.w	a4,a5
    c00010cc:	fe843783          	ld	a5,-24(s0)
    c00010d0:	00e7a023          	sw	a4,0(a5) # 11000 <_tbss_end+0x10ffc>
    c00010d4:	00000013          	nop
    c00010d8:	02813403          	ld	s0,40(sp)
    c00010dc:	03010113          	addi	sp,sp,48
    c00010e0:	00008067          	ret

00000000c00010e4 <ReadFromUart>:
    c00010e4:	fd010113          	addi	sp,sp,-48
    c00010e8:	02813423          	sd	s0,40(sp)
    c00010ec:	03010413          	addi	s0,sp,48
    c00010f0:	00050793          	mv	a5,a0
    c00010f4:	00058713          	mv	a4,a1
    c00010f8:	fcf40fa3          	sb	a5,-33(s0)
    c00010fc:	00070793          	mv	a5,a4
    c0001100:	fcf40f23          	sb	a5,-34(s0)
    c0001104:	fe043423          	sd	zero,-24(s0)
    c0001108:	fde44783          	lbu	a5,-34(s0)
    c000110c:	0ff7f713          	andi	a4,a5,255
    c0001110:	00100793          	li	a5,1
    c0001114:	02f71263          	bne	a4,a5,c0001138 <ReadFromUart+0x54>
    c0001118:	fdf44783          	lbu	a5,-33(s0)
    c000111c:	0007871b          	sext.w	a4,a5
    c0001120:	000117b7          	lui	a5,0x11
    c0001124:	3007879b          	addiw	a5,a5,768
    c0001128:	00f707bb          	addw	a5,a4,a5
    c000112c:	0007879b          	sext.w	a5,a5
    c0001130:	fef43423          	sd	a5,-24(s0)
    c0001134:	0200006f          	j	c0001154 <ReadFromUart+0x70>
    c0001138:	fdf44783          	lbu	a5,-33(s0)
    c000113c:	0007871b          	sext.w	a4,a5
    c0001140:	000117b7          	lui	a5,0x11
    c0001144:	2007879b          	addiw	a5,a5,512
    c0001148:	00f707bb          	addw	a5,a4,a5
    c000114c:	0007879b          	sext.w	a5,a5
    c0001150:	fef43423          	sd	a5,-24(s0)
    c0001154:	fe843783          	ld	a5,-24(s0)
    c0001158:	0007a783          	lw	a5,0(a5) # 11000 <_tbss_end+0x10ffc>
    c000115c:	0ff7f793          	andi	a5,a5,255
    c0001160:	00078513          	mv	a0,a5
    c0001164:	02813403          	ld	s0,40(sp)
    c0001168:	03010113          	addi	sp,sp,48
    c000116c:	00008067          	ret

00000000c0001170 <Uart1Init>:
    c0001170:	fd010113          	addi	sp,sp,-48
    c0001174:	02113423          	sd	ra,40(sp)
    c0001178:	02813023          	sd	s0,32(sp)
    c000117c:	03010413          	addi	s0,sp,48
    c0001180:	00050793          	mv	a5,a0
    c0001184:	fcf42e23          	sw	a5,-36(s0)
    c0001188:	fdc42783          	lw	a5,-36(s0)
    c000118c:	0047979b          	slliw	a5,a5,0x4
    c0001190:	0007879b          	sext.w	a5,a5
    c0001194:	01313737          	lui	a4,0x1313
    c0001198:	d007071b          	addiw	a4,a4,-768
    c000119c:	02f747bb          	divw	a5,a4,a5
    c00011a0:	fef42623          	sw	a5,-20(s0)
    c00011a4:	fec42783          	lw	a5,-20(s0)
    c00011a8:	00078593          	mv	a1,a5
    c00011ac:	00002517          	auipc	a0,0x2
    c00011b0:	bf450513          	addi	a0,a0,-1036 # c0002da0 <atol+0x110>
    c00011b4:	798010ef          	jal	ra,c000294c <printf>
    c00011b8:	08300613          	li	a2,131
    c00011bc:	00100593          	li	a1,1
    c00011c0:	00300513          	li	a0,3
    c00011c4:	e85ff0ef          	jal	ra,c0001048 <WriteIntoUart>
    c00011c8:	fec42783          	lw	a5,-20(s0)
    c00011cc:	4087d79b          	sraiw	a5,a5,0x8
    c00011d0:	0007879b          	sext.w	a5,a5
    c00011d4:	0ff7f793          	andi	a5,a5,255
    c00011d8:	00078613          	mv	a2,a5
    c00011dc:	00100593          	li	a1,1
    c00011e0:	00100513          	li	a0,1
    c00011e4:	e65ff0ef          	jal	ra,c0001048 <WriteIntoUart>
    c00011e8:	fec42783          	lw	a5,-20(s0)
    c00011ec:	0ff7f793          	andi	a5,a5,255
    c00011f0:	00078613          	mv	a2,a5
    c00011f4:	00100593          	li	a1,1
    c00011f8:	00000513          	li	a0,0
    c00011fc:	e4dff0ef          	jal	ra,c0001048 <WriteIntoUart>
    c0001200:	00300613          	li	a2,3
    c0001204:	00100593          	li	a1,1
    c0001208:	00300513          	li	a0,3
    c000120c:	e3dff0ef          	jal	ra,c0001048 <WriteIntoUart>
    c0001210:	00600613          	li	a2,6
    c0001214:	00100593          	li	a1,1
    c0001218:	00200513          	li	a0,2
    c000121c:	e2dff0ef          	jal	ra,c0001048 <WriteIntoUart>
    c0001220:	00000613          	li	a2,0
    c0001224:	00100593          	li	a1,1
    c0001228:	00100513          	li	a0,1
    c000122c:	e1dff0ef          	jal	ra,c0001048 <WriteIntoUart>
    c0001230:	00000013          	nop
    c0001234:	02813083          	ld	ra,40(sp)
    c0001238:	02013403          	ld	s0,32(sp)
    c000123c:	03010113          	addi	sp,sp,48
    c0001240:	00008067          	ret

00000000c0001244 <UartTxReady>:
    c0001244:	fe010113          	addi	sp,sp,-32
    c0001248:	00113c23          	sd	ra,24(sp)
    c000124c:	00813823          	sd	s0,16(sp)
    c0001250:	02010413          	addi	s0,sp,32
    c0001254:	fe042623          	sw	zero,-20(s0)
    c0001258:	00100593          	li	a1,1
    c000125c:	00500513          	li	a0,5
    c0001260:	e85ff0ef          	jal	ra,c00010e4 <ReadFromUart>
    c0001264:	00050793          	mv	a5,a0
    c0001268:	fef42623          	sw	a5,-20(s0)
    c000126c:	fec42783          	lw	a5,-20(s0)
    c0001270:	00078513          	mv	a0,a5
    c0001274:	01813083          	ld	ra,24(sp)
    c0001278:	01013403          	ld	s0,16(sp)
    c000127c:	02010113          	addi	sp,sp,32
    c0001280:	00008067          	ret

00000000c0001284 <UartTransmitCharacter>:
    c0001284:	fd010113          	addi	sp,sp,-48
    c0001288:	02113423          	sd	ra,40(sp)
    c000128c:	02813023          	sd	s0,32(sp)
    c0001290:	03010413          	addi	s0,sp,48
    c0001294:	00050793          	mv	a5,a0
    c0001298:	fcf40fa3          	sb	a5,-33(s0)
    c000129c:	fa9ff0ef          	jal	ra,c0001244 <UartTxReady>
    c00012a0:	00050793          	mv	a5,a0
    c00012a4:	fef42623          	sw	a5,-20(s0)
    c00012a8:	fec42783          	lw	a5,-20(s0)
    c00012ac:	0207f793          	andi	a5,a5,32
    c00012b0:	0007879b          	sext.w	a5,a5
    c00012b4:	00079463          	bnez	a5,c00012bc <UartTransmitCharacter+0x38>
    c00012b8:	fe5ff06f          	j	c000129c <UartTransmitCharacter+0x18>
    c00012bc:	00000013          	nop
    c00012c0:	fdf44783          	lbu	a5,-33(s0)
    c00012c4:	00078613          	mv	a2,a5
    c00012c8:	00100593          	li	a1,1
    c00012cc:	00000513          	li	a0,0
    c00012d0:	d79ff0ef          	jal	ra,c0001048 <WriteIntoUart>
    c00012d4:	00000013          	nop
    c00012d8:	02813083          	ld	ra,40(sp)
    c00012dc:	02013403          	ld	s0,32(sp)
    c00012e0:	03010113          	addi	sp,sp,48
    c00012e4:	00008067          	ret

00000000c00012e8 <UartTransmitString>:
    c00012e8:	fe010113          	addi	sp,sp,-32
    c00012ec:	00113c23          	sd	ra,24(sp)
    c00012f0:	00813823          	sd	s0,16(sp)
    c00012f4:	02010413          	addi	s0,sp,32
    c00012f8:	fea43423          	sd	a0,-24(s0)
    c00012fc:	0200006f          	j	c000131c <UartTransmitString+0x34>
    c0001300:	fe843783          	ld	a5,-24(s0)
    c0001304:	0007c783          	lbu	a5,0(a5)
    c0001308:	00078513          	mv	a0,a5
    c000130c:	f79ff0ef          	jal	ra,c0001284 <UartTransmitCharacter>
    c0001310:	fe843783          	ld	a5,-24(s0)
    c0001314:	00178793          	addi	a5,a5,1
    c0001318:	fef43423          	sd	a5,-24(s0)
    c000131c:	fe843783          	ld	a5,-24(s0)
    c0001320:	0007c783          	lbu	a5,0(a5)
    c0001324:	fc079ee3          	bnez	a5,c0001300 <UartTransmitString+0x18>
    c0001328:	00000013          	nop
    c000132c:	01813083          	ld	ra,24(sp)
    c0001330:	01013403          	ld	s0,16(sp)
    c0001334:	02010113          	addi	sp,sp,32
    c0001338:	00008067          	ret

00000000c000133c <UartCheckReceiveReady>:
    c000133c:	fe010113          	addi	sp,sp,-32
    c0001340:	00113c23          	sd	ra,24(sp)
    c0001344:	00813823          	sd	s0,16(sp)
    c0001348:	02010413          	addi	s0,sp,32
    c000134c:	fe042623          	sw	zero,-20(s0)
    c0001350:	00100593          	li	a1,1
    c0001354:	00500513          	li	a0,5
    c0001358:	d8dff0ef          	jal	ra,c00010e4 <ReadFromUart>
    c000135c:	00050793          	mv	a5,a0
    c0001360:	fef42623          	sw	a5,-20(s0)
    c0001364:	fec42783          	lw	a5,-20(s0)
    c0001368:	0017f793          	andi	a5,a5,1
    c000136c:	0007879b          	sext.w	a5,a5
    c0001370:	00078513          	mv	a0,a5
    c0001374:	01813083          	ld	ra,24(sp)
    c0001378:	01013403          	ld	s0,16(sp)
    c000137c:	02010113          	addi	sp,sp,32
    c0001380:	00008067          	ret

00000000c0001384 <UartReceiveCharacter>:
    c0001384:	ff010113          	addi	sp,sp,-16
    c0001388:	00113423          	sd	ra,8(sp)
    c000138c:	00813023          	sd	s0,0(sp)
    c0001390:	01010413          	addi	s0,sp,16
    c0001394:	00000013          	nop
    c0001398:	fa5ff0ef          	jal	ra,c000133c <UartCheckReceiveReady>
    c000139c:	00050793          	mv	a5,a0
    c00013a0:	fe078ce3          	beqz	a5,c0001398 <UartReceiveCharacter+0x14>
    c00013a4:	00100593          	li	a1,1
    c00013a8:	00000513          	li	a0,0
    c00013ac:	d39ff0ef          	jal	ra,c00010e4 <ReadFromUart>
    c00013b0:	00050793          	mv	a5,a0
    c00013b4:	00078513          	mv	a0,a5
    c00013b8:	00813083          	ld	ra,8(sp)
    c00013bc:	00013403          	ld	s0,0(sp)
    c00013c0:	01010113          	addi	sp,sp,16
    c00013c4:	00008067          	ret

00000000c00013c8 <sendCommand>:
    c00013c8:	fd010113          	addi	sp,sp,-48
    c00013cc:	02113423          	sd	ra,40(sp)
    c00013d0:	02813023          	sd	s0,32(sp)
    c00013d4:	03010413          	addi	s0,sp,48
    c00013d8:	00050793          	mv	a5,a0
    c00013dc:	00058693          	mv	a3,a1
    c00013e0:	00060713          	mv	a4,a2
    c00013e4:	fcf40fa3          	sb	a5,-33(s0)
    c00013e8:	00068793          	mv	a5,a3
    c00013ec:	fcf40f23          	sb	a5,-34(s0)
    c00013f0:	00070793          	mv	a5,a4
    c00013f4:	fcf40ea3          	sb	a5,-35(s0)
    c00013f8:	00002797          	auipc	a5,0x2
    c00013fc:	bb878793          	addi	a5,a5,-1096 # c0002fb0 <Send_buf>
    c0001400:	07e00713          	li	a4,126
    c0001404:	00e78023          	sb	a4,0(a5)
    c0001408:	00002797          	auipc	a5,0x2
    c000140c:	ba878793          	addi	a5,a5,-1112 # c0002fb0 <Send_buf>
    c0001410:	fff00713          	li	a4,-1
    c0001414:	00e780a3          	sb	a4,1(a5)
    c0001418:	00002797          	auipc	a5,0x2
    c000141c:	b9878793          	addi	a5,a5,-1128 # c0002fb0 <Send_buf>
    c0001420:	00600713          	li	a4,6
    c0001424:	00e78123          	sb	a4,2(a5)
    c0001428:	00002797          	auipc	a5,0x2
    c000142c:	b8878793          	addi	a5,a5,-1144 # c0002fb0 <Send_buf>
    c0001430:	fdf44703          	lbu	a4,-33(s0)
    c0001434:	00e781a3          	sb	a4,3(a5)
    c0001438:	00002797          	auipc	a5,0x2
    c000143c:	b7878793          	addi	a5,a5,-1160 # c0002fb0 <Send_buf>
    c0001440:	00100713          	li	a4,1
    c0001444:	00e78223          	sb	a4,4(a5)
    c0001448:	00002797          	auipc	a5,0x2
    c000144c:	b6878793          	addi	a5,a5,-1176 # c0002fb0 <Send_buf>
    c0001450:	fde44703          	lbu	a4,-34(s0)
    c0001454:	00e782a3          	sb	a4,5(a5)
    c0001458:	00002797          	auipc	a5,0x2
    c000145c:	b5878793          	addi	a5,a5,-1192 # c0002fb0 <Send_buf>
    c0001460:	fdd44703          	lbu	a4,-35(s0)
    c0001464:	00e78323          	sb	a4,6(a5)
    c0001468:	00002797          	auipc	a5,0x2
    c000146c:	b4878793          	addi	a5,a5,-1208 # c0002fb0 <Send_buf>
    c0001470:	fef00713          	li	a4,-17
    c0001474:	00e783a3          	sb	a4,7(a5)
    c0001478:	00002517          	auipc	a0,0x2
    c000147c:	94050513          	addi	a0,a0,-1728 # c0002db8 <atol+0x128>
    c0001480:	4cc010ef          	jal	ra,c000294c <printf>
    c0001484:	fe0407a3          	sb	zero,-17(s0)
    c0001488:	0380006f          	j	c00014c0 <sendCommand+0xf8>
    c000148c:	fef44783          	lbu	a5,-17(s0)
    c0001490:	0007879b          	sext.w	a5,a5
    c0001494:	00002717          	auipc	a4,0x2
    c0001498:	b1c70713          	addi	a4,a4,-1252 # c0002fb0 <Send_buf>
    c000149c:	00f707b3          	add	a5,a4,a5
    c00014a0:	0007c783          	lbu	a5,0(a5)
    c00014a4:	00078613          	mv	a2,a5
    c00014a8:	00100593          	li	a1,1
    c00014ac:	00000513          	li	a0,0
    c00014b0:	b99ff0ef          	jal	ra,c0001048 <WriteIntoUart>
    c00014b4:	fef44783          	lbu	a5,-17(s0)
    c00014b8:	0017879b          	addiw	a5,a5,1
    c00014bc:	fef407a3          	sb	a5,-17(s0)
    c00014c0:	fef44783          	lbu	a5,-17(s0)
    c00014c4:	0ff7f713          	andi	a4,a5,255
    c00014c8:	00700793          	li	a5,7
    c00014cc:	fce7f0e3          	bleu	a4,a5,c000148c <sendCommand+0xc4>
    c00014d0:	00000013          	nop
    c00014d4:	02813083          	ld	ra,40(sp)
    c00014d8:	02013403          	ld	s0,32(sp)
    c00014dc:	03010113          	addi	sp,sp,48
    c00014e0:	00008067          	ret

00000000c00014e4 <Delay>:
    c00014e4:	fd010113          	addi	sp,sp,-48
    c00014e8:	02813423          	sd	s0,40(sp)
    c00014ec:	03010413          	addi	s0,sp,48
    c00014f0:	00050793          	mv	a5,a0
    c00014f4:	00058713          	mv	a4,a1
    c00014f8:	fcf41f23          	sh	a5,-34(s0)
    c00014fc:	00070793          	mv	a5,a4
    c0001500:	fcf41e23          	sh	a5,-36(s0)
    c0001504:	fe041723          	sh	zero,-18(s0)
    c0001508:	fe041623          	sh	zero,-20(s0)
    c000150c:	fe041723          	sh	zero,-18(s0)
    c0001510:	0380006f          	j	c0001548 <Delay+0x64>
    c0001514:	fe041623          	sh	zero,-20(s0)
    c0001518:	0100006f          	j	c0001528 <Delay+0x44>
    c000151c:	fec45783          	lhu	a5,-20(s0)
    c0001520:	0017879b          	addiw	a5,a5,1
    c0001524:	fef41623          	sh	a5,-20(s0)
    c0001528:	fec45703          	lhu	a4,-20(s0)
    c000152c:	fdc45783          	lhu	a5,-36(s0)
    c0001530:	0007071b          	sext.w	a4,a4
    c0001534:	0007879b          	sext.w	a5,a5
    c0001538:	fef762e3          	bltu	a4,a5,c000151c <Delay+0x38>
    c000153c:	fee45783          	lhu	a5,-18(s0)
    c0001540:	0017879b          	addiw	a5,a5,1
    c0001544:	fef41723          	sh	a5,-18(s0)
    c0001548:	fee45703          	lhu	a4,-18(s0)
    c000154c:	fde45783          	lhu	a5,-34(s0)
    c0001550:	0007071b          	sext.w	a4,a4
    c0001554:	0007879b          	sext.w	a5,a5
    c0001558:	faf76ee3          	bltu	a4,a5,c0001514 <Delay+0x30>
    c000155c:	00000013          	nop
    c0001560:	02813403          	ld	s0,40(sp)
    c0001564:	03010113          	addi	sp,sp,48
    c0001568:	00008067          	ret

00000000c000156c <pausePlay>:
    c000156c:	ff010113          	addi	sp,sp,-16
    c0001570:	00113423          	sd	ra,8(sp)
    c0001574:	00813023          	sd	s0,0(sp)
    c0001578:	01010413          	addi	s0,sp,16
    c000157c:	00000613          	li	a2,0
    c0001580:	00000593          	li	a1,0
    c0001584:	00e00513          	li	a0,14
    c0001588:	e41ff0ef          	jal	ra,c00013c8 <sendCommand>
    c000158c:	7d000593          	li	a1,2000
    c0001590:	3e800513          	li	a0,1000
    c0001594:	f51ff0ef          	jal	ra,c00014e4 <Delay>
    c0001598:	00000013          	nop
    c000159c:	00813083          	ld	ra,8(sp)
    c00015a0:	00013403          	ld	s0,0(sp)
    c00015a4:	01010113          	addi	sp,sp,16
    c00015a8:	00008067          	ret

00000000c00015ac <play>:
    c00015ac:	ff010113          	addi	sp,sp,-16
    c00015b0:	00113423          	sd	ra,8(sp)
    c00015b4:	00813023          	sd	s0,0(sp)
    c00015b8:	01010413          	addi	s0,sp,16
    c00015bc:	00100613          	li	a2,1
    c00015c0:	00000593          	li	a1,0
    c00015c4:	00d00513          	li	a0,13
    c00015c8:	e01ff0ef          	jal	ra,c00013c8 <sendCommand>
    c00015cc:	7d000593          	li	a1,2000
    c00015d0:	3e800513          	li	a0,1000
    c00015d4:	f11ff0ef          	jal	ra,c00014e4 <Delay>
    c00015d8:	00000013          	nop
    c00015dc:	00813083          	ld	ra,8(sp)
    c00015e0:	00013403          	ld	s0,0(sp)
    c00015e4:	01010113          	addi	sp,sp,16
    c00015e8:	00008067          	ret

00000000c00015ec <playNext>:
    c00015ec:	ff010113          	addi	sp,sp,-16
    c00015f0:	00113423          	sd	ra,8(sp)
    c00015f4:	00813023          	sd	s0,0(sp)
    c00015f8:	01010413          	addi	s0,sp,16
    c00015fc:	00100613          	li	a2,1
    c0001600:	00000593          	li	a1,0
    c0001604:	00100513          	li	a0,1
    c0001608:	dc1ff0ef          	jal	ra,c00013c8 <sendCommand>
    c000160c:	7d000593          	li	a1,2000
    c0001610:	3e800513          	li	a0,1000
    c0001614:	ed1ff0ef          	jal	ra,c00014e4 <Delay>
    c0001618:	00000013          	nop
    c000161c:	00813083          	ld	ra,8(sp)
    c0001620:	00013403          	ld	s0,0(sp)
    c0001624:	01010113          	addi	sp,sp,16
    c0001628:	00008067          	ret

00000000c000162c <playPrevious>:
    c000162c:	ff010113          	addi	sp,sp,-16
    c0001630:	00113423          	sd	ra,8(sp)
    c0001634:	00813023          	sd	s0,0(sp)
    c0001638:	01010413          	addi	s0,sp,16
    c000163c:	00100613          	li	a2,1
    c0001640:	00000593          	li	a1,0
    c0001644:	00200513          	li	a0,2
    c0001648:	d81ff0ef          	jal	ra,c00013c8 <sendCommand>
    c000164c:	7d000593          	li	a1,2000
    c0001650:	3e800513          	li	a0,1000
    c0001654:	e91ff0ef          	jal	ra,c00014e4 <Delay>
    c0001658:	00000013          	nop
    c000165c:	00813083          	ld	ra,8(sp)
    c0001660:	00013403          	ld	s0,0(sp)
    c0001664:	01010113          	addi	sp,sp,16
    c0001668:	00008067          	ret

00000000c000166c <setVolume>:
    c000166c:	fe010113          	addi	sp,sp,-32
    c0001670:	00113c23          	sd	ra,24(sp)
    c0001674:	00813823          	sd	s0,16(sp)
    c0001678:	02010413          	addi	s0,sp,32
    c000167c:	00050793          	mv	a5,a0
    c0001680:	fef42623          	sw	a5,-20(s0)
    c0001684:	fec42783          	lw	a5,-20(s0)
    c0001688:	0ff7f793          	andi	a5,a5,255
    c000168c:	00078613          	mv	a2,a5
    c0001690:	00000593          	li	a1,0
    c0001694:	00600513          	li	a0,6
    c0001698:	d31ff0ef          	jal	ra,c00013c8 <sendCommand>
    c000169c:	7d000593          	li	a1,2000
    c00016a0:	3e800513          	li	a0,1000
    c00016a4:	e41ff0ef          	jal	ra,c00014e4 <Delay>
    c00016a8:	00000013          	nop
    c00016ac:	01813083          	ld	ra,24(sp)
    c00016b0:	01013403          	ld	s0,16(sp)
    c00016b4:	02010113          	addi	sp,sp,32
    c00016b8:	00008067          	ret

00000000c00016bc <playFirst>:
    c00016bc:	ff010113          	addi	sp,sp,-16
    c00016c0:	00113423          	sd	ra,8(sp)
    c00016c4:	00813023          	sd	s0,0(sp)
    c00016c8:	01010413          	addi	s0,sp,16
    c00016cc:	00001517          	auipc	a0,0x1
    c00016d0:	6fc50513          	addi	a0,a0,1788 # c0002dc8 <atol+0x138>
    c00016d4:	278010ef          	jal	ra,c000294c <printf>
    c00016d8:	00000613          	li	a2,0
    c00016dc:	00000593          	li	a1,0
    c00016e0:	03f00513          	li	a0,63
    c00016e4:	ce5ff0ef          	jal	ra,c00013c8 <sendCommand>
    c00016e8:	7d000593          	li	a1,2000
    c00016ec:	3e800513          	li	a0,1000
    c00016f0:	df5ff0ef          	jal	ra,c00014e4 <Delay>
    c00016f4:	01e00513          	li	a0,30
    c00016f8:	f75ff0ef          	jal	ra,c000166c <setVolume>
    c00016fc:	7d000593          	li	a1,2000
    c0001700:	3e800513          	li	a0,1000
    c0001704:	de1ff0ef          	jal	ra,c00014e4 <Delay>
    c0001708:	00100613          	li	a2,1
    c000170c:	00000593          	li	a1,0
    c0001710:	01100513          	li	a0,17
    c0001714:	cb5ff0ef          	jal	ra,c00013c8 <sendCommand>
    c0001718:	7d000593          	li	a1,2000
    c000171c:	3e800513          	li	a0,1000
    c0001720:	dc5ff0ef          	jal	ra,c00014e4 <Delay>
    c0001724:	00001517          	auipc	a0,0x1
    c0001728:	6c450513          	addi	a0,a0,1732 # c0002de8 <atol+0x158>
    c000172c:	220010ef          	jal	ra,c000294c <printf>
    c0001730:	00000013          	nop
    c0001734:	00813083          	ld	ra,8(sp)
    c0001738:	00013403          	ld	s0,0(sp)
    c000173c:	01010113          	addi	sp,sp,16
    c0001740:	00008067          	ret

00000000c0001744 <StopPlay>:
    c0001744:	ff010113          	addi	sp,sp,-16
    c0001748:	00113423          	sd	ra,8(sp)
    c000174c:	00813023          	sd	s0,0(sp)
    c0001750:	01010413          	addi	s0,sp,16
    c0001754:	00000613          	li	a2,0
    c0001758:	00000593          	li	a1,0
    c000175c:	01600513          	li	a0,22
    c0001760:	c69ff0ef          	jal	ra,c00013c8 <sendCommand>
    c0001764:	7d000593          	li	a1,2000
    c0001768:	3e800513          	li	a0,1000
    c000176c:	d79ff0ef          	jal	ra,c00014e4 <Delay>
    c0001770:	00000013          	nop
    c0001774:	00813083          	ld	ra,8(sp)
    c0001778:	00013403          	ld	s0,0(sp)
    c000177c:	01010113          	addi	sp,sp,16
    c0001780:	00008067          	ret

00000000c0001784 <Uart0InitBcm>:
    c0001784:	ff010113          	addi	sp,sp,-16
    c0001788:	00813423          	sd	s0,8(sp)
    c000178c:	01010413          	addi	s0,sp,16
    c0001790:	00011337          	lui	t1,0x11
    c0001794:	2003031b          	addiw	t1,t1,512
    c0001798:	08300393          	li	t2,131
    c000179c:	00730c23          	sb	t2,24(t1) # 11018 <_tbss_end+0x11014>
    c00017a0:	00000393          	li	t2,0
    c00017a4:	00030423          	sb	zero,8(t1)
    c00017a8:	00b00393          	li	t2,11
    c00017ac:	00730023          	sb	t2,0(t1)
    c00017b0:	00300393          	li	t2,3
    c00017b4:	00730c23          	sb	t2,24(t1)
    c00017b8:	00600393          	li	t2,6
    c00017bc:	00730823          	sb	t2,16(t1)
    c00017c0:	00030423          	sb	zero,8(t1)
    c00017c4:	00000793          	li	a5,0
    c00017c8:	00078513          	mv	a0,a5
    c00017cc:	00813403          	ld	s0,8(sp)
    c00017d0:	01010113          	addi	sp,sp,16
    c00017d4:	00008067          	ret

00000000c00017d8 <delay>:
    c00017d8:	fd010113          	addi	sp,sp,-48
    c00017dc:	02813423          	sd	s0,40(sp)
    c00017e0:	03010413          	addi	s0,sp,48
    c00017e4:	fca43c23          	sd	a0,-40(s0)
    c00017e8:	fcb43823          	sd	a1,-48(s0)
    c00017ec:	fe043423          	sd	zero,-24(s0)
    c00017f0:	0200006f          	j	c0001810 <delay+0x38>
    c00017f4:	fd043783          	ld	a5,-48(s0)
    c00017f8:	fef43423          	sd	a5,-24(s0)
    c00017fc:	00000013          	nop
    c0001800:	fe843783          	ld	a5,-24(s0)
    c0001804:	fff78713          	addi	a4,a5,-1
    c0001808:	fee43423          	sd	a4,-24(s0)
    c000180c:	fe079ae3          	bnez	a5,c0001800 <delay+0x28>
    c0001810:	fd843783          	ld	a5,-40(s0)
    c0001814:	fff78713          	addi	a4,a5,-1
    c0001818:	fce43c23          	sd	a4,-40(s0)
    c000181c:	fc079ce3          	bnez	a5,c00017f4 <delay+0x1c>
    c0001820:	00000013          	nop
    c0001824:	02813403          	ld	s0,40(sp)
    c0001828:	03010113          	addi	sp,sp,48
    c000182c:	00008067          	ret

00000000c0001830 <main>:
    c0001830:	ff010113          	addi	sp,sp,-16
    c0001834:	00113423          	sd	ra,8(sp)
    c0001838:	00813023          	sd	s0,0(sp)
    c000183c:	01010413          	addi	s0,sp,16
    c0001840:	0001c7b7          	lui	a5,0x1c
    c0001844:	20078513          	addi	a0,a5,512 # 1c200 <_tbss_end+0x1c1fc>
    c0001848:	f3dff0ef          	jal	ra,c0001784 <Uart0InitBcm>
    c000184c:	04700613          	li	a2,71
    c0001850:	00000593          	li	a1,0
    c0001854:	00000513          	li	a0,0
    c0001858:	ff0ff0ef          	jal	ra,c0001048 <WriteIntoUart>
    c000185c:	3e800593          	li	a1,1000
    c0001860:	00a00513          	li	a0,10
    c0001864:	f75ff0ef          	jal	ra,c00017d8 <delay>
    c0001868:	03200613          	li	a2,50
    c000186c:	00000593          	li	a1,0
    c0001870:	00000513          	li	a0,0
    c0001874:	fd4ff0ef          	jal	ra,c0001048 <WriteIntoUart>
    c0001878:	3e800593          	li	a1,1000
    c000187c:	00a00513          	li	a0,10
    c0001880:	f59ff0ef          	jal	ra,c00017d8 <delay>
    c0001884:	03800613          	li	a2,56
    c0001888:	00000593          	li	a1,0
    c000188c:	00000513          	li	a0,0
    c0001890:	fb8ff0ef          	jal	ra,c0001048 <WriteIntoUart>
    c0001894:	3e800593          	li	a1,1000
    c0001898:	00a00513          	li	a0,10
    c000189c:	f3dff0ef          	jal	ra,c00017d8 <delay>
    c00018a0:	02000613          	li	a2,32
    c00018a4:	00000593          	li	a1,0
    c00018a8:	00000513          	li	a0,0
    c00018ac:	f9cff0ef          	jal	ra,c0001048 <WriteIntoUart>
    c00018b0:	3e800593          	li	a1,1000
    c00018b4:	00a00513          	li	a0,10
    c00018b8:	f21ff0ef          	jal	ra,c00017d8 <delay>
    c00018bc:	05800613          	li	a2,88
    c00018c0:	00000593          	li	a1,0
    c00018c4:	00000513          	li	a0,0
    c00018c8:	f80ff0ef          	jal	ra,c0001048 <WriteIntoUart>
    c00018cc:	3e800593          	li	a1,1000
    c00018d0:	00a00513          	li	a0,10
    c00018d4:	f05ff0ef          	jal	ra,c00017d8 <delay>
    c00018d8:	00000013          	nop
    c00018dc:	00813083          	ld	ra,8(sp)
    c00018e0:	00013403          	ld	s0,0(sp)
    c00018e4:	01010113          	addi	sp,sp,16
    c00018e8:	00008067          	ret

00000000c00018ec <printArray>:
    c00018ec:	fd010113          	addi	sp,sp,-48
    c00018f0:	02813423          	sd	s0,40(sp)
    c00018f4:	03010413          	addi	s0,sp,48
    c00018f8:	fea43423          	sd	a0,-24(s0)
    c00018fc:	00058793          	mv	a5,a1
    c0001900:	fcc43c23          	sd	a2,-40(s0)
    c0001904:	fef42223          	sw	a5,-28(s0)
    c0001908:	00000013          	nop
    c000190c:	02813403          	ld	s0,40(sp)
    c0001910:	03010113          	addi	sp,sp,48
    c0001914:	00008067          	ret

00000000c0001918 <printDoubleArray>:
    c0001918:	fd010113          	addi	sp,sp,-48
    c000191c:	02813423          	sd	s0,40(sp)
    c0001920:	03010413          	addi	s0,sp,48
    c0001924:	fea43423          	sd	a0,-24(s0)
    c0001928:	00058793          	mv	a5,a1
    c000192c:	fcc43c23          	sd	a2,-40(s0)
    c0001930:	fef42223          	sw	a5,-28(s0)
    c0001934:	00000013          	nop
    c0001938:	02813403          	ld	s0,40(sp)
    c000193c:	03010113          	addi	sp,sp,48
    c0001940:	00008067          	ret

00000000c0001944 <verify>:
    c0001944:	fb010113          	addi	sp,sp,-80
    c0001948:	04813423          	sd	s0,72(sp)
    c000194c:	05010413          	addi	s0,sp,80
    c0001950:	00050793          	mv	a5,a0
    c0001954:	fcb43023          	sd	a1,-64(s0)
    c0001958:	fac43c23          	sd	a2,-72(s0)
    c000195c:	fcf42623          	sw	a5,-52(s0)
    c0001960:	fe042623          	sw	zero,-20(s0)
    c0001964:	0c00006f          	j	c0001a24 <verify+0xe0>
    c0001968:	fec42783          	lw	a5,-20(s0)
    c000196c:	00279793          	slli	a5,a5,0x2
    c0001970:	fc043703          	ld	a4,-64(s0)
    c0001974:	00f707b3          	add	a5,a4,a5
    c0001978:	0007a783          	lw	a5,0(a5)
    c000197c:	fef42423          	sw	a5,-24(s0)
    c0001980:	fec42783          	lw	a5,-20(s0)
    c0001984:	00178793          	addi	a5,a5,1
    c0001988:	00279793          	slli	a5,a5,0x2
    c000198c:	fc043703          	ld	a4,-64(s0)
    c0001990:	00f707b3          	add	a5,a4,a5
    c0001994:	0007a783          	lw	a5,0(a5)
    c0001998:	fef42223          	sw	a5,-28(s0)
    c000199c:	fec42783          	lw	a5,-20(s0)
    c00019a0:	00279793          	slli	a5,a5,0x2
    c00019a4:	fb843703          	ld	a4,-72(s0)
    c00019a8:	00f707b3          	add	a5,a4,a5
    c00019ac:	0007a783          	lw	a5,0(a5)
    c00019b0:	fef42023          	sw	a5,-32(s0)
    c00019b4:	fec42783          	lw	a5,-20(s0)
    c00019b8:	00178793          	addi	a5,a5,1
    c00019bc:	00279793          	slli	a5,a5,0x2
    c00019c0:	fb843703          	ld	a4,-72(s0)
    c00019c4:	00f707b3          	add	a5,a4,a5
    c00019c8:	0007a783          	lw	a5,0(a5)
    c00019cc:	fcf42e23          	sw	a5,-36(s0)
    c00019d0:	fe842703          	lw	a4,-24(s0)
    c00019d4:	fe042783          	lw	a5,-32(s0)
    c00019d8:	0007071b          	sext.w	a4,a4
    c00019dc:	0007879b          	sext.w	a5,a5
    c00019e0:	00f70a63          	beq	a4,a5,c00019f4 <verify+0xb0>
    c00019e4:	fec42783          	lw	a5,-20(s0)
    c00019e8:	0017879b          	addiw	a5,a5,1
    c00019ec:	0007879b          	sext.w	a5,a5
    c00019f0:	0b40006f          	j	c0001aa4 <verify+0x160>
    c00019f4:	fe442703          	lw	a4,-28(s0)
    c00019f8:	fdc42783          	lw	a5,-36(s0)
    c00019fc:	0007071b          	sext.w	a4,a4
    c0001a00:	0007879b          	sext.w	a5,a5
    c0001a04:	00f70a63          	beq	a4,a5,c0001a18 <verify+0xd4>
    c0001a08:	fec42783          	lw	a5,-20(s0)
    c0001a0c:	0027879b          	addiw	a5,a5,2
    c0001a10:	0007879b          	sext.w	a5,a5
    c0001a14:	0900006f          	j	c0001aa4 <verify+0x160>
    c0001a18:	fec42783          	lw	a5,-20(s0)
    c0001a1c:	0027879b          	addiw	a5,a5,2
    c0001a20:	fef42623          	sw	a5,-20(s0)
    c0001a24:	fcc42783          	lw	a5,-52(s0)
    c0001a28:	01f7d71b          	srliw	a4,a5,0x1f
    c0001a2c:	00f707bb          	addw	a5,a4,a5
    c0001a30:	4017d79b          	sraiw	a5,a5,0x1
    c0001a34:	0007879b          	sext.w	a5,a5
    c0001a38:	0017979b          	slliw	a5,a5,0x1
    c0001a3c:	0007871b          	sext.w	a4,a5
    c0001a40:	fec42783          	lw	a5,-20(s0)
    c0001a44:	0007879b          	sext.w	a5,a5
    c0001a48:	f2e7c0e3          	blt	a5,a4,c0001968 <verify+0x24>
    c0001a4c:	fcc42783          	lw	a5,-52(s0)
    c0001a50:	0017f793          	andi	a5,a5,1
    c0001a54:	0007879b          	sext.w	a5,a5
    c0001a58:	04078463          	beqz	a5,c0001aa0 <verify+0x15c>
    c0001a5c:	fcc42783          	lw	a5,-52(s0)
    c0001a60:	00279793          	slli	a5,a5,0x2
    c0001a64:	ffc78793          	addi	a5,a5,-4
    c0001a68:	fc043703          	ld	a4,-64(s0)
    c0001a6c:	00f707b3          	add	a5,a4,a5
    c0001a70:	0007a783          	lw	a5,0(a5)
    c0001a74:	0007869b          	sext.w	a3,a5
    c0001a78:	fcc42783          	lw	a5,-52(s0)
    c0001a7c:	00279793          	slli	a5,a5,0x2
    c0001a80:	ffc78793          	addi	a5,a5,-4
    c0001a84:	fb843703          	ld	a4,-72(s0)
    c0001a88:	00f707b3          	add	a5,a4,a5
    c0001a8c:	0007a783          	lw	a5,0(a5)
    c0001a90:	00068713          	mv	a4,a3
    c0001a94:	00f70663          	beq	a4,a5,c0001aa0 <verify+0x15c>
    c0001a98:	fcc42783          	lw	a5,-52(s0)
    c0001a9c:	0080006f          	j	c0001aa4 <verify+0x160>
    c0001aa0:	00000793          	li	a5,0
    c0001aa4:	00078513          	mv	a0,a5
    c0001aa8:	04813403          	ld	s0,72(sp)
    c0001aac:	05010113          	addi	sp,sp,80
    c0001ab0:	00008067          	ret

00000000c0001ab4 <verifyDouble>:
    c0001ab4:	fa010113          	addi	sp,sp,-96
    c0001ab8:	04813c23          	sd	s0,88(sp)
    c0001abc:	06010413          	addi	s0,sp,96
    c0001ac0:	00050793          	mv	a5,a0
    c0001ac4:	fab43823          	sd	a1,-80(s0)
    c0001ac8:	fac43423          	sd	a2,-88(s0)
    c0001acc:	faf42e23          	sw	a5,-68(s0)
    c0001ad0:	fe042623          	sw	zero,-20(s0)
    c0001ad4:	0d80006f          	j	c0001bac <verifyDouble+0xf8>
    c0001ad8:	fec42783          	lw	a5,-20(s0)
    c0001adc:	00379793          	slli	a5,a5,0x3
    c0001ae0:	fb043703          	ld	a4,-80(s0)
    c0001ae4:	00f707b3          	add	a5,a4,a5
    c0001ae8:	0007b787          	fld	fa5,0(a5)
    c0001aec:	fef43027          	fsd	fa5,-32(s0)
    c0001af0:	fec42783          	lw	a5,-20(s0)
    c0001af4:	00178793          	addi	a5,a5,1
    c0001af8:	00379793          	slli	a5,a5,0x3
    c0001afc:	fb043703          	ld	a4,-80(s0)
    c0001b00:	00f707b3          	add	a5,a4,a5
    c0001b04:	0007b787          	fld	fa5,0(a5)
    c0001b08:	fcf43c27          	fsd	fa5,-40(s0)
    c0001b0c:	fec42783          	lw	a5,-20(s0)
    c0001b10:	00379793          	slli	a5,a5,0x3
    c0001b14:	fa843703          	ld	a4,-88(s0)
    c0001b18:	00f707b3          	add	a5,a4,a5
    c0001b1c:	0007b787          	fld	fa5,0(a5)
    c0001b20:	fcf43827          	fsd	fa5,-48(s0)
    c0001b24:	fec42783          	lw	a5,-20(s0)
    c0001b28:	00178793          	addi	a5,a5,1
    c0001b2c:	00379793          	slli	a5,a5,0x3
    c0001b30:	fa843703          	ld	a4,-88(s0)
    c0001b34:	00f707b3          	add	a5,a4,a5
    c0001b38:	0007b787          	fld	fa5,0(a5)
    c0001b3c:	fcf43427          	fsd	fa5,-56(s0)
    c0001b40:	fe043707          	fld	fa4,-32(s0)
    c0001b44:	fd043787          	fld	fa5,-48(s0)
    c0001b48:	a2f727d3          	feq.d	a5,fa4,fa5
    c0001b4c:	00f037b3          	snez	a5,a5
    c0001b50:	0ff7f793          	andi	a5,a5,255
    c0001b54:	fcf42223          	sw	a5,-60(s0)
    c0001b58:	fd843707          	fld	fa4,-40(s0)
    c0001b5c:	fc843787          	fld	fa5,-56(s0)
    c0001b60:	a2f727d3          	feq.d	a5,fa4,fa5
    c0001b64:	00f037b3          	snez	a5,a5
    c0001b68:	0ff7f793          	andi	a5,a5,255
    c0001b6c:	fcf42023          	sw	a5,-64(s0)
    c0001b70:	fc442703          	lw	a4,-60(s0)
    c0001b74:	fc042783          	lw	a5,-64(s0)
    c0001b78:	00f777b3          	and	a5,a4,a5
    c0001b7c:	0007879b          	sext.w	a5,a5
    c0001b80:	02079063          	bnez	a5,c0001ba0 <verifyDouble+0xec>
    c0001b84:	fec42783          	lw	a5,-20(s0)
    c0001b88:	0017879b          	addiw	a5,a5,1
    c0001b8c:	0007879b          	sext.w	a5,a5
    c0001b90:	fc442703          	lw	a4,-60(s0)
    c0001b94:	00f707bb          	addw	a5,a4,a5
    c0001b98:	0007879b          	sext.w	a5,a5
    c0001b9c:	08c0006f          	j	c0001c28 <verifyDouble+0x174>
    c0001ba0:	fec42783          	lw	a5,-20(s0)
    c0001ba4:	0027879b          	addiw	a5,a5,2
    c0001ba8:	fef42623          	sw	a5,-20(s0)
    c0001bac:	fbc42783          	lw	a5,-68(s0)
    c0001bb0:	01f7d71b          	srliw	a4,a5,0x1f
    c0001bb4:	00f707bb          	addw	a5,a4,a5
    c0001bb8:	4017d79b          	sraiw	a5,a5,0x1
    c0001bbc:	0007879b          	sext.w	a5,a5
    c0001bc0:	0017979b          	slliw	a5,a5,0x1
    c0001bc4:	0007871b          	sext.w	a4,a5
    c0001bc8:	fec42783          	lw	a5,-20(s0)
    c0001bcc:	0007879b          	sext.w	a5,a5
    c0001bd0:	f0e7c4e3          	blt	a5,a4,c0001ad8 <verifyDouble+0x24>
    c0001bd4:	fbc42783          	lw	a5,-68(s0)
    c0001bd8:	0017f793          	andi	a5,a5,1
    c0001bdc:	0007879b          	sext.w	a5,a5
    c0001be0:	04078263          	beqz	a5,c0001c24 <verifyDouble+0x170>
    c0001be4:	fbc42783          	lw	a5,-68(s0)
    c0001be8:	00379793          	slli	a5,a5,0x3
    c0001bec:	ff878793          	addi	a5,a5,-8
    c0001bf0:	fb043703          	ld	a4,-80(s0)
    c0001bf4:	00f707b3          	add	a5,a4,a5
    c0001bf8:	0007b707          	fld	fa4,0(a5)
    c0001bfc:	fbc42783          	lw	a5,-68(s0)
    c0001c00:	00379793          	slli	a5,a5,0x3
    c0001c04:	ff878793          	addi	a5,a5,-8
    c0001c08:	fa843703          	ld	a4,-88(s0)
    c0001c0c:	00f707b3          	add	a5,a4,a5
    c0001c10:	0007b787          	fld	fa5,0(a5)
    c0001c14:	a2f727d3          	feq.d	a5,fa4,fa5
    c0001c18:	00079663          	bnez	a5,c0001c24 <verifyDouble+0x170>
    c0001c1c:	fbc42783          	lw	a5,-68(s0)
    c0001c20:	0080006f          	j	c0001c28 <verifyDouble+0x174>
    c0001c24:	00000793          	li	a5,0
    c0001c28:	00078513          	mv	a0,a5
    c0001c2c:	05813403          	ld	s0,88(sp)
    c0001c30:	06010113          	addi	sp,sp,96
    c0001c34:	00008067          	ret

00000000c0001c38 <barrier>:
    c0001c38:	fe010113          	addi	sp,sp,-32
    c0001c3c:	00813c23          	sd	s0,24(sp)
    c0001c40:	02010413          	addi	s0,sp,32
    c0001c44:	00050793          	mv	a5,a0
    c0001c48:	fef42623          	sw	a5,-20(s0)
    c0001c4c:	00022783          	lw	a5,0(tp) # 0 <_tdata_begin>
    c0001c50:	0017b793          	seqz	a5,a5
    c0001c54:	0ff7f793          	andi	a5,a5,255
    c0001c58:	0007871b          	sext.w	a4,a5
    c0001c5c:	00e22023          	sw	a4,0(tp) # 0 <_tdata_begin>
    c0001c60:	00001797          	auipc	a5,0x1
    c0001c64:	38878793          	addi	a5,a5,904 # c0002fe8 <count.2750>
    c0001c68:	00100713          	li	a4,1
    c0001c6c:	0f50000f          	fence	iorw,ow
    c0001c70:	04e7a6af          	amoadd.w.aq	a3,a4,(a5)
    c0001c74:	0006879b          	sext.w	a5,a3
    c0001c78:	0007871b          	sext.w	a4,a5
    c0001c7c:	fec42783          	lw	a5,-20(s0)
    c0001c80:	fff7879b          	addiw	a5,a5,-1
    c0001c84:	0007879b          	sext.w	a5,a5
    c0001c88:	02f71263          	bne	a4,a5,c0001cac <barrier+0x74>
    c0001c8c:	00001797          	auipc	a5,0x1
    c0001c90:	35c78793          	addi	a5,a5,860 # c0002fe8 <count.2750>
    c0001c94:	0007a023          	sw	zero,0(a5)
    c0001c98:	00022703          	lw	a4,0(tp) # 0 <_tdata_begin>
    c0001c9c:	00001797          	auipc	a5,0x1
    c0001ca0:	35078793          	addi	a5,a5,848 # c0002fec <sense.2749>
    c0001ca4:	00e7a023          	sw	a4,0(a5)
    c0001ca8:	0200006f          	j	c0001cc8 <barrier+0x90>
    c0001cac:	00000013          	nop
    c0001cb0:	00001797          	auipc	a5,0x1
    c0001cb4:	33c78793          	addi	a5,a5,828 # c0002fec <sense.2749>
    c0001cb8:	0007a783          	lw	a5,0(a5)
    c0001cbc:	0007871b          	sext.w	a4,a5
    c0001cc0:	00022783          	lw	a5,0(tp) # 0 <_tdata_begin>
    c0001cc4:	fef716e3          	bne	a4,a5,c0001cb0 <barrier+0x78>
    c0001cc8:	00000013          	nop
    c0001ccc:	01813403          	ld	s0,24(sp)
    c0001cd0:	02010113          	addi	sp,sp,32
    c0001cd4:	00008067          	ret

00000000c0001cd8 <lfsr>:
    c0001cd8:	fd010113          	addi	sp,sp,-48
    c0001cdc:	02813423          	sd	s0,40(sp)
    c0001ce0:	03010413          	addi	s0,sp,48
    c0001ce4:	fca43c23          	sd	a0,-40(s0)
    c0001ce8:	fd843783          	ld	a5,-40(s0)
    c0001cec:	0017d713          	srli	a4,a5,0x1
    c0001cf0:	fd843783          	ld	a5,-40(s0)
    c0001cf4:	00f747b3          	xor	a5,a4,a5
    c0001cf8:	0017f793          	andi	a5,a5,1
    c0001cfc:	fef43423          	sd	a5,-24(s0)
    c0001d00:	fd843783          	ld	a5,-40(s0)
    c0001d04:	0017d713          	srli	a4,a5,0x1
    c0001d08:	fe843783          	ld	a5,-24(s0)
    c0001d0c:	03e79793          	slli	a5,a5,0x3e
    c0001d10:	00f767b3          	or	a5,a4,a5
    c0001d14:	00078513          	mv	a0,a5
    c0001d18:	02813403          	ld	s0,40(sp)
    c0001d1c:	03010113          	addi	sp,sp,48
    c0001d20:	00008067          	ret

00000000c0001d24 <syscall>:
    c0001d24:	f5010113          	addi	sp,sp,-176
    c0001d28:	0a813423          	sd	s0,168(sp)
    c0001d2c:	0b010413          	addi	s0,sp,176
    c0001d30:	f6a43423          	sd	a0,-152(s0)
    c0001d34:	f6b43023          	sd	a1,-160(s0)
    c0001d38:	f4c43c23          	sd	a2,-168(s0)
    c0001d3c:	f4d43823          	sd	a3,-176(s0)
    c0001d40:	ff040793          	addi	a5,s0,-16
    c0001d44:	f8078793          	addi	a5,a5,-128
    c0001d48:	03f78793          	addi	a5,a5,63
    c0001d4c:	0067d793          	srli	a5,a5,0x6
    c0001d50:	00679793          	slli	a5,a5,0x6
    c0001d54:	f6843703          	ld	a4,-152(s0)
    c0001d58:	00e7b023          	sd	a4,0(a5)
    c0001d5c:	f6043703          	ld	a4,-160(s0)
    c0001d60:	00e7b423          	sd	a4,8(a5)
    c0001d64:	f5843703          	ld	a4,-168(s0)
    c0001d68:	00e7b823          	sd	a4,16(a5)
    c0001d6c:	f5043703          	ld	a4,-176(s0)
    c0001d70:	00e7bc23          	sd	a4,24(a5)
    c0001d74:	00078693          	mv	a3,a5
    c0001d78:	fffff717          	auipc	a4,0xfffff
    c0001d7c:	28870713          	addi	a4,a4,648 # c0001000 <tohost>
    c0001d80:	00d73023          	sd	a3,0(a4)
    c0001d84:	00000013          	nop
    c0001d88:	fffff717          	auipc	a4,0xfffff
    c0001d8c:	2b870713          	addi	a4,a4,696 # c0001040 <fromhost>
    c0001d90:	00073703          	ld	a4,0(a4)
    c0001d94:	fe070ae3          	beqz	a4,c0001d88 <syscall+0x64>
    c0001d98:	0007b783          	ld	a5,0(a5)
    c0001d9c:	00078513          	mv	a0,a5
    c0001da0:	0a813403          	ld	s0,168(sp)
    c0001da4:	0b010113          	addi	sp,sp,176
    c0001da8:	00008067          	ret

00000000c0001dac <setStats>:
    c0001dac:	fb010113          	addi	sp,sp,-80
    c0001db0:	04813423          	sd	s0,72(sp)
    c0001db4:	05010413          	addi	s0,sp,80
    c0001db8:	00050793          	mv	a5,a0
    c0001dbc:	faf42e23          	sw	a5,-68(s0)
    c0001dc0:	fc042e23          	sw	zero,-36(s0)
    c0001dc4:	fdc42783          	lw	a5,-36(s0)
    c0001dc8:	0007871b          	sext.w	a4,a5
    c0001dcc:	00100793          	li	a5,1
    c0001dd0:	fee7cae3          	blt	a5,a4,c0001dc4 <setStats+0x18>
    c0001dd4:	b00027f3          	csrr	a5,mcycle
    c0001dd8:	fcf43823          	sd	a5,-48(s0)
    c0001ddc:	fd043783          	ld	a5,-48(s0)
    c0001de0:	fef43423          	sd	a5,-24(s0)
    c0001de4:	fbc42783          	lw	a5,-68(s0)
    c0001de8:	0007879b          	sext.w	a5,a5
    c0001dec:	04079463          	bnez	a5,c0001e34 <setStats+0x88>
    c0001df0:	00001717          	auipc	a4,0x1
    c0001df4:	1d870713          	addi	a4,a4,472 # c0002fc8 <counters>
    c0001df8:	fdc42783          	lw	a5,-36(s0)
    c0001dfc:	00379793          	slli	a5,a5,0x3
    c0001e00:	00f707b3          	add	a5,a4,a5
    c0001e04:	0007b783          	ld	a5,0(a5)
    c0001e08:	fe843703          	ld	a4,-24(s0)
    c0001e0c:	40f707b3          	sub	a5,a4,a5
    c0001e10:	fef43423          	sd	a5,-24(s0)
    c0001e14:	00001717          	auipc	a4,0x1
    c0001e18:	1c470713          	addi	a4,a4,452 # c0002fd8 <counter_names>
    c0001e1c:	fdc42783          	lw	a5,-36(s0)
    c0001e20:	00379793          	slli	a5,a5,0x3
    c0001e24:	00f707b3          	add	a5,a4,a5
    c0001e28:	00001717          	auipc	a4,0x1
    c0001e2c:	fe870713          	addi	a4,a4,-24 # c0002e10 <atol+0x180>
    c0001e30:	00e7b023          	sd	a4,0(a5)
    c0001e34:	fdc42783          	lw	a5,-36(s0)
    c0001e38:	0017871b          	addiw	a4,a5,1
    c0001e3c:	fce42e23          	sw	a4,-36(s0)
    c0001e40:	00001717          	auipc	a4,0x1
    c0001e44:	18870713          	addi	a4,a4,392 # c0002fc8 <counters>
    c0001e48:	00379793          	slli	a5,a5,0x3
    c0001e4c:	00f707b3          	add	a5,a4,a5
    c0001e50:	fe843703          	ld	a4,-24(s0)
    c0001e54:	00e7b023          	sd	a4,0(a5)
    c0001e58:	fdc42783          	lw	a5,-36(s0)
    c0001e5c:	0007871b          	sext.w	a4,a5
    c0001e60:	00100793          	li	a5,1
    c0001e64:	fee7cae3          	blt	a5,a4,c0001e58 <setStats+0xac>
    c0001e68:	b02027f3          	csrr	a5,minstret
    c0001e6c:	fcf43423          	sd	a5,-56(s0)
    c0001e70:	fc843783          	ld	a5,-56(s0)
    c0001e74:	fef43023          	sd	a5,-32(s0)
    c0001e78:	fbc42783          	lw	a5,-68(s0)
    c0001e7c:	0007879b          	sext.w	a5,a5
    c0001e80:	04079463          	bnez	a5,c0001ec8 <setStats+0x11c>
    c0001e84:	00001717          	auipc	a4,0x1
    c0001e88:	14470713          	addi	a4,a4,324 # c0002fc8 <counters>
    c0001e8c:	fdc42783          	lw	a5,-36(s0)
    c0001e90:	00379793          	slli	a5,a5,0x3
    c0001e94:	00f707b3          	add	a5,a4,a5
    c0001e98:	0007b783          	ld	a5,0(a5)
    c0001e9c:	fe043703          	ld	a4,-32(s0)
    c0001ea0:	40f707b3          	sub	a5,a4,a5
    c0001ea4:	fef43023          	sd	a5,-32(s0)
    c0001ea8:	00001717          	auipc	a4,0x1
    c0001eac:	13070713          	addi	a4,a4,304 # c0002fd8 <counter_names>
    c0001eb0:	fdc42783          	lw	a5,-36(s0)
    c0001eb4:	00379793          	slli	a5,a5,0x3
    c0001eb8:	00f707b3          	add	a5,a4,a5
    c0001ebc:	00001717          	auipc	a4,0x1
    c0001ec0:	f5c70713          	addi	a4,a4,-164 # c0002e18 <atol+0x188>
    c0001ec4:	00e7b023          	sd	a4,0(a5)
    c0001ec8:	fdc42783          	lw	a5,-36(s0)
    c0001ecc:	0017871b          	addiw	a4,a5,1
    c0001ed0:	fce42e23          	sw	a4,-36(s0)
    c0001ed4:	00001717          	auipc	a4,0x1
    c0001ed8:	0f470713          	addi	a4,a4,244 # c0002fc8 <counters>
    c0001edc:	00379793          	slli	a5,a5,0x3
    c0001ee0:	00f707b3          	add	a5,a4,a5
    c0001ee4:	fe043703          	ld	a4,-32(s0)
    c0001ee8:	00e7b023          	sd	a4,0(a5)
    c0001eec:	00000013          	nop
    c0001ef0:	04813403          	ld	s0,72(sp)
    c0001ef4:	05010113          	addi	sp,sp,80
    c0001ef8:	00008067          	ret

00000000c0001efc <tohost_exit>:
    c0001efc:	fe010113          	addi	sp,sp,-32
    c0001f00:	00813c23          	sd	s0,24(sp)
    c0001f04:	02010413          	addi	s0,sp,32
    c0001f08:	fea43423          	sd	a0,-24(s0)
    c0001f0c:	00011337          	lui	t1,0x11
    c0001f10:	2003031b          	addiw	t1,t1,512

00000000c0001f14 <uart1_status>:
    c0001f14:	00830383          	lb	t2,8(t1) # 11008 <_tbss_end+0x11004>
    c0001f18:	0013f393          	andi	t2,t2,1
    c0001f1c:	fe038ce3          	beqz	t2,c0001f14 <uart1_status>
    c0001f20:	fe843783          	ld	a5,-24(s0)
    c0001f24:	00179793          	slli	a5,a5,0x1
    c0001f28:	0017e713          	ori	a4,a5,1
    c0001f2c:	fffff797          	auipc	a5,0xfffff
    c0001f30:	0d478793          	addi	a5,a5,212 # c0001000 <tohost>
    c0001f34:	00e7b023          	sd	a4,0(a5)
    c0001f38:	0000006f          	j	c0001f38 <uart1_status+0x24>

00000000c0001f3c <handle_trap>:
    c0001f3c:	fd010113          	addi	sp,sp,-48
    c0001f40:	02113423          	sd	ra,40(sp)
    c0001f44:	02813023          	sd	s0,32(sp)
    c0001f48:	03010413          	addi	s0,sp,48
    c0001f4c:	fea43423          	sd	a0,-24(s0)
    c0001f50:	feb43023          	sd	a1,-32(s0)
    c0001f54:	fcc43c23          	sd	a2,-40(s0)
    c0001f58:	53900513          	li	a0,1337
    c0001f5c:	fa1ff0ef          	jal	ra,c0001efc <tohost_exit>

00000000c0001f60 <exit>:
    c0001f60:	fe010113          	addi	sp,sp,-32
    c0001f64:	00113c23          	sd	ra,24(sp)
    c0001f68:	00813823          	sd	s0,16(sp)
    c0001f6c:	02010413          	addi	s0,sp,32
    c0001f70:	00050793          	mv	a5,a0
    c0001f74:	fef42623          	sw	a5,-20(s0)
    c0001f78:	fec42783          	lw	a5,-20(s0)
    c0001f7c:	00078513          	mv	a0,a5
    c0001f80:	f7dff0ef          	jal	ra,c0001efc <tohost_exit>

00000000c0001f84 <abort>:
    c0001f84:	ff010113          	addi	sp,sp,-16
    c0001f88:	00113423          	sd	ra,8(sp)
    c0001f8c:	00813023          	sd	s0,0(sp)
    c0001f90:	01010413          	addi	s0,sp,16
    c0001f94:	08600513          	li	a0,134
    c0001f98:	fc9ff0ef          	jal	ra,c0001f60 <exit>

00000000c0001f9c <printstr>:
    c0001f9c:	fd010113          	addi	sp,sp,-48
    c0001fa0:	02113423          	sd	ra,40(sp)
    c0001fa4:	02813023          	sd	s0,32(sp)
    c0001fa8:	00913c23          	sd	s1,24(sp)
    c0001fac:	03010413          	addi	s0,sp,48
    c0001fb0:	fca43c23          	sd	a0,-40(s0)
    c0001fb4:	fd843483          	ld	s1,-40(s0)
    c0001fb8:	fd843503          	ld	a0,-40(s0)
    c0001fbc:	341000ef          	jal	ra,c0002afc <strlen>
    c0001fc0:	00050793          	mv	a5,a0
    c0001fc4:	00078693          	mv	a3,a5
    c0001fc8:	00048613          	mv	a2,s1
    c0001fcc:	00100593          	li	a1,1
    c0001fd0:	04000513          	li	a0,64
    c0001fd4:	d51ff0ef          	jal	ra,c0001d24 <syscall>
    c0001fd8:	00000013          	nop
    c0001fdc:	02813083          	ld	ra,40(sp)
    c0001fe0:	02013403          	ld	s0,32(sp)
    c0001fe4:	01813483          	ld	s1,24(sp)
    c0001fe8:	03010113          	addi	sp,sp,48
    c0001fec:	00008067          	ret
    c0001ff0:	fe010113          	addi	sp,sp,-32
    c0001ff4:	00113c23          	sd	ra,24(sp)
    c0001ff8:	00813823          	sd	s0,16(sp)
    c0001ffc:	02010413          	addi	s0,sp,32
    c0002000:	00050793          	mv	a5,a0
    c0002004:	feb43023          	sd	a1,-32(s0)
    c0002008:	fef42623          	sw	a5,-20(s0)
    c000200c:	00001517          	auipc	a0,0x1
    c0002010:	e1c50513          	addi	a0,a0,-484 # c0002e28 <atol+0x198>
    c0002014:	f89ff0ef          	jal	ra,c0001f9c <printstr>
    c0002018:	fff00793          	li	a5,-1
    c000201c:	00078513          	mv	a0,a5
    c0002020:	01813083          	ld	ra,24(sp)
    c0002024:	01013403          	ld	s0,16(sp)
    c0002028:	02010113          	addi	sp,sp,32
    c000202c:	00008067          	ret

00000000c0002030 <getchar>:
    c0002030:	ff010113          	addi	sp,sp,-16
    c0002034:	00813423          	sd	s0,8(sp)
    c0002038:	01010413          	addi	s0,sp,16
    c000203c:	00011337          	lui	t1,0x11
    c0002040:	2003031b          	addiw	t1,t1,512

00000000c0002044 <uart_statusr>:
    c0002044:	02830383          	lb	t2,40(t1) # 11028 <_tbss_end+0x11024>
    c0002048:	0013f393          	andi	t2,t2,1
    c000204c:	fe038ce3          	beqz	t2,c0002044 <uart_statusr>
    c0002050:	00030503          	lb	a0,0(t1)
    c0002054:	0ff57793          	andi	a5,a0,255
    c0002058:	0007879b          	sext.w	a5,a5
    c000205c:	00078513          	mv	a0,a5
    c0002060:	00813403          	ld	s0,8(sp)
    c0002064:	01010113          	addi	sp,sp,16
    c0002068:	00008067          	ret

00000000c000206c <Uart0Init>:
    c000206c:	ff010113          	addi	sp,sp,-16
    c0002070:	00813423          	sd	s0,8(sp)
    c0002074:	01010413          	addi	s0,sp,16
    c0002078:	00011337          	lui	t1,0x11
    c000207c:	2003031b          	addiw	t1,t1,512
    c0002080:	08300393          	li	t2,131
    c0002084:	00730c23          	sb	t2,24(t1) # 11018 <_tbss_end+0x11014>
    c0002088:	00000393          	li	t2,0
    c000208c:	00030423          	sb	zero,8(t1)
    c0002090:	08200393          	li	t2,130
    c0002094:	00730023          	sb	t2,0(t1)
    c0002098:	00300393          	li	t2,3
    c000209c:	00730c23          	sb	t2,24(t1)
    c00020a0:	00600393          	li	t2,6
    c00020a4:	00730823          	sb	t2,16(t1)
    c00020a8:	00030423          	sb	zero,8(t1)
    c00020ac:	00000793          	li	a5,0
    c00020b0:	00078513          	mv	a0,a5
    c00020b4:	00813403          	ld	s0,8(sp)
    c00020b8:	01010113          	addi	sp,sp,16
    c00020bc:	00008067          	ret

00000000c00020c0 <putchar>:
    c00020c0:	fe010113          	addi	sp,sp,-32
    c00020c4:	00813c23          	sd	s0,24(sp)
    c00020c8:	02010413          	addi	s0,sp,32
    c00020cc:	00050793          	mv	a5,a0
    c00020d0:	fef42623          	sw	a5,-20(s0)
    c00020d4:	fec42783          	lw	a5,-20(s0)
    c00020d8:	0ff7f793          	andi	a5,a5,255
    c00020dc:	00078513          	mv	a0,a5
    c00020e0:	00011337          	lui	t1,0x11
    c00020e4:	2003031b          	addiw	t1,t1,512

00000000c00020e8 <uart_status>:
    c00020e8:	02830383          	lb	t2,40(t1) # 11028 <_tbss_end+0x11024>
    c00020ec:	0203f393          	andi	t2,t2,32
    c00020f0:	fe038ce3          	beqz	t2,c00020e8 <uart_status>
    c00020f4:	00a30023          	sb	a0,0(t1)
    c00020f8:	00000793          	li	a5,0
    c00020fc:	00078513          	mv	a0,a5
    c0002100:	01813403          	ld	s0,24(sp)
    c0002104:	02010113          	addi	sp,sp,32
    c0002108:	00008067          	ret

00000000c000210c <_init>:
    c000210c:	f4010113          	addi	sp,sp,-192
    c0002110:	0a113c23          	sd	ra,184(sp)
    c0002114:	0a813823          	sd	s0,176(sp)
    c0002118:	0a913423          	sd	s1,168(sp)
    c000211c:	0c010413          	addi	s0,sp,192
    c0002120:	00050793          	mv	a5,a0
    c0002124:	00058713          	mv	a4,a1
    c0002128:	f4f42623          	sw	a5,-180(s0)
    c000212c:	00070793          	mv	a5,a4
    c0002130:	f4f42423          	sw	a5,-184(s0)
    c0002134:	fe040793          	addi	a5,s0,-32
    c0002138:	f7078793          	addi	a5,a5,-144
    c000213c:	03f78793          	addi	a5,a5,63
    c0002140:	0067d793          	srli	a5,a5,0x6
    c0002144:	00679493          	slli	s1,a5,0x6
    c0002148:	00000593          	li	a1,0
    c000214c:	00000513          	li	a0,0
    c0002150:	ee0ff0ef          	jal	ra,c0001830 <main>
    c0002154:	00050793          	mv	a5,a0
    c0002158:	fcf42c23          	sw	a5,-40(s0)
    c000215c:	fc943823          	sd	s1,-48(s0)
    c0002160:	fc042e23          	sw	zero,-36(s0)
    c0002164:	0700006f          	j	c00021d4 <_init+0xc8>
    c0002168:	00001717          	auipc	a4,0x1
    c000216c:	e6070713          	addi	a4,a4,-416 # c0002fc8 <counters>
    c0002170:	fdc42783          	lw	a5,-36(s0)
    c0002174:	00379793          	slli	a5,a5,0x3
    c0002178:	00f707b3          	add	a5,a4,a5
    c000217c:	0007b783          	ld	a5,0(a5)
    c0002180:	04078463          	beqz	a5,c00021c8 <_init+0xbc>
    c0002184:	00001717          	auipc	a4,0x1
    c0002188:	e5470713          	addi	a4,a4,-428 # c0002fd8 <counter_names>
    c000218c:	fdc42783          	lw	a5,-36(s0)
    c0002190:	00379793          	slli	a5,a5,0x3
    c0002194:	00f707b3          	add	a5,a4,a5
    c0002198:	0007b683          	ld	a3,0(a5)
    c000219c:	00001717          	auipc	a4,0x1
    c00021a0:	e2c70713          	addi	a4,a4,-468 # c0002fc8 <counters>
    c00021a4:	fdc42783          	lw	a5,-36(s0)
    c00021a8:	00379793          	slli	a5,a5,0x3
    c00021ac:	00f707b3          	add	a5,a4,a5
    c00021b0:	0007b783          	ld	a5,0(a5)
    c00021b4:	00078613          	mv	a2,a5
    c00021b8:	00068593          	mv	a1,a3
    c00021bc:	00001517          	auipc	a0,0x1
    c00021c0:	c8450513          	addi	a0,a0,-892 # c0002e40 <atol+0x1b0>
    c00021c4:	788000ef          	jal	ra,c000294c <printf>
    c00021c8:	fdc42783          	lw	a5,-36(s0)
    c00021cc:	0017879b          	addiw	a5,a5,1
    c00021d0:	fcf42e23          	sw	a5,-36(s0)
    c00021d4:	fdc42783          	lw	a5,-36(s0)
    c00021d8:	0007871b          	sext.w	a4,a5
    c00021dc:	00100793          	li	a5,1
    c00021e0:	f8e7d4e3          	ble	a4,a5,c0002168 <_init+0x5c>
    c00021e4:	fd842783          	lw	a5,-40(s0)
    c00021e8:	00078513          	mv	a0,a5
    c00021ec:	d75ff0ef          	jal	ra,c0001f60 <exit>

00000000c00021f0 <printhex>:
    c00021f0:	fc010113          	addi	sp,sp,-64
    c00021f4:	02113c23          	sd	ra,56(sp)
    c00021f8:	02813823          	sd	s0,48(sp)
    c00021fc:	04010413          	addi	s0,sp,64
    c0002200:	fca43423          	sd	a0,-56(s0)
    c0002204:	fe042623          	sw	zero,-20(s0)
    c0002208:	06c0006f          	j	c0002274 <printhex+0x84>
    c000220c:	fc843783          	ld	a5,-56(s0)
    c0002210:	0ff7f793          	andi	a5,a5,255
    c0002214:	00f7f793          	andi	a5,a5,15
    c0002218:	0ff7f713          	andi	a4,a5,255
    c000221c:	fc843783          	ld	a5,-56(s0)
    c0002220:	00f7f693          	andi	a3,a5,15
    c0002224:	00900793          	li	a5,9
    c0002228:	00d7e663          	bltu	a5,a3,c0002234 <printhex+0x44>
    c000222c:	03000793          	li	a5,48
    c0002230:	0080006f          	j	c0002238 <printhex+0x48>
    c0002234:	05700793          	li	a5,87
    c0002238:	00f00613          	li	a2,15
    c000223c:	fec42683          	lw	a3,-20(s0)
    c0002240:	40d606bb          	subw	a3,a2,a3
    c0002244:	0006869b          	sext.w	a3,a3
    c0002248:	00e787bb          	addw	a5,a5,a4
    c000224c:	0ff7f713          	andi	a4,a5,255
    c0002250:	ff040793          	addi	a5,s0,-16
    c0002254:	00d787b3          	add	a5,a5,a3
    c0002258:	fee78423          	sb	a4,-24(a5)
    c000225c:	fc843783          	ld	a5,-56(s0)
    c0002260:	0047d793          	srli	a5,a5,0x4
    c0002264:	fcf43423          	sd	a5,-56(s0)
    c0002268:	fec42783          	lw	a5,-20(s0)
    c000226c:	0017879b          	addiw	a5,a5,1
    c0002270:	fef42623          	sw	a5,-20(s0)
    c0002274:	fec42783          	lw	a5,-20(s0)
    c0002278:	0007871b          	sext.w	a4,a5
    c000227c:	00f00793          	li	a5,15
    c0002280:	f8e7d6e3          	ble	a4,a5,c000220c <printhex+0x1c>
    c0002284:	fe040423          	sb	zero,-24(s0)
    c0002288:	fd840793          	addi	a5,s0,-40
    c000228c:	00078513          	mv	a0,a5
    c0002290:	d0dff0ef          	jal	ra,c0001f9c <printstr>
    c0002294:	00000013          	nop
    c0002298:	03813083          	ld	ra,56(sp)
    c000229c:	03013403          	ld	s0,48(sp)
    c00022a0:	04010113          	addi	sp,sp,64
    c00022a4:	00008067          	ret

00000000c00022a8 <printnum>:
    c00022a8:	eb010113          	addi	sp,sp,-336
    c00022ac:	14113423          	sd	ra,328(sp)
    c00022b0:	14813023          	sd	s0,320(sp)
    c00022b4:	15010413          	addi	s0,sp,336
    c00022b8:	eca43c23          	sd	a0,-296(s0)
    c00022bc:	ecb43823          	sd	a1,-304(s0)
    c00022c0:	ecc43423          	sd	a2,-312(s0)
    c00022c4:	00068613          	mv	a2,a3
    c00022c8:	00070693          	mv	a3,a4
    c00022cc:	00078713          	mv	a4,a5
    c00022d0:	00060793          	mv	a5,a2
    c00022d4:	ecf42223          	sw	a5,-316(s0)
    c00022d8:	00068793          	mv	a5,a3
    c00022dc:	ecf42023          	sw	a5,-320(s0)
    c00022e0:	00070793          	mv	a5,a4
    c00022e4:	eaf42e23          	sw	a5,-324(s0)
    c00022e8:	fe042623          	sw	zero,-20(s0)
    c00022ec:	ec446783          	lwu	a5,-316(s0)
    c00022f0:	ec843703          	ld	a4,-312(s0)
    c00022f4:	02f776b3          	remu	a3,a4,a5
    c00022f8:	fec42783          	lw	a5,-20(s0)
    c00022fc:	0017871b          	addiw	a4,a5,1
    c0002300:	fee42623          	sw	a4,-20(s0)
    c0002304:	0006871b          	sext.w	a4,a3
    c0002308:	00279793          	slli	a5,a5,0x2
    c000230c:	ff040693          	addi	a3,s0,-16
    c0002310:	00f687b3          	add	a5,a3,a5
    c0002314:	eee7ac23          	sw	a4,-264(a5)
    c0002318:	ec446783          	lwu	a5,-316(s0)
    c000231c:	ec843703          	ld	a4,-312(s0)
    c0002320:	00f76c63          	bltu	a4,a5,c0002338 <printnum+0x90>
    c0002324:	ec446783          	lwu	a5,-316(s0)
    c0002328:	ec843703          	ld	a4,-312(s0)
    c000232c:	02f757b3          	divu	a5,a4,a5
    c0002330:	ecf43423          	sd	a5,-312(s0)
    c0002334:	fb9ff06f          	j	c00022ec <printnum+0x44>
    c0002338:	00000013          	nop
    c000233c:	0180006f          	j	c0002354 <printnum+0xac>
    c0002340:	ebc42783          	lw	a5,-324(s0)
    c0002344:	ed843703          	ld	a4,-296(s0)
    c0002348:	ed043583          	ld	a1,-304(s0)
    c000234c:	00078513          	mv	a0,a5
    c0002350:	000700e7          	jalr	a4
    c0002354:	ec042783          	lw	a5,-320(s0)
    c0002358:	fff7871b          	addiw	a4,a5,-1
    c000235c:	ece42023          	sw	a4,-320(s0)
    c0002360:	fec42703          	lw	a4,-20(s0)
    c0002364:	0007071b          	sext.w	a4,a4
    c0002368:	fcf74ce3          	blt	a4,a5,c0002340 <printnum+0x98>
    c000236c:	0600006f          	j	c00023cc <printnum+0x124>
    c0002370:	fec42783          	lw	a5,-20(s0)
    c0002374:	00279793          	slli	a5,a5,0x2
    c0002378:	ff040713          	addi	a4,s0,-16
    c000237c:	00f707b3          	add	a5,a4,a5
    c0002380:	ef87a703          	lw	a4,-264(a5)
    c0002384:	fec42783          	lw	a5,-20(s0)
    c0002388:	00279793          	slli	a5,a5,0x2
    c000238c:	ff040693          	addi	a3,s0,-16
    c0002390:	00f687b3          	add	a5,a3,a5
    c0002394:	ef87a783          	lw	a5,-264(a5)
    c0002398:	00078693          	mv	a3,a5
    c000239c:	00900793          	li	a5,9
    c00023a0:	00d7f663          	bleu	a3,a5,c00023ac <printnum+0x104>
    c00023a4:	05700793          	li	a5,87
    c00023a8:	0080006f          	j	c00023b0 <printnum+0x108>
    c00023ac:	03000793          	li	a5,48
    c00023b0:	00e787bb          	addw	a5,a5,a4
    c00023b4:	0007879b          	sext.w	a5,a5
    c00023b8:	0007879b          	sext.w	a5,a5
    c00023bc:	ed843703          	ld	a4,-296(s0)
    c00023c0:	ed043583          	ld	a1,-304(s0)
    c00023c4:	00078513          	mv	a0,a5
    c00023c8:	000700e7          	jalr	a4
    c00023cc:	fec42783          	lw	a5,-20(s0)
    c00023d0:	fff7871b          	addiw	a4,a5,-1
    c00023d4:	fee42623          	sw	a4,-20(s0)
    c00023d8:	f8f04ce3          	bgtz	a5,c0002370 <printnum+0xc8>
    c00023dc:	00000013          	nop
    c00023e0:	14813083          	ld	ra,328(sp)
    c00023e4:	14013403          	ld	s0,320(sp)
    c00023e8:	15010113          	addi	sp,sp,336
    c00023ec:	00008067          	ret

00000000c00023f0 <getuint>:
    c00023f0:	fe010113          	addi	sp,sp,-32
    c00023f4:	00813c23          	sd	s0,24(sp)
    c00023f8:	02010413          	addi	s0,sp,32
    c00023fc:	fea43423          	sd	a0,-24(s0)
    c0002400:	00058793          	mv	a5,a1
    c0002404:	fef42223          	sw	a5,-28(s0)
    c0002408:	fe442783          	lw	a5,-28(s0)
    c000240c:	0007871b          	sext.w	a4,a5
    c0002410:	00100793          	li	a5,1
    c0002414:	02e7d063          	ble	a4,a5,c0002434 <getuint+0x44>
    c0002418:	fe843783          	ld	a5,-24(s0)
    c000241c:	0007b783          	ld	a5,0(a5)
    c0002420:	00878693          	addi	a3,a5,8
    c0002424:	fe843703          	ld	a4,-24(s0)
    c0002428:	00d73023          	sd	a3,0(a4)
    c000242c:	0007b783          	ld	a5,0(a5)
    c0002430:	04c0006f          	j	c000247c <getuint+0x8c>
    c0002434:	fe442783          	lw	a5,-28(s0)
    c0002438:	0007879b          	sext.w	a5,a5
    c000243c:	02078063          	beqz	a5,c000245c <getuint+0x6c>
    c0002440:	fe843783          	ld	a5,-24(s0)
    c0002444:	0007b783          	ld	a5,0(a5)
    c0002448:	00878693          	addi	a3,a5,8
    c000244c:	fe843703          	ld	a4,-24(s0)
    c0002450:	00d73023          	sd	a3,0(a4)
    c0002454:	0007b783          	ld	a5,0(a5)
    c0002458:	0240006f          	j	c000247c <getuint+0x8c>
    c000245c:	fe843783          	ld	a5,-24(s0)
    c0002460:	0007b783          	ld	a5,0(a5)
    c0002464:	00878693          	addi	a3,a5,8
    c0002468:	fe843703          	ld	a4,-24(s0)
    c000246c:	00d73023          	sd	a3,0(a4)
    c0002470:	0007a783          	lw	a5,0(a5)
    c0002474:	02079793          	slli	a5,a5,0x20
    c0002478:	0207d793          	srli	a5,a5,0x20
    c000247c:	00078513          	mv	a0,a5
    c0002480:	01813403          	ld	s0,24(sp)
    c0002484:	02010113          	addi	sp,sp,32
    c0002488:	00008067          	ret

00000000c000248c <getint>:
    c000248c:	fe010113          	addi	sp,sp,-32
    c0002490:	00813c23          	sd	s0,24(sp)
    c0002494:	02010413          	addi	s0,sp,32
    c0002498:	fea43423          	sd	a0,-24(s0)
    c000249c:	00058793          	mv	a5,a1
    c00024a0:	fef42223          	sw	a5,-28(s0)
    c00024a4:	fe442783          	lw	a5,-28(s0)
    c00024a8:	0007871b          	sext.w	a4,a5
    c00024ac:	00100793          	li	a5,1
    c00024b0:	02e7d063          	ble	a4,a5,c00024d0 <getint+0x44>
    c00024b4:	fe843783          	ld	a5,-24(s0)
    c00024b8:	0007b783          	ld	a5,0(a5)
    c00024bc:	00878693          	addi	a3,a5,8
    c00024c0:	fe843703          	ld	a4,-24(s0)
    c00024c4:	00d73023          	sd	a3,0(a4)
    c00024c8:	0007b783          	ld	a5,0(a5)
    c00024cc:	0440006f          	j	c0002510 <getint+0x84>
    c00024d0:	fe442783          	lw	a5,-28(s0)
    c00024d4:	0007879b          	sext.w	a5,a5
    c00024d8:	02078063          	beqz	a5,c00024f8 <getint+0x6c>
    c00024dc:	fe843783          	ld	a5,-24(s0)
    c00024e0:	0007b783          	ld	a5,0(a5)
    c00024e4:	00878693          	addi	a3,a5,8
    c00024e8:	fe843703          	ld	a4,-24(s0)
    c00024ec:	00d73023          	sd	a3,0(a4)
    c00024f0:	0007b783          	ld	a5,0(a5)
    c00024f4:	01c0006f          	j	c0002510 <getint+0x84>
    c00024f8:	fe843783          	ld	a5,-24(s0)
    c00024fc:	0007b783          	ld	a5,0(a5)
    c0002500:	00878693          	addi	a3,a5,8
    c0002504:	fe843703          	ld	a4,-24(s0)
    c0002508:	00d73023          	sd	a3,0(a4)
    c000250c:	0007a783          	lw	a5,0(a5)
    c0002510:	00078513          	mv	a0,a5
    c0002514:	01813403          	ld	s0,24(sp)
    c0002518:	02010113          	addi	sp,sp,32
    c000251c:	00008067          	ret

00000000c0002520 <vprintfmt>:
    c0002520:	f9010113          	addi	sp,sp,-112
    c0002524:	06113423          	sd	ra,104(sp)
    c0002528:	06813023          	sd	s0,96(sp)
    c000252c:	04913c23          	sd	s1,88(sp)
    c0002530:	05213823          	sd	s2,80(sp)
    c0002534:	07010413          	addi	s0,sp,112
    c0002538:	faa43423          	sd	a0,-88(s0)
    c000253c:	fab43023          	sd	a1,-96(s0)
    c0002540:	f8c43c23          	sd	a2,-104(s0)
    c0002544:	f8d43823          	sd	a3,-112(s0)
    c0002548:	0240006f          	j	c000256c <vprintfmt+0x4c>
    c000254c:	3e048263          	beqz	s1,c0002930 <vprintfmt+0x410>
    c0002550:	f9843783          	ld	a5,-104(s0)
    c0002554:	00178793          	addi	a5,a5,1
    c0002558:	f8f43c23          	sd	a5,-104(s0)
    c000255c:	fa843783          	ld	a5,-88(s0)
    c0002560:	fa043583          	ld	a1,-96(s0)
    c0002564:	00048513          	mv	a0,s1
    c0002568:	000780e7          	jalr	a5
    c000256c:	f9843783          	ld	a5,-104(s0)
    c0002570:	0007c783          	lbu	a5,0(a5)
    c0002574:	0007849b          	sext.w	s1,a5
    c0002578:	00048713          	mv	a4,s1
    c000257c:	02500793          	li	a5,37
    c0002580:	fcf716e3          	bne	a4,a5,c000254c <vprintfmt+0x2c>
    c0002584:	f9843783          	ld	a5,-104(s0)
    c0002588:	00178793          	addi	a5,a5,1
    c000258c:	f8f43c23          	sd	a5,-104(s0)
    c0002590:	f9843783          	ld	a5,-104(s0)
    c0002594:	faf43c23          	sd	a5,-72(s0)
    c0002598:	02000793          	li	a5,32
    c000259c:	fcf403a3          	sb	a5,-57(s0)
    c00025a0:	fff00793          	li	a5,-1
    c00025a4:	fcf42623          	sw	a5,-52(s0)
    c00025a8:	fff00793          	li	a5,-1
    c00025ac:	fcf42423          	sw	a5,-56(s0)
    c00025b0:	fc042823          	sw	zero,-48(s0)
    c00025b4:	fa042a23          	sw	zero,-76(s0)
    c00025b8:	f9843783          	ld	a5,-104(s0)
    c00025bc:	00178713          	addi	a4,a5,1
    c00025c0:	f8e43c23          	sd	a4,-104(s0)
    c00025c4:	0007c783          	lbu	a5,0(a5)
    c00025c8:	0007849b          	sext.w	s1,a5
    c00025cc:	fdd4869b          	addiw	a3,s1,-35
    c00025d0:	0006871b          	sext.w	a4,a3
    c00025d4:	05500793          	li	a5,85
    c00025d8:	32e7ec63          	bltu	a5,a4,c0002910 <vprintfmt+0x3f0>
    c00025dc:	02069793          	slli	a5,a3,0x20
    c00025e0:	0207d793          	srli	a5,a5,0x20
    c00025e4:	00279713          	slli	a4,a5,0x2
    c00025e8:	00001797          	auipc	a5,0x1
    c00025ec:	87078793          	addi	a5,a5,-1936 # c0002e58 <atol+0x1c8>
    c00025f0:	00f707b3          	add	a5,a4,a5
    c00025f4:	0007a783          	lw	a5,0(a5)
    c00025f8:	0007871b          	sext.w	a4,a5
    c00025fc:	00001797          	auipc	a5,0x1
    c0002600:	85c78793          	addi	a5,a5,-1956 # c0002e58 <atol+0x1c8>
    c0002604:	00f707b3          	add	a5,a4,a5
    c0002608:	00078067          	jr	a5
    c000260c:	02d00793          	li	a5,45
    c0002610:	fcf403a3          	sb	a5,-57(s0)
    c0002614:	fa5ff06f          	j	c00025b8 <vprintfmt+0x98>
    c0002618:	03000793          	li	a5,48
    c000261c:	fcf403a3          	sb	a5,-57(s0)
    c0002620:	f99ff06f          	j	c00025b8 <vprintfmt+0x98>
    c0002624:	fc042423          	sw	zero,-56(s0)
    c0002628:	fc842703          	lw	a4,-56(s0)
    c000262c:	00070793          	mv	a5,a4
    c0002630:	0027979b          	slliw	a5,a5,0x2
    c0002634:	00e787bb          	addw	a5,a5,a4
    c0002638:	0017979b          	slliw	a5,a5,0x1
    c000263c:	0007879b          	sext.w	a5,a5
    c0002640:	00f487bb          	addw	a5,s1,a5
    c0002644:	0007879b          	sext.w	a5,a5
    c0002648:	fd07879b          	addiw	a5,a5,-48
    c000264c:	fcf42423          	sw	a5,-56(s0)
    c0002650:	f9843783          	ld	a5,-104(s0)
    c0002654:	0007c783          	lbu	a5,0(a5)
    c0002658:	0007849b          	sext.w	s1,a5
    c000265c:	00048713          	mv	a4,s1
    c0002660:	02f00793          	li	a5,47
    c0002664:	04e7dc63          	ble	a4,a5,c00026bc <vprintfmt+0x19c>
    c0002668:	00048713          	mv	a4,s1
    c000266c:	03900793          	li	a5,57
    c0002670:	04e7c663          	blt	a5,a4,c00026bc <vprintfmt+0x19c>
    c0002674:	f9843783          	ld	a5,-104(s0)
    c0002678:	00178793          	addi	a5,a5,1
    c000267c:	f8f43c23          	sd	a5,-104(s0)
    c0002680:	fa9ff06f          	j	c0002628 <vprintfmt+0x108>
    c0002684:	f9043783          	ld	a5,-112(s0)
    c0002688:	00878713          	addi	a4,a5,8
    c000268c:	f8e43823          	sd	a4,-112(s0)
    c0002690:	0007a783          	lw	a5,0(a5)
    c0002694:	fcf42423          	sw	a5,-56(s0)
    c0002698:	0280006f          	j	c00026c0 <vprintfmt+0x1a0>
    c000269c:	fcc42783          	lw	a5,-52(s0)
    c00026a0:	0007879b          	sext.w	a5,a5
    c00026a4:	f007dae3          	bgez	a5,c00025b8 <vprintfmt+0x98>
    c00026a8:	fc042623          	sw	zero,-52(s0)
    c00026ac:	f0dff06f          	j	c00025b8 <vprintfmt+0x98>
    c00026b0:	00100793          	li	a5,1
    c00026b4:	faf42a23          	sw	a5,-76(s0)
    c00026b8:	f01ff06f          	j	c00025b8 <vprintfmt+0x98>
    c00026bc:	00000013          	nop
    c00026c0:	fcc42783          	lw	a5,-52(s0)
    c00026c4:	0007879b          	sext.w	a5,a5
    c00026c8:	ee07d8e3          	bgez	a5,c00025b8 <vprintfmt+0x98>
    c00026cc:	fc842783          	lw	a5,-56(s0)
    c00026d0:	fcf42623          	sw	a5,-52(s0)
    c00026d4:	fff00793          	li	a5,-1
    c00026d8:	fcf42423          	sw	a5,-56(s0)
    c00026dc:	eddff06f          	j	c00025b8 <vprintfmt+0x98>
    c00026e0:	fd042783          	lw	a5,-48(s0)
    c00026e4:	0017879b          	addiw	a5,a5,1
    c00026e8:	fcf42823          	sw	a5,-48(s0)
    c00026ec:	ecdff06f          	j	c00025b8 <vprintfmt+0x98>
    c00026f0:	f9043783          	ld	a5,-112(s0)
    c00026f4:	00878713          	addi	a4,a5,8
    c00026f8:	f8e43823          	sd	a4,-112(s0)
    c00026fc:	0007a783          	lw	a5,0(a5)
    c0002700:	fa843703          	ld	a4,-88(s0)
    c0002704:	fa043583          	ld	a1,-96(s0)
    c0002708:	00078513          	mv	a0,a5
    c000270c:	000700e7          	jalr	a4
    c0002710:	21c0006f          	j	c000292c <vprintfmt+0x40c>
    c0002714:	f9043783          	ld	a5,-112(s0)
    c0002718:	00878713          	addi	a4,a5,8
    c000271c:	f8e43823          	sd	a4,-112(s0)
    c0002720:	0007b903          	ld	s2,0(a5)
    c0002724:	00091663          	bnez	s2,c0002730 <vprintfmt+0x210>
    c0002728:	00000917          	auipc	s2,0x0
    c000272c:	72890913          	addi	s2,s2,1832 # c0002e50 <atol+0x1c0>
    c0002730:	fcc42783          	lw	a5,-52(s0)
    c0002734:	0007879b          	sext.w	a5,a5
    c0002738:	08f05a63          	blez	a5,c00027cc <vprintfmt+0x2ac>
    c000273c:	fc744783          	lbu	a5,-57(s0)
    c0002740:	0ff7f713          	andi	a4,a5,255
    c0002744:	02d00793          	li	a5,45
    c0002748:	08f70263          	beq	a4,a5,c00027cc <vprintfmt+0x2ac>
    c000274c:	fc842783          	lw	a5,-56(s0)
    c0002750:	00078593          	mv	a1,a5
    c0002754:	00090513          	mv	a0,s2
    c0002758:	3f4000ef          	jal	ra,c0002b4c <strnlen>
    c000275c:	00050793          	mv	a5,a0
    c0002760:	fcc42703          	lw	a4,-52(s0)
    c0002764:	0007879b          	sext.w	a5,a5
    c0002768:	40f707bb          	subw	a5,a4,a5
    c000276c:	0007879b          	sext.w	a5,a5
    c0002770:	fcf42623          	sw	a5,-52(s0)
    c0002774:	0280006f          	j	c000279c <vprintfmt+0x27c>
    c0002778:	fc744783          	lbu	a5,-57(s0)
    c000277c:	0007879b          	sext.w	a5,a5
    c0002780:	fa843703          	ld	a4,-88(s0)
    c0002784:	fa043583          	ld	a1,-96(s0)
    c0002788:	00078513          	mv	a0,a5
    c000278c:	000700e7          	jalr	a4
    c0002790:	fcc42783          	lw	a5,-52(s0)
    c0002794:	fff7879b          	addiw	a5,a5,-1
    c0002798:	fcf42623          	sw	a5,-52(s0)
    c000279c:	fcc42783          	lw	a5,-52(s0)
    c00027a0:	0007879b          	sext.w	a5,a5
    c00027a4:	fcf04ae3          	bgtz	a5,c0002778 <vprintfmt+0x258>
    c00027a8:	0240006f          	j	c00027cc <vprintfmt+0x2ac>
    c00027ac:	fa843783          	ld	a5,-88(s0)
    c00027b0:	fa043583          	ld	a1,-96(s0)
    c00027b4:	00048513          	mv	a0,s1
    c00027b8:	000780e7          	jalr	a5
    c00027bc:	00190913          	addi	s2,s2,1
    c00027c0:	fcc42783          	lw	a5,-52(s0)
    c00027c4:	fff7879b          	addiw	a5,a5,-1
    c00027c8:	fcf42623          	sw	a5,-52(s0)
    c00027cc:	00094783          	lbu	a5,0(s2)
    c00027d0:	0007849b          	sext.w	s1,a5
    c00027d4:	04048463          	beqz	s1,c000281c <vprintfmt+0x2fc>
    c00027d8:	fc842783          	lw	a5,-56(s0)
    c00027dc:	0007879b          	sext.w	a5,a5
    c00027e0:	fc07c6e3          	bltz	a5,c00027ac <vprintfmt+0x28c>
    c00027e4:	fc842783          	lw	a5,-56(s0)
    c00027e8:	fff7879b          	addiw	a5,a5,-1
    c00027ec:	fcf42423          	sw	a5,-56(s0)
    c00027f0:	fc842783          	lw	a5,-56(s0)
    c00027f4:	0007879b          	sext.w	a5,a5
    c00027f8:	fa07dae3          	bgez	a5,c00027ac <vprintfmt+0x28c>
    c00027fc:	0200006f          	j	c000281c <vprintfmt+0x2fc>
    c0002800:	fa843783          	ld	a5,-88(s0)
    c0002804:	fa043583          	ld	a1,-96(s0)
    c0002808:	02000513          	li	a0,32
    c000280c:	000780e7          	jalr	a5
    c0002810:	fcc42783          	lw	a5,-52(s0)
    c0002814:	fff7879b          	addiw	a5,a5,-1
    c0002818:	fcf42623          	sw	a5,-52(s0)
    c000281c:	fcc42783          	lw	a5,-52(s0)
    c0002820:	0007879b          	sext.w	a5,a5
    c0002824:	fcf04ee3          	bgtz	a5,c0002800 <vprintfmt+0x2e0>
    c0002828:	1040006f          	j	c000292c <vprintfmt+0x40c>
    c000282c:	fd042703          	lw	a4,-48(s0)
    c0002830:	f9040793          	addi	a5,s0,-112
    c0002834:	00070593          	mv	a1,a4
    c0002838:	00078513          	mv	a0,a5
    c000283c:	c51ff0ef          	jal	ra,c000248c <getint>
    c0002840:	00050793          	mv	a5,a0
    c0002844:	fcf43c23          	sd	a5,-40(s0)
    c0002848:	fd843783          	ld	a5,-40(s0)
    c000284c:	0207d063          	bgez	a5,c000286c <vprintfmt+0x34c>
    c0002850:	fa843783          	ld	a5,-88(s0)
    c0002854:	fa043583          	ld	a1,-96(s0)
    c0002858:	02d00513          	li	a0,45
    c000285c:	000780e7          	jalr	a5
    c0002860:	fd843783          	ld	a5,-40(s0)
    c0002864:	40f007b3          	neg	a5,a5
    c0002868:	fcf43c23          	sd	a5,-40(s0)
    c000286c:	00a00793          	li	a5,10
    c0002870:	fcf42a23          	sw	a5,-44(s0)
    c0002874:	0640006f          	j	c00028d8 <vprintfmt+0x3b8>
    c0002878:	00a00793          	li	a5,10
    c000287c:	fcf42a23          	sw	a5,-44(s0)
    c0002880:	0400006f          	j	c00028c0 <vprintfmt+0x3a0>
    c0002884:	00800793          	li	a5,8
    c0002888:	fcf42a23          	sw	a5,-44(s0)
    c000288c:	0340006f          	j	c00028c0 <vprintfmt+0x3a0>
    c0002890:	00100793          	li	a5,1
    c0002894:	fcf42823          	sw	a5,-48(s0)
    c0002898:	fa843783          	ld	a5,-88(s0)
    c000289c:	fa043583          	ld	a1,-96(s0)
    c00028a0:	03000513          	li	a0,48
    c00028a4:	000780e7          	jalr	a5
    c00028a8:	fa843783          	ld	a5,-88(s0)
    c00028ac:	fa043583          	ld	a1,-96(s0)
    c00028b0:	07800513          	li	a0,120
    c00028b4:	000780e7          	jalr	a5
    c00028b8:	01000793          	li	a5,16
    c00028bc:	fcf42a23          	sw	a5,-44(s0)
    c00028c0:	fd042703          	lw	a4,-48(s0)
    c00028c4:	f9040793          	addi	a5,s0,-112
    c00028c8:	00070593          	mv	a1,a4
    c00028cc:	00078513          	mv	a0,a5
    c00028d0:	b21ff0ef          	jal	ra,c00023f0 <getuint>
    c00028d4:	fca43c23          	sd	a0,-40(s0)
    c00028d8:	fd442683          	lw	a3,-44(s0)
    c00028dc:	fc744783          	lbu	a5,-57(s0)
    c00028e0:	0007879b          	sext.w	a5,a5
    c00028e4:	fcc42703          	lw	a4,-52(s0)
    c00028e8:	fd843603          	ld	a2,-40(s0)
    c00028ec:	fa043583          	ld	a1,-96(s0)
    c00028f0:	fa843503          	ld	a0,-88(s0)
    c00028f4:	9b5ff0ef          	jal	ra,c00022a8 <printnum>
    c00028f8:	0340006f          	j	c000292c <vprintfmt+0x40c>
    c00028fc:	fa843783          	ld	a5,-88(s0)
    c0002900:	fa043583          	ld	a1,-96(s0)
    c0002904:	00048513          	mv	a0,s1
    c0002908:	000780e7          	jalr	a5
    c000290c:	0200006f          	j	c000292c <vprintfmt+0x40c>
    c0002910:	fa843783          	ld	a5,-88(s0)
    c0002914:	fa043583          	ld	a1,-96(s0)
    c0002918:	02500513          	li	a0,37
    c000291c:	000780e7          	jalr	a5
    c0002920:	fb843783          	ld	a5,-72(s0)
    c0002924:	f8f43c23          	sd	a5,-104(s0)
    c0002928:	00000013          	nop
    c000292c:	c41ff06f          	j	c000256c <vprintfmt+0x4c>
    c0002930:	00000013          	nop
    c0002934:	06813083          	ld	ra,104(sp)
    c0002938:	06013403          	ld	s0,96(sp)
    c000293c:	05813483          	ld	s1,88(sp)
    c0002940:	05013903          	ld	s2,80(sp)
    c0002944:	07010113          	addi	sp,sp,112
    c0002948:	00008067          	ret

00000000c000294c <printf>:
    c000294c:	f9010113          	addi	sp,sp,-112
    c0002950:	02113423          	sd	ra,40(sp)
    c0002954:	02813023          	sd	s0,32(sp)
    c0002958:	03010413          	addi	s0,sp,48
    c000295c:	fca43c23          	sd	a0,-40(s0)
    c0002960:	00b43423          	sd	a1,8(s0)
    c0002964:	00c43823          	sd	a2,16(s0)
    c0002968:	00d43c23          	sd	a3,24(s0)
    c000296c:	02e43023          	sd	a4,32(s0)
    c0002970:	02f43423          	sd	a5,40(s0)
    c0002974:	03043823          	sd	a6,48(s0)
    c0002978:	03143c23          	sd	a7,56(s0)
    c000297c:	04040793          	addi	a5,s0,64
    c0002980:	fc878793          	addi	a5,a5,-56
    c0002984:	fef43423          	sd	a5,-24(s0)
    c0002988:	fe843783          	ld	a5,-24(s0)
    c000298c:	00078693          	mv	a3,a5
    c0002990:	fd843603          	ld	a2,-40(s0)
    c0002994:	00000593          	li	a1,0
    c0002998:	fffff517          	auipc	a0,0xfffff
    c000299c:	72850513          	addi	a0,a0,1832 # c00020c0 <putchar>
    c00029a0:	b81ff0ef          	jal	ra,c0002520 <vprintfmt>
    c00029a4:	00000793          	li	a5,0
    c00029a8:	00078513          	mv	a0,a5
    c00029ac:	02813083          	ld	ra,40(sp)
    c00029b0:	02013403          	ld	s0,32(sp)
    c00029b4:	07010113          	addi	sp,sp,112
    c00029b8:	00008067          	ret

00000000c00029bc <sprintf_putch.2943>:
    c00029bc:	fc010113          	addi	sp,sp,-64
    c00029c0:	02813c23          	sd	s0,56(sp)
    c00029c4:	04010413          	addi	s0,sp,64
    c00029c8:	00050793          	mv	a5,a0
    c00029cc:	fcb43823          	sd	a1,-48(s0)
    c00029d0:	fcf42e23          	sw	a5,-36(s0)
    c00029d4:	fc743423          	sd	t2,-56(s0)
    c00029d8:	fd043783          	ld	a5,-48(s0)
    c00029dc:	fef43423          	sd	a5,-24(s0)
    c00029e0:	fe843783          	ld	a5,-24(s0)
    c00029e4:	0007b783          	ld	a5,0(a5)
    c00029e8:	fdc42703          	lw	a4,-36(s0)
    c00029ec:	0ff77713          	andi	a4,a4,255
    c00029f0:	00e78023          	sb	a4,0(a5)
    c00029f4:	fe843783          	ld	a5,-24(s0)
    c00029f8:	0007b783          	ld	a5,0(a5)
    c00029fc:	00178713          	addi	a4,a5,1
    c0002a00:	fe843783          	ld	a5,-24(s0)
    c0002a04:	00e7b023          	sd	a4,0(a5)
    c0002a08:	00000013          	nop
    c0002a0c:	03813403          	ld	s0,56(sp)
    c0002a10:	04010113          	addi	sp,sp,64
    c0002a14:	00008067          	ret

00000000c0002a18 <sprintf>:
    c0002a18:	f0010113          	addi	sp,sp,-256
    c0002a1c:	0c113423          	sd	ra,200(sp)
    c0002a20:	0c813023          	sd	s0,192(sp)
    c0002a24:	0d010413          	addi	s0,sp,208
    c0002a28:	f2a43c23          	sd	a0,-200(s0)
    c0002a2c:	f2b43823          	sd	a1,-208(s0)
    c0002a30:	00c43023          	sd	a2,0(s0)
    c0002a34:	00d43423          	sd	a3,8(s0)
    c0002a38:	00e43823          	sd	a4,16(s0)
    c0002a3c:	00f43c23          	sd	a5,24(s0)
    c0002a40:	03043023          	sd	a6,32(s0)
    c0002a44:	03143423          	sd	a7,40(s0)
    c0002a48:	03040793          	addi	a5,s0,48
    c0002a4c:	fcf43c23          	sd	a5,-40(s0)
    c0002a50:	f4840793          	addi	a5,s0,-184
    c0002a54:	f4840713          	addi	a4,s0,-184
    c0002a58:	39700693          	li	a3,919
    c0002a5c:	00d7a023          	sw	a3,0(a5)
    c0002a60:	0183b6b7          	lui	a3,0x183b
    c0002a64:	3036869b          	addiw	a3,a3,771
    c0002a68:	00d7a223          	sw	a3,4(a5)
    c0002a6c:	0103b6b7          	lui	a3,0x103b
    c0002a70:	3836869b          	addiw	a3,a3,899
    c0002a74:	00d7a423          	sw	a3,8(a5)
    c0002a78:	000306b7          	lui	a3,0x30
    c0002a7c:	0676869b          	addiw	a3,a3,103
    c0002a80:	00d7a623          	sw	a3,12(a5)
    c0002a84:	00e7b823          	sd	a4,16(a5)
    c0002a88:	00000717          	auipc	a4,0x0
    c0002a8c:	f3470713          	addi	a4,a4,-204 # c00029bc <sprintf_putch.2943>
    c0002a90:	00e7bc23          	sd	a4,24(a5)
    c0002a94:	0000100f          	fence.i
    c0002a98:	f3843783          	ld	a5,-200(s0)
    c0002a9c:	fef43423          	sd	a5,-24(s0)
    c0002aa0:	03040793          	addi	a5,s0,48
    c0002aa4:	fd078793          	addi	a5,a5,-48
    c0002aa8:	fef43023          	sd	a5,-32(s0)
    c0002aac:	fe043703          	ld	a4,-32(s0)
    c0002ab0:	f4840793          	addi	a5,s0,-184
    c0002ab4:	00078513          	mv	a0,a5
    c0002ab8:	f3840793          	addi	a5,s0,-200
    c0002abc:	00070693          	mv	a3,a4
    c0002ac0:	f3043603          	ld	a2,-208(s0)
    c0002ac4:	00078593          	mv	a1,a5
    c0002ac8:	a59ff0ef          	jal	ra,c0002520 <vprintfmt>
    c0002acc:	f3843783          	ld	a5,-200(s0)
    c0002ad0:	00078023          	sb	zero,0(a5)
    c0002ad4:	f3843783          	ld	a5,-200(s0)
    c0002ad8:	00078713          	mv	a4,a5
    c0002adc:	fe843783          	ld	a5,-24(s0)
    c0002ae0:	40f707b3          	sub	a5,a4,a5
    c0002ae4:	0007879b          	sext.w	a5,a5
    c0002ae8:	00078513          	mv	a0,a5
    c0002aec:	0c813083          	ld	ra,200(sp)
    c0002af0:	0c013403          	ld	s0,192(sp)
    c0002af4:	10010113          	addi	sp,sp,256
    c0002af8:	00008067          	ret

00000000c0002afc <strlen>:
    c0002afc:	fd010113          	addi	sp,sp,-48
    c0002b00:	02813423          	sd	s0,40(sp)
    c0002b04:	03010413          	addi	s0,sp,48
    c0002b08:	fca43c23          	sd	a0,-40(s0)
    c0002b0c:	fd843783          	ld	a5,-40(s0)
    c0002b10:	fef43423          	sd	a5,-24(s0)
    c0002b14:	0100006f          	j	c0002b24 <strlen+0x28>
    c0002b18:	fe843783          	ld	a5,-24(s0)
    c0002b1c:	00178793          	addi	a5,a5,1
    c0002b20:	fef43423          	sd	a5,-24(s0)
    c0002b24:	fe843783          	ld	a5,-24(s0)
    c0002b28:	0007c783          	lbu	a5,0(a5)
    c0002b2c:	fe0796e3          	bnez	a5,c0002b18 <strlen+0x1c>
    c0002b30:	fe843703          	ld	a4,-24(s0)
    c0002b34:	fd843783          	ld	a5,-40(s0)
    c0002b38:	40f707b3          	sub	a5,a4,a5
    c0002b3c:	00078513          	mv	a0,a5
    c0002b40:	02813403          	ld	s0,40(sp)
    c0002b44:	03010113          	addi	sp,sp,48
    c0002b48:	00008067          	ret

00000000c0002b4c <strnlen>:
    c0002b4c:	fd010113          	addi	sp,sp,-48
    c0002b50:	02813423          	sd	s0,40(sp)
    c0002b54:	03010413          	addi	s0,sp,48
    c0002b58:	fca43c23          	sd	a0,-40(s0)
    c0002b5c:	fcb43823          	sd	a1,-48(s0)
    c0002b60:	fd843783          	ld	a5,-40(s0)
    c0002b64:	fef43423          	sd	a5,-24(s0)
    c0002b68:	0100006f          	j	c0002b78 <strnlen+0x2c>
    c0002b6c:	fe843783          	ld	a5,-24(s0)
    c0002b70:	00178793          	addi	a5,a5,1
    c0002b74:	fef43423          	sd	a5,-24(s0)
    c0002b78:	fd043783          	ld	a5,-48(s0)
    c0002b7c:	fff78713          	addi	a4,a5,-1
    c0002b80:	fce43823          	sd	a4,-48(s0)
    c0002b84:	00078863          	beqz	a5,c0002b94 <strnlen+0x48>
    c0002b88:	fe843783          	ld	a5,-24(s0)
    c0002b8c:	0007c783          	lbu	a5,0(a5)
    c0002b90:	fc079ee3          	bnez	a5,c0002b6c <strnlen+0x20>
    c0002b94:	fe843703          	ld	a4,-24(s0)
    c0002b98:	fd843783          	ld	a5,-40(s0)
    c0002b9c:	40f707b3          	sub	a5,a4,a5
    c0002ba0:	00078513          	mv	a0,a5
    c0002ba4:	02813403          	ld	s0,40(sp)
    c0002ba8:	03010113          	addi	sp,sp,48
    c0002bac:	00008067          	ret

00000000c0002bb0 <strcmp>:
    c0002bb0:	fd010113          	addi	sp,sp,-48
    c0002bb4:	02813423          	sd	s0,40(sp)
    c0002bb8:	03010413          	addi	s0,sp,48
    c0002bbc:	fca43c23          	sd	a0,-40(s0)
    c0002bc0:	fcb43823          	sd	a1,-48(s0)
    c0002bc4:	fd843783          	ld	a5,-40(s0)
    c0002bc8:	00178713          	addi	a4,a5,1
    c0002bcc:	fce43c23          	sd	a4,-40(s0)
    c0002bd0:	0007c783          	lbu	a5,0(a5)
    c0002bd4:	fef407a3          	sb	a5,-17(s0)
    c0002bd8:	fd043783          	ld	a5,-48(s0)
    c0002bdc:	00178713          	addi	a4,a5,1
    c0002be0:	fce43823          	sd	a4,-48(s0)
    c0002be4:	0007c783          	lbu	a5,0(a5)
    c0002be8:	fef40723          	sb	a5,-18(s0)
    c0002bec:	fef44783          	lbu	a5,-17(s0)
    c0002bf0:	0ff7f793          	andi	a5,a5,255
    c0002bf4:	00078c63          	beqz	a5,c0002c0c <strcmp+0x5c>
    c0002bf8:	fef44703          	lbu	a4,-17(s0)
    c0002bfc:	fee44783          	lbu	a5,-18(s0)
    c0002c00:	0ff77713          	andi	a4,a4,255
    c0002c04:	0ff7f793          	andi	a5,a5,255
    c0002c08:	faf70ee3          	beq	a4,a5,c0002bc4 <strcmp+0x14>
    c0002c0c:	fef44783          	lbu	a5,-17(s0)
    c0002c10:	0007871b          	sext.w	a4,a5
    c0002c14:	fee44783          	lbu	a5,-18(s0)
    c0002c18:	0007879b          	sext.w	a5,a5
    c0002c1c:	40f707bb          	subw	a5,a4,a5
    c0002c20:	0007879b          	sext.w	a5,a5
    c0002c24:	00078513          	mv	a0,a5
    c0002c28:	02813403          	ld	s0,40(sp)
    c0002c2c:	03010113          	addi	sp,sp,48
    c0002c30:	00008067          	ret

00000000c0002c34 <strcpy>:
    c0002c34:	fd010113          	addi	sp,sp,-48
    c0002c38:	02813423          	sd	s0,40(sp)
    c0002c3c:	03010413          	addi	s0,sp,48
    c0002c40:	fca43c23          	sd	a0,-40(s0)
    c0002c44:	fcb43823          	sd	a1,-48(s0)
    c0002c48:	fd843783          	ld	a5,-40(s0)
    c0002c4c:	fef43423          	sd	a5,-24(s0)
    c0002c50:	00000013          	nop
    c0002c54:	fd043703          	ld	a4,-48(s0)
    c0002c58:	00170793          	addi	a5,a4,1
    c0002c5c:	fcf43823          	sd	a5,-48(s0)
    c0002c60:	fe843783          	ld	a5,-24(s0)
    c0002c64:	00178693          	addi	a3,a5,1
    c0002c68:	fed43423          	sd	a3,-24(s0)
    c0002c6c:	00074703          	lbu	a4,0(a4)
    c0002c70:	00e78023          	sb	a4,0(a5)
    c0002c74:	0007c783          	lbu	a5,0(a5)
    c0002c78:	fc079ee3          	bnez	a5,c0002c54 <strcpy+0x20>
    c0002c7c:	fd843783          	ld	a5,-40(s0)
    c0002c80:	00078513          	mv	a0,a5
    c0002c84:	02813403          	ld	s0,40(sp)
    c0002c88:	03010113          	addi	sp,sp,48
    c0002c8c:	00008067          	ret

00000000c0002c90 <atol>:
    c0002c90:	fd010113          	addi	sp,sp,-48
    c0002c94:	02813423          	sd	s0,40(sp)
    c0002c98:	03010413          	addi	s0,sp,48
    c0002c9c:	fca43c23          	sd	a0,-40(s0)
    c0002ca0:	fe043423          	sd	zero,-24(s0)
    c0002ca4:	fe042223          	sw	zero,-28(s0)
    c0002ca8:	0100006f          	j	c0002cb8 <atol+0x28>
    c0002cac:	fd843783          	ld	a5,-40(s0)
    c0002cb0:	00178793          	addi	a5,a5,1
    c0002cb4:	fcf43c23          	sd	a5,-40(s0)
    c0002cb8:	fd843783          	ld	a5,-40(s0)
    c0002cbc:	0007c783          	lbu	a5,0(a5)
    c0002cc0:	00078713          	mv	a4,a5
    c0002cc4:	02000793          	li	a5,32
    c0002cc8:	fef702e3          	beq	a4,a5,c0002cac <atol+0x1c>
    c0002ccc:	fd843783          	ld	a5,-40(s0)
    c0002cd0:	0007c783          	lbu	a5,0(a5)
    c0002cd4:	00078713          	mv	a4,a5
    c0002cd8:	02d00793          	li	a5,45
    c0002cdc:	00f70c63          	beq	a4,a5,c0002cf4 <atol+0x64>
    c0002ce0:	fd843783          	ld	a5,-40(s0)
    c0002ce4:	0007c783          	lbu	a5,0(a5)
    c0002ce8:	00078713          	mv	a4,a5
    c0002cec:	02b00793          	li	a5,43
    c0002cf0:	06f71c63          	bne	a4,a5,c0002d68 <atol+0xd8>
    c0002cf4:	fd843783          	ld	a5,-40(s0)
    c0002cf8:	0007c783          	lbu	a5,0(a5)
    c0002cfc:	0007871b          	sext.w	a4,a5
    c0002d00:	02d00793          	li	a5,45
    c0002d04:	40f707b3          	sub	a5,a4,a5
    c0002d08:	0017b793          	seqz	a5,a5
    c0002d0c:	0ff7f793          	andi	a5,a5,255
    c0002d10:	fef42223          	sw	a5,-28(s0)
    c0002d14:	fd843783          	ld	a5,-40(s0)
    c0002d18:	00178793          	addi	a5,a5,1
    c0002d1c:	fcf43c23          	sd	a5,-40(s0)
    c0002d20:	0480006f          	j	c0002d68 <atol+0xd8>
    c0002d24:	fe843703          	ld	a4,-24(s0)
    c0002d28:	00070793          	mv	a5,a4
    c0002d2c:	00279793          	slli	a5,a5,0x2
    c0002d30:	00e787b3          	add	a5,a5,a4
    c0002d34:	00179793          	slli	a5,a5,0x1
    c0002d38:	fef43423          	sd	a5,-24(s0)
    c0002d3c:	fd843783          	ld	a5,-40(s0)
    c0002d40:	00178713          	addi	a4,a5,1
    c0002d44:	fce43c23          	sd	a4,-40(s0)
    c0002d48:	0007c783          	lbu	a5,0(a5)
    c0002d4c:	0007879b          	sext.w	a5,a5
    c0002d50:	fd07879b          	addiw	a5,a5,-48
    c0002d54:	0007879b          	sext.w	a5,a5
    c0002d58:	00078713          	mv	a4,a5
    c0002d5c:	fe843783          	ld	a5,-24(s0)
    c0002d60:	00e787b3          	add	a5,a5,a4
    c0002d64:	fef43423          	sd	a5,-24(s0)
    c0002d68:	fd843783          	ld	a5,-40(s0)
    c0002d6c:	0007c783          	lbu	a5,0(a5)
    c0002d70:	fa079ae3          	bnez	a5,c0002d24 <atol+0x94>
    c0002d74:	fe442783          	lw	a5,-28(s0)
    c0002d78:	0007879b          	sext.w	a5,a5
    c0002d7c:	00078863          	beqz	a5,c0002d8c <atol+0xfc>
    c0002d80:	fe843783          	ld	a5,-24(s0)
    c0002d84:	40f007b3          	neg	a5,a5
    c0002d88:	0080006f          	j	c0002d90 <atol+0x100>
    c0002d8c:	fe843783          	ld	a5,-24(s0)
    c0002d90:	00078513          	mv	a0,a5
    c0002d94:	02813403          	ld	s0,40(sp)
    c0002d98:	03010113          	addi	sp,sp,48
    c0002d9c:	00008067          	ret

Disassembly of section .rodata:

00000000c0002da0 <__global_pointer$-0xa10>:
    c0002da0:	20746553          	0x20746553
    c0002da4:	6964                	ld	s1,208(a0)
    c0002da6:	6976                	ld	s2,344(sp)
    c0002da8:	20726f73          	csrrsi	t5,0x207,4
    c0002dac:	6f74                	ld	a3,216(a4)
    c0002dae:	3020                	fld	fs0,96(s0)
    c0002db0:	2578                	fld	fa4,200(a0)
    c0002db2:	0a78                	addi	a4,sp,284
    c0002db4:	0000                	unimp
    c0002db6:	0000                	unimp
    c0002db8:	646e6553          	0x646e6553
    c0002dbc:	6e69                	lui	t3,0x1a
    c0002dbe:	00203a67          	0x203a67
    c0002dc2:	0000                	unimp
    c0002dc4:	0000                	unimp
    c0002dc6:	0000                	unimp
    c0002dc8:	676e6f73          	csrrsi	t5,0x676,28
    c0002dcc:	7020                	ld	s0,96(s0)
    c0002dce:	616c                	ld	a1,192(a0)
    c0002dd0:	6979                	lui	s2,0x1e
    c0002dd2:	676e                	ld	a4,216(sp)
    c0002dd4:	6320                	ld	s0,64(a4)
    c0002dd6:	616d6d6f          	jal	s10,c00d93ec <__global_pointer$+0xd5c3c>
    c0002dda:	646e                	ld	s0,216(sp)
    c0002ddc:	7320                	ld	s0,96(a4)
    c0002dde:	6e65                	lui	t3,0x19
    c0002de0:	0a74                	addi	a3,sp,284
    c0002de2:	0000                	unimp
    c0002de4:	0000                	unimp
    c0002de6:	0000                	unimp
    c0002de8:	676e6f73          	csrrsi	t5,0x676,28
    c0002dec:	7020                	ld	s0,96(s0)
    c0002dee:	616c                	ld	a1,192(a0)
    c0002df0:	6979                	lui	s2,0x1e
    c0002df2:	676e                	ld	a4,216(sp)
    c0002df4:	6320                	ld	s0,64(a4)
    c0002df6:	616d6d6f          	jal	s10,c00d940c <__global_pointer$+0xd5c5c>
    c0002dfa:	646e                	ld	s0,216(sp)
    c0002dfc:	7320                	ld	s0,96(a4)
    c0002dfe:	6e65                	lui	t3,0x19
    c0002e00:	2074                	fld	fa3,192(s0)
    c0002e02:	706d6f63          	bltu	s10,t1,c0003520 <_end+0x530>
    c0002e06:	656c                	ld	a1,200(a0)
    c0002e08:	6574                	ld	a3,200(a0)
    c0002e0a:	000a                	0xa
    c0002e0c:	0000                	unimp
    c0002e0e:	0000                	unimp
    c0002e10:	636d                	lui	t1,0x1b
    c0002e12:	6379                	lui	t1,0x1e
    c0002e14:	656c                	ld	a1,200(a0)
    c0002e16:	0000                	unimp
    c0002e18:	696d                	lui	s2,0x1b
    c0002e1a:	736e                	ld	t1,248(sp)
    c0002e1c:	7274                	ld	a3,224(a2)
    c0002e1e:	7465                	lui	s0,0xffff9
	...
    c0002e28:	6d49                	lui	s10,0x12
    c0002e2a:	6c70                	ld	a2,216(s0)
    c0002e2c:	6d65                	lui	s10,0x19
    c0002e2e:	6e65                	lui	t3,0x19
    c0002e30:	2074                	fld	fa3,192(s0)
    c0002e32:	616d                	addi	sp,sp,240
    c0002e34:	6e69                	lui	t3,0x1a
    c0002e36:	2928                	fld	fa0,80(a0)
    c0002e38:	202c                	fld	fa1,64(s0)
    c0002e3a:	6f66                	ld	t5,88(sp)
    c0002e3c:	000a216f          	jal	sp,c00a4e3c <__global_pointer$+0xa168c>
    c0002e40:	7325                	lui	t1,0xfffe9
    c0002e42:	3d20                	fld	fs0,120(a0)
    c0002e44:	2520                	fld	fs0,72(a0)
    c0002e46:	0a64                	addi	s1,sp,284
	...
    c0002e50:	6e28                	ld	a0,88(a2)
    c0002e52:	6c75                	lui	s8,0x1d
    c0002e54:	296c                	fld	fa1,208(a0)
    c0002e56:	0000                	unimp
    c0002e58:	f858                	sd	a4,176(s0)
    c0002e5a:	ffff                	0xffff
    c0002e5c:	fab8                	sd	a4,112(a3)
    c0002e5e:	ffff                	0xffff
    c0002e60:	faa4                	sd	s1,112(a3)
    c0002e62:	ffff                	0xffff
    c0002e64:	fab8                	sd	a4,112(a3)
    c0002e66:	ffff                	0xffff
    c0002e68:	fab8                	sd	a4,112(a3)
    c0002e6a:	ffff                	0xffff
    c0002e6c:	fab8                	sd	a4,112(a3)
    c0002e6e:	ffff                	0xffff
    c0002e70:	fab8                	sd	a4,112(a3)
    c0002e72:	ffff                	0xffff
    c0002e74:	f82c                	sd	a1,112(s0)
    c0002e76:	ffff                	0xffff
    c0002e78:	fab8                	sd	a4,112(a3)
    c0002e7a:	ffff                	0xffff
    c0002e7c:	fab8                	sd	a4,112(a3)
    c0002e7e:	ffff                	0xffff
    c0002e80:	f7b4                	sd	a3,104(a5)
    c0002e82:	ffff                	0xffff
    c0002e84:	f844                	sd	s1,176(s0)
    c0002e86:	ffff                	0xffff
    c0002e88:	fab8                	sd	a4,112(a3)
    c0002e8a:	ffff                	0xffff
    c0002e8c:	f7c0                	sd	s0,168(a5)
    c0002e8e:	ffff                	0xffff
    c0002e90:	f7cc                	sd	a1,168(a5)
    c0002e92:	ffff                	0xffff
    c0002e94:	f7cc                	sd	a1,168(a5)
    c0002e96:	ffff                	0xffff
    c0002e98:	f7cc                	sd	a1,168(a5)
    c0002e9a:	ffff                	0xffff
    c0002e9c:	f7cc                	sd	a1,168(a5)
    c0002e9e:	ffff                	0xffff
    c0002ea0:	f7cc                	sd	a1,168(a5)
    c0002ea2:	ffff                	0xffff
    c0002ea4:	f7cc                	sd	a1,168(a5)
    c0002ea6:	ffff                	0xffff
    c0002ea8:	f7cc                	sd	a1,168(a5)
    c0002eaa:	ffff                	0xffff
    c0002eac:	f7cc                	sd	a1,168(a5)
    c0002eae:	ffff                	0xffff
    c0002eb0:	f7cc                	sd	a1,168(a5)
    c0002eb2:	ffff                	0xffff
    c0002eb4:	fab8                	sd	a4,112(a3)
    c0002eb6:	ffff                	0xffff
    c0002eb8:	fab8                	sd	a4,112(a3)
    c0002eba:	ffff                	0xffff
    c0002ebc:	fab8                	sd	a4,112(a3)
    c0002ebe:	ffff                	0xffff
    c0002ec0:	fab8                	sd	a4,112(a3)
    c0002ec2:	ffff                	0xffff
    c0002ec4:	fab8                	sd	a4,112(a3)
    c0002ec6:	ffff                	0xffff
    c0002ec8:	fab8                	sd	a4,112(a3)
    c0002eca:	ffff                	0xffff
    c0002ecc:	fab8                	sd	a4,112(a3)
    c0002ece:	ffff                	0xffff
    c0002ed0:	fab8                	sd	a4,112(a3)
    c0002ed2:	ffff                	0xffff
    c0002ed4:	fab8                	sd	a4,112(a3)
    c0002ed6:	ffff                	0xffff
    c0002ed8:	fab8                	sd	a4,112(a3)
    c0002eda:	ffff                	0xffff
    c0002edc:	fab8                	sd	a4,112(a3)
    c0002ede:	ffff                	0xffff
    c0002ee0:	fab8                	sd	a4,112(a3)
    c0002ee2:	ffff                	0xffff
    c0002ee4:	fab8                	sd	a4,112(a3)
    c0002ee6:	ffff                	0xffff
    c0002ee8:	fab8                	sd	a4,112(a3)
    c0002eea:	ffff                	0xffff
    c0002eec:	fab8                	sd	a4,112(a3)
    c0002eee:	ffff                	0xffff
    c0002ef0:	fab8                	sd	a4,112(a3)
    c0002ef2:	ffff                	0xffff
    c0002ef4:	fab8                	sd	a4,112(a3)
    c0002ef6:	ffff                	0xffff
    c0002ef8:	fab8                	sd	a4,112(a3)
    c0002efa:	ffff                	0xffff
    c0002efc:	fab8                	sd	a4,112(a3)
    c0002efe:	ffff                	0xffff
    c0002f00:	fab8                	sd	a4,112(a3)
    c0002f02:	ffff                	0xffff
    c0002f04:	fab8                	sd	a4,112(a3)
    c0002f06:	ffff                	0xffff
    c0002f08:	fab8                	sd	a4,112(a3)
    c0002f0a:	ffff                	0xffff
    c0002f0c:	fab8                	sd	a4,112(a3)
    c0002f0e:	ffff                	0xffff
    c0002f10:	fab8                	sd	a4,112(a3)
    c0002f12:	ffff                	0xffff
    c0002f14:	fab8                	sd	a4,112(a3)
    c0002f16:	ffff                	0xffff
    c0002f18:	fab8                	sd	a4,112(a3)
    c0002f1a:	ffff                	0xffff
    c0002f1c:	fab8                	sd	a4,112(a3)
    c0002f1e:	ffff                	0xffff
    c0002f20:	fab8                	sd	a4,112(a3)
    c0002f22:	ffff                	0xffff
    c0002f24:	fab8                	sd	a4,112(a3)
    c0002f26:	ffff                	0xffff
    c0002f28:	fab8                	sd	a4,112(a3)
    c0002f2a:	ffff                	0xffff
    c0002f2c:	fab8                	sd	a4,112(a3)
    c0002f2e:	ffff                	0xffff
    c0002f30:	fab8                	sd	a4,112(a3)
    c0002f32:	ffff                	0xffff
    c0002f34:	fab8                	sd	a4,112(a3)
    c0002f36:	ffff                	0xffff
    c0002f38:	fab8                	sd	a4,112(a3)
    c0002f3a:	ffff                	0xffff
    c0002f3c:	fab8                	sd	a4,112(a3)
    c0002f3e:	ffff                	0xffff
    c0002f40:	fab8                	sd	a4,112(a3)
    c0002f42:	ffff                	0xffff
    c0002f44:	fab8                	sd	a4,112(a3)
    c0002f46:	ffff                	0xffff
    c0002f48:	fab8                	sd	a4,112(a3)
    c0002f4a:	ffff                	0xffff
    c0002f4c:	fab8                	sd	a4,112(a3)
    c0002f4e:	ffff                	0xffff
    c0002f50:	fab8                	sd	a4,112(a3)
    c0002f52:	ffff                	0xffff
    c0002f54:	fab8                	sd	a4,112(a3)
    c0002f56:	ffff                	0xffff
    c0002f58:	f898                	sd	a4,48(s1)
    c0002f5a:	ffff                	0xffff
    c0002f5c:	f9d4                	sd	a3,176(a1)
    c0002f5e:	ffff                	0xffff
    c0002f60:	fab8                	sd	a4,112(a3)
    c0002f62:	ffff                	0xffff
    c0002f64:	fab8                	sd	a4,112(a3)
    c0002f66:	ffff                	0xffff
    c0002f68:	fab8                	sd	a4,112(a3)
    c0002f6a:	ffff                	0xffff
    c0002f6c:	fab8                	sd	a4,112(a3)
    c0002f6e:	ffff                	0xffff
    c0002f70:	fab8                	sd	a4,112(a3)
    c0002f72:	ffff                	0xffff
    c0002f74:	fab8                	sd	a4,112(a3)
    c0002f76:	ffff                	0xffff
    c0002f78:	fab8                	sd	a4,112(a3)
    c0002f7a:	ffff                	0xffff
    c0002f7c:	f888                	sd	a0,48(s1)
    c0002f7e:	ffff                	0xffff
    c0002f80:	fab8                	sd	a4,112(a3)
    c0002f82:	ffff                	0xffff
    c0002f84:	fab8                	sd	a4,112(a3)
    c0002f86:	ffff                	0xffff
    c0002f88:	fa2c                	sd	a1,112(a2)
    c0002f8a:	ffff                	0xffff
    c0002f8c:	fa38                	sd	a4,112(a2)
    c0002f8e:	ffff                	0xffff
    c0002f90:	fab8                	sd	a4,112(a3)
    c0002f92:	ffff                	0xffff
    c0002f94:	fab8                	sd	a4,112(a3)
    c0002f96:	ffff                	0xffff
    c0002f98:	f8bc                	sd	a5,112(s1)
    c0002f9a:	ffff                	0xffff
    c0002f9c:	fab8                	sd	a4,112(a3)
    c0002f9e:	ffff                	0xffff
    c0002fa0:	fa20                	sd	s0,112(a2)
    c0002fa2:	ffff                	0xffff
    c0002fa4:	fab8                	sd	a4,112(a3)
    c0002fa6:	ffff                	0xffff
    c0002fa8:	fab8                	sd	a4,112(a3)
    c0002faa:	ffff                	0xffff
    c0002fac:	fa60                	sd	s0,240(a2)
    c0002fae:	ffff                	0xffff

Disassembly of section .bss:

00000000c0002fb0 <Send_buf>:
	...

00000000c0002fb8 <ansbuf>:
	...

00000000c0002fc8 <counters>:
	...

00000000c0002fd8 <counter_names>:
	...

00000000c0002fe8 <count.2750>:
    c0002fe8:	0000                	unimp
	...

00000000c0002fec <sense.2749>:
    c0002fec:	0000                	unimp
	...

Disassembly of section .tbss:

00000000c0002ff0 <_tls_data>:
    c0002ff0:	0000                	unimp
	...

Disassembly of section .debug_info:

0000000000000000 <.debug_info>:
   0:	0d35                	addi	s10,s10,13
   2:	0000                	unimp
   4:	0004                	0x4
   6:	0000                	unimp
   8:	0000                	unimp
   a:	0108                	addi	a0,sp,128
   c:	0154                	addi	a3,sp,132
   e:	0000                	unimp
  10:	ec0c                	sd	a1,24(s0)
  12:	13000003          	lb	zero,304(zero) # 130 <_tbss_end+0x12c>
  16:	0004                	0x4
  18:	4800                	lw	s0,16(s0)
  1a:	0010                	0x10
  1c:	00c0                	addi	s0,sp,68
  1e:	0000                	unimp
  20:	a400                	fsd	fs0,8(s0)
  22:	0008                	0x8
	...
  2c:	0200                	addi	s0,sp,256
  2e:	0601                	addi	a2,a2,0
  30:	0402                	slli	s0,s0,0x0
  32:	0000                	unimp
  34:	00003403          	ld	s0,0(zero) # 0 <_tdata_begin>
  38:	0200                	addi	s0,sp,256
  3a:	00003f2b          	0x3f2b
  3e:	0200                	addi	s0,sp,256
  40:	0801                	addi	a6,a6,0
  42:	0400                	addi	s0,sp,512
  44:	0000                	unimp
  46:	0202                	slli	tp,tp,0x0
  48:	6a05                	lui	s4,0x1
  4a:	0004                	0x4
  4c:	0300                	addi	s0,sp,384
  4e:	0569                	addi	a0,a0,26
  50:	0000                	unimp
  52:	3902                	fld	fs2,32(sp)
  54:	0058                	addi	a4,sp,4
  56:	0000                	unimp
  58:	0202                	slli	tp,tp,0x0
  5a:	0002b207          	fld	ft4,0(t0) # 2000 <_tbss_end+0x1ffc>
  5e:	0400                	addi	s0,sp,512
  60:	0504                	addi	s1,sp,640
  62:	6e69                	lui	t3,0x1a
  64:	0074                	addi	a3,sp,12
  66:	0402                	slli	s0,s0,0x0
  68:	00007b07          	0x7b07
  6c:	0200                	addi	s0,sp,256
  6e:	0508                	addi	a0,sp,640
  70:	000000eb          	0xeb
  74:	0802                	slli	a6,a6,0x0
  76:	00007607          	0x7607
  7a:	0300                	addi	s0,sp,384
  7c:	0036                	0x36
  7e:	0000                	unimp
  80:	00341803          	lh	a6,3(s0) # ffffffffffff9003 <__global_pointer$+0xffffffff3fff5853>
  84:	0000                	unimp
  86:	00056b03          	lwu	s6,0(a0)
  8a:	0300                	addi	s0,sp,384
  8c:	4d24                	lw	s1,88(a0)
  8e:	0000                	unimp
  90:	0300                	addi	s0,sp,384
  92:	03d5                	addi	t2,t2,21
  94:	0000                	unimp
  96:	0704                	addi	s1,sp,896
  98:	005f 0000 ae03      	0xae030000005f
  9e:	05000003          	lb	zero,80(zero) # 50 <_tbss_end+0x4c>
  a2:	6d2c                	ld	a1,88(a0)
  a4:	0000                	unimp
  a6:	0200                	addi	s0,sp,256
  a8:	0508                	addi	a0,sp,640
  aa:	00e6                	slli	ra,ra,0x19
  ac:	0000                	unimp
  ae:	00054f03          	lbu	t5,0(a0)
  b2:	0500                	addi	s0,sp,640
  b4:	6d72                	ld	s10,280(sp)
  b6:	0000                	unimp
  b8:	0300                	addi	s0,sp,384
  ba:	0296                	slli	t0,t0,0x5
  bc:	0000                	unimp
  be:	9105                	srli	a0,a0,0x21
  c0:	006d                	c.addi	zero,27
  c2:	0000                	unimp
  c4:	0605                	addi	a2,a2,1
  c6:	06000003          	lb	zero,96(zero) # 60 <_tbss_end+0x5c>
  ca:	0165                	addi	sp,sp,25
  cc:	0066                	0x66
  ce:	0000                	unimp
  d0:	0406                	slli	s0,s0,0x1
  d2:	a605                	j	3f2 <_tbss_end+0x3ee>
  d4:	000000ef          	jal	ra,d4 <_tbss_end+0xd0>
  d8:	0002f807          	0x2f807
  dc:	0500                	addi	s0,sp,640
  de:	c4a8                	sw	a0,72(s1)
  e0:	0000                	unimp
  e2:	0700                	addi	s0,sp,896
  e4:	026d                	addi	tp,tp,27
  e6:	0000                	unimp
  e8:	a905                	j	518 <_tbss_end+0x514>
  ea:	000000ef          	jal	ra,ea <_tbss_end+0xe6>
  ee:	0800                	addi	s0,sp,16
  f0:	0000003f 000000ff 	0xff0000003f
  f8:	7409                	lui	s0,0xfffe2
  fa:	0000                	unimp
  fc:	0300                	addi	s0,sp,384
  fe:	0a00                	addi	s0,sp,272
 100:	0508                	addi	a0,sp,640
 102:	000120a3          	sw	zero,1(sp)
 106:	0b00                	addi	s0,sp,400
 108:	0000052b          	0x52b
 10c:	a505                	j	72c <_tbss_end+0x728>
 10e:	005f 0000 0b00      	0xb000000005f
 114:	00000533          	add	a0,zero,zero
 118:	aa05                	j	248 <_tbss_end+0x244>
 11a:	00d0                	addi	a2,sp,68
 11c:	0000                	unimp
 11e:	0004                	0x4
 120:	00049203          	lh	tp,0(s1)
 124:	0500                	addi	s0,sp,640
 126:	0000ffab          	0xffab
 12a:	0300                	addi	s0,sp,384
 12c:	0230                	addi	a2,sp,264
 12e:	0000                	unimp
 130:	af05                	j	860 <_tbss_end+0x85c>
 132:	0091                	addi	ra,ra,4
 134:	0000                	unimp
 136:	080c                	addi	a1,sp,16
 138:	080d                	addi	a6,a6,3
 13a:	013e                	slli	sp,sp,0xf
 13c:	0000                	unimp
 13e:	0102                	slli	sp,sp,0x0
 140:	0908                	addi	a0,sp,144
 142:	0004                	0x4
 144:	0e00                	addi	s0,sp,784
 146:	013e                	slli	sp,sp,0xf
 148:	0000                	unimp
 14a:	0005d003          	lhu	zero,0(a1)
 14e:	0700                	addi	s0,sp,896
 150:	6619                	lui	a2,0x6
 152:	0000                	unimp
 154:	0f00                	addi	s0,sp,912
 156:	0241                	addi	tp,tp,16
 158:	0000                	unimp
 15a:	0720                	addi	s0,sp,904
 15c:	0001a82f          	amoadd.w	a6,zero,(gp)
 160:	0b00                	addi	s0,sp,400
 162:	000004b3          	add	s1,zero,zero
 166:	01a83107          	fld	ft2,26(a6)
 16a:	0000                	unimp
 16c:	1000                	addi	s0,sp,32
 16e:	6b5f 0700 5f32      	0x5f3207006b5f
 174:	0000                	unimp
 176:	0800                	addi	s0,sp,16
 178:	00050e0b          	0x50e0b
 17c:	0700                	addi	s0,sp,896
 17e:	5f32                	lw	t5,44(sp)
 180:	0000                	unimp
 182:	0c00                	addi	s0,sp,528
 184:	00021b0b          	0x21b0b
 188:	0700                	addi	s0,sp,896
 18a:	5f32                	lw	t5,44(sp)
 18c:	0000                	unimp
 18e:	1000                	addi	s0,sp,32
 190:	00060c0b          	0x60c0b
 194:	0700                	addi	s0,sp,896
 196:	5f32                	lw	t5,44(sp)
 198:	0000                	unimp
 19a:	1400                	addi	s0,sp,544
 19c:	5f10                	lw	a2,56(a4)
 19e:	0078                	addi	a4,sp,12
 1a0:	01ae3307          	fld	ft6,26(t3) # 1a01a <_tbss_end+0x1a016>
 1a4:	0000                	unimp
 1a6:	0018                	0x18
 1a8:	080d                	addi	a6,a6,3
 1aa:	0155                	addi	sp,sp,21
 1ac:	0000                	unimp
 1ae:	4a08                	lw	a0,16(a2)
 1b0:	0001                	nop
 1b2:	be00                	fsd	fs0,56(a2)
 1b4:	0001                	nop
 1b6:	0900                	addi	s0,sp,144
 1b8:	0074                	addi	a3,sp,12
 1ba:	0000                	unimp
 1bc:	0000                	unimp
 1be:	0002680f          	0x2680f
 1c2:	2400                	fld	fs0,8(s0)
 1c4:	02373707          	fld	fa4,35(a4)
 1c8:	0000                	unimp
 1ca:	0000dd0b          	0xdd0b
 1ce:	0700                	addi	s0,sp,896
 1d0:	5f39                	li	t5,-18
 1d2:	0000                	unimp
 1d4:	0000                	unimp
 1d6:	0005600b          	0x5600b
 1da:	0700                	addi	s0,sp,896
 1dc:	5f3a                	lw	t5,172(sp)
 1de:	0000                	unimp
 1e0:	0400                	addi	s0,sp,512
 1e2:	0001000b          	0x1000b
 1e6:	0700                	addi	s0,sp,896
 1e8:	00005f3b          	srlw	t5,zero,zero
 1ec:	0800                	addi	s0,sp,16
 1ee:	0006a20b          	0x6a20b
 1f2:	0700                	addi	s0,sp,896
 1f4:	5f3c                	lw	a5,120(a4)
 1f6:	0000                	unimp
 1f8:	0c00                	addi	s0,sp,528
 1fa:	0003880b          	0x3880b
 1fe:	0700                	addi	s0,sp,896
 200:	5f3d                	li	t5,-17
 202:	0000                	unimp
 204:	1000                	addi	s0,sp,32
 206:	0003410b          	0x3410b
 20a:	0700                	addi	s0,sp,896
 20c:	5f3e                	lw	t5,236(sp)
 20e:	0000                	unimp
 210:	1400                	addi	s0,sp,544
 212:	0006110b          	0x6110b
 216:	0700                	addi	s0,sp,896
 218:	00005f3f 740b1800 	0x740b180000005f3f
 220:	0004                	0x4
 222:	0700                	addi	s0,sp,896
 224:	5f40                	lw	s0,60(a4)
 226:	0000                	unimp
 228:	1c00                	addi	s0,sp,560
 22a:	0006560b          	0x6560b
 22e:	0700                	addi	s0,sp,896
 230:	5f41                	li	t5,-16
 232:	0000                	unimp
 234:	2000                	fld	fs0,0(s0)
 236:	1100                	addi	s0,sp,160
 238:	0000010f          	0x10f
 23c:	0208                	addi	a0,sp,256
 23e:	02784a07          	flq	fs4,39(a6)
 242:	0000                	unimp
 244:	0001f50b          	0x1f50b
 248:	0700                	addi	s0,sp,896
 24a:	0002784b          	fnmsub.s	fa6,ft4,ft0,ft0
 24e:	0000                	unimp
 250:	0012                	0x12
 252:	0000                	unimp
 254:	0700                	addi	s0,sp,896
 256:	784c                	ld	a1,176(s0)
 258:	0002                	0x2
 25a:	0000                	unimp
 25c:	1201                	addi	tp,tp,-32
 25e:	05b5                	addi	a1,a1,13
 260:	0000                	unimp
 262:	014a4e07          	flq	ft8,20(s4) # 1014 <_tbss_end+0x1010>
 266:	0000                	unimp
 268:	0200                	addi	s0,sp,256
 26a:	4c12                	lw	s8,4(sp)
 26c:	0001                	nop
 26e:	0700                	addi	s0,sp,896
 270:	4a51                	li	s4,20
 272:	0001                	nop
 274:	0400                	addi	s0,sp,512
 276:	0002                	0x2
 278:	3608                	fld	fa0,40(a2)
 27a:	0001                	nop
 27c:	8800                	0x8800
 27e:	0002                	0x2
 280:	0900                	addi	s0,sp,144
 282:	0074                	addi	a3,sp,12
 284:	0000                	unimp
 286:	001f 9111 0003      	0x39111001f
 28c:	1800                	addi	s0,sp,48
 28e:	c75d0703          	lb	a4,-907(s10) # 18c75 <_tbss_end+0x18c71>
 292:	0002                	0x2
 294:	0b00                	addi	s0,sp,400
 296:	000004b3          	add	s1,zero,zero
 29a:	02c75e07          	0x2c75e07
 29e:	0000                	unimp
 2a0:	0b00                	addi	s0,sp,400
 2a2:	000004cb          	fnmsub.s	fs1,ft0,ft0,ft0,rne
 2a6:	005f5f07          	0x5f5f07
 2aa:	0000                	unimp
 2ac:	0b08                	addi	a0,sp,400
 2ae:	00000203          	lb	tp,0(zero) # 0 <_tdata_begin>
 2b2:	02cd6107          	0x2cd6107
 2b6:	0000                	unimp
 2b8:	1210                	addi	a2,sp,288
 2ba:	0000010f          	0x10f
 2be:	02376207          	0x2376207
 2c2:	0000                	unimp
 2c4:	0110                	addi	a2,sp,128
 2c6:	0d00                	addi	s0,sp,656
 2c8:	8808                	0x8808
 2ca:	0002                	0x2
 2cc:	0800                	addi	s0,sp,16
 2ce:	02dd                	addi	t0,t0,23
 2d0:	0000                	unimp
 2d2:	02dd                	addi	t0,t0,23
 2d4:	0000                	unimp
 2d6:	7409                	lui	s0,0xfffe2
 2d8:	0000                	unimp
 2da:	1f00                	addi	s0,sp,944
 2dc:	0d00                	addi	s0,sp,656
 2de:	e308                	sd	a0,0(a4)
 2e0:	0002                	0x2
 2e2:	1300                	addi	s0,sp,416
 2e4:	00047e0f          	0x47e0f
 2e8:	1000                	addi	s0,sp,32
 2ea:	03097507          	0x3097507
 2ee:	0000                	unimp
 2f0:	0000fa0b          	0xfa0b
 2f4:	0700                	addi	s0,sp,896
 2f6:	0976                	slli	s2,s2,0x1d
 2f8:	00000003          	lb	zero,0(zero) # 0 <_tdata_begin>
 2fc:	0000110b          	0x110b
 300:	0700                	addi	s0,sp,896
 302:	00005f77          	0x5f77
 306:	0800                	addi	s0,sp,16
 308:	0d00                	addi	s0,sp,656
 30a:	3f08                	fld	fa0,56(a4)
 30c:	0000                	unimp
 30e:	0f00                	addi	s0,sp,912
 310:	049d                	addi	s1,s1,7
 312:	0000                	unimp
 314:	07b0                	addi	a2,sp,968
 316:	39b5                	addiw	s3,s3,-19
 318:	0004                	0x4
 31a:	1000                	addi	s0,sp,32
 31c:	705f 0700 09b6      	0x9b60700705f
 322:	00000003          	lb	zero,0(zero) # 0 <_tdata_begin>
 326:	5f10                	lw	a2,56(a4)
 328:	0072                	0x72
 32a:	005fb707          	fld	fa4,5(t6)
 32e:	0000                	unimp
 330:	1008                	addi	a0,sp,32
 332:	775f 0700 5fb8      	0x5fb80700775f
 338:	0000                	unimp
 33a:	0c00                	addi	s0,sp,528
 33c:	0001450b          	0x1450b
 340:	0700                	addi	s0,sp,896
 342:	46b9                	li	a3,14
 344:	0000                	unimp
 346:	1000                	addi	s0,sp,32
 348:	0002900b          	0x2900b
 34c:	0700                	addi	s0,sp,896
 34e:	46ba                	lw	a3,140(sp)
 350:	0000                	unimp
 352:	1200                	addi	s0,sp,288
 354:	5f10                	lw	a2,56(a4)
 356:	6662                	ld	a2,24(sp)
 358:	0700                	addi	s0,sp,896
 35a:	0002e4bb          	0x2e4bb
 35e:	1800                	addi	s0,sp,48
 360:	0000880b          	0x880b
 364:	0700                	addi	s0,sp,896
 366:	5fbc                	lw	a5,120(a5)
 368:	0000                	unimp
 36a:	2800                	fld	fs0,16(s0)
 36c:	0001270b          	0x1270b
 370:	0700                	addi	s0,sp,896
 372:	000136c3          	fmadd.s	fa3,ft2,ft0,ft0,rup
 376:	3000                	fld	fs0,32(s0)
 378:	0002580b          	0x2580b
 37c:	0700                	addi	s0,sp,896
 37e:	94c5                	srai	s1,s1,0x31
 380:	0005                	c.addi	zero,1
 382:	3800                	fld	fs0,48(s0)
 384:	00033a0b          	0x33a0b
 388:	0700                	addi	s0,sp,896
 38a:	0005bec7          	fmsub.s	ft9,fa1,ft0,ft0,rup
 38e:	4000                	lw	s0,0(s0)
 390:	00053b0b          	0x53b0b
 394:	0700                	addi	s0,sp,896
 396:	e2ca                	sd	s2,320(sp)
 398:	0005                	c.addi	zero,1
 39a:	4800                	lw	s0,16(s0)
 39c:	0006700b          	0x6700b
 3a0:	0700                	addi	s0,sp,896
 3a2:	0005fccb          	fnmsub.s	fs9,fa1,ft0,ft0
 3a6:	5000                	lw	s0,32(s0)
 3a8:	5f10                	lw	a2,56(a4)
 3aa:	6275                	lui	tp,0x1d
 3ac:	0700                	addi	s0,sp,896
 3ae:	e4ce                	sd	s3,72(sp)
 3b0:	0002                	0x2
 3b2:	5800                	lw	s0,48(s0)
 3b4:	5f10                	lw	a2,56(a4)
 3b6:	7075                	0x7075
 3b8:	0700                	addi	s0,sp,896
 3ba:	000309cf          	fnmadd.s	fs3,ft6,ft0,ft0,rne
 3be:	6800                	ld	s0,16(s0)
 3c0:	5f10                	lw	a2,56(a4)
 3c2:	7275                	lui	tp,0xffffd
 3c4:	0700                	addi	s0,sp,896
 3c6:	5fd0                	lw	a2,60(a5)
 3c8:	0000                	unimp
 3ca:	7000                	ld	s0,32(s0)
 3cc:	0000f40b          	0xf40b
 3d0:	0700                	addi	s0,sp,896
 3d2:	000602d3          	fadd.s	ft5,fa2,ft0,rne
 3d6:	7400                	ld	s0,40(s0)
 3d8:	0006410b          	0x6410b
 3dc:	0700                	addi	s0,sp,896
 3de:	12d4                	addi	a3,sp,356
 3e0:	0006                	0x6
 3e2:	7700                	ld	s0,40(a4)
 3e4:	5f10                	lw	a2,56(a4)
 3e6:	626c                	ld	a1,192(a2)
 3e8:	0700                	addi	s0,sp,896
 3ea:	0002e4d7          	0x2e4d7
 3ee:	7800                	ld	s0,48(s0)
 3f0:	0001bd0b          	0x1bd0b
 3f4:	0700                	addi	s0,sp,896
 3f6:	5fda                	lw	t6,180(sp)
 3f8:	0000                	unimp
 3fa:	8800                	0x8800
 3fc:	0001ce0b          	0x1ce0b
 400:	0700                	addi	s0,sp,896
 402:	00009cdb          	0x9cdb
 406:	9000                	0x9000
 408:	00004b0b          	0x4b0b
 40c:	0700                	addi	s0,sp,896
 40e:	57de                	lw	a5,244(sp)
 410:	0004                	0x4
 412:	9800                	0x9800
 414:	00030d0b          	0x30d0b
 418:	0700                	addi	s0,sp,896
 41a:	2be2                	fld	fs7,24(sp)
 41c:	0001                	nop
 41e:	a000                	fsd	fs0,0(s0)
 420:	0004a50b          	0x4a50b
 424:	0700                	addi	s0,sp,896
 426:	20e4                	fld	fs1,192(s1)
 428:	0001                	nop
 42a:	a400                	fsd	fs0,8(s0)
 42c:	0003290b          	0x3290b
 430:	0700                	addi	s0,sp,896
 432:	5fe5                	li	t6,-7
 434:	0000                	unimp
 436:	ac00                	fsd	fs0,24(s0)
 438:	1400                	addi	s0,sp,544
 43a:	00b9                	addi	ra,ra,14
 43c:	0000                	unimp
 43e:	00000457          	0x457
 442:	5715                	li	a4,-27
 444:	0004                	0x4
 446:	1500                	addi	s0,sp,672
 448:	0136                	slli	sp,sp,0xd
 44a:	0000                	unimp
 44c:	3815                	addiw	a6,a6,-27
 44e:	0001                	nop
 450:	1500                	addi	s0,sp,672
 452:	005f 0000 0d00      	0xd000000005f
 458:	6208                	ld	a0,0(a2)
 45a:	0004                	0x4
 45c:	0e00                	addi	s0,sp,784
 45e:	00000457          	0x457
 462:	1616                	slli	a2,a2,0x25
 464:	0005                	c.addi	zero,1
 466:	4800                	lw	s0,16(s0)
 468:	02390707          	0x2390707
 46c:	0594                	addi	a3,sp,704
 46e:	0000                	unimp
 470:	00046317          	auipc	t1,0x46
 474:	0700                	addi	s0,sp,896
 476:	005f023b          	addw	tp,t5,t0
 47a:	0000                	unimp
 47c:	1700                	addi	s0,sp,928
 47e:	0621                	addi	a2,a2,8
 480:	0000                	unimp
 482:	69024007          	flq	ft0,1680(tp) # ffffffffffffd690 <__global_pointer$+0xffffffff3fff9ee0>
 486:	0006                	0x6
 488:	0800                	addi	s0,sp,16
 48a:	00028017          	auipc	zero,0x28
 48e:	0700                	addi	s0,sp,896
 490:	0240                	addi	s0,sp,260
 492:	0669                	addi	a2,a2,26
 494:	0000                	unimp
 496:	1710                	addi	a2,sp,928
 498:	0239                	addi	tp,tp,14
 49a:	0000                	unimp
 49c:	69024007          	flq	ft0,1680(tp) # 690 <_tbss_end+0x68c>
 4a0:	0006                	0x6
 4a2:	1800                	addi	s0,sp,48
 4a4:	0004c617          	auipc	a2,0x4c
 4a8:	0700                	addi	s0,sp,896
 4aa:	0242                	slli	tp,tp,0x10
 4ac:	005f 0000 1720      	0x17200000005f
 4b2:	0029                	c.addi	zero,10
 4b4:	0000                	unimp
 4b6:	54024307          	flq	ft6,1344(tp) # 540 <_tbss_end+0x53c>
 4ba:	0008                	0x8
 4bc:	2400                	fld	fs0,8(s0)
 4be:	0004f517          	auipc	a0,0x4f
 4c2:	0700                	addi	s0,sp,896
 4c4:	0246                	slli	tp,tp,0x11
 4c6:	005f 0000 1740      	0x17400000005f
 4cc:	000004e3          	beqz	zero,cd4 <_tbss_end+0xcd0>
 4d0:	69024707          	flq	fa4,1680(tp) # 690 <_tbss_end+0x68c>
 4d4:	0008                	0x8
 4d6:	4800                	lw	s0,16(s0)
 4d8:	0003a317          	auipc	t1,0x3a
 4dc:	0700                	addi	s0,sp,896
 4de:	0249                	addi	tp,tp,18
 4e0:	005f 0000 1750      	0x17500000005f
 4e6:	000004eb          	0x4eb
 4ea:	7a024b07          	flq	fs6,1952(tp) # 7a0 <_tbss_end+0x79c>
 4ee:	0008                	0x8
 4f0:	5800                	lw	s0,48(s0)
 4f2:	0002f017          	auipc	zero,0x2f
 4f6:	0700                	addi	s0,sp,896
 4f8:	024e                	slli	tp,tp,0x13
 4fa:	01a8                	addi	a0,sp,200
 4fc:	0000                	unimp
 4fe:	1760                	addi	s0,sp,940
 500:	025e                	slli	tp,tp,0x17
 502:	0000                	unimp
 504:	5f024f07          	flq	ft10,1520(tp) # 5f0 <_tbss_end+0x5ec>
 508:	0000                	unimp
 50a:	6800                	ld	s0,16(s0)
 50c:	00069117          	auipc	sp,0x69
 510:	0700                	addi	s0,sp,896
 512:	0250                	addi	a2,sp,260
 514:	01a8                	addi	a0,sp,200
 516:	0000                	unimp
 518:	1770                	addi	a2,sp,940
 51a:	000003cb          	fnmsub.s	ft7,ft0,ft0,ft0,rne
 51e:	80025107          	0x80025107
 522:	0008                	0x8
 524:	7800                	ld	s0,48(s0)
 526:	00028817          	auipc	a6,0x28
 52a:	0700                	addi	s0,sp,896
 52c:	0254                	addi	a3,sp,260
 52e:	005f 0000 1780      	0x17800000005f
 534:	01c6                	slli	gp,gp,0x11
 536:	0000                	unimp
 538:	38025507          	0x38025507
 53c:	0001                	nop
 53e:	8800                	0x8800
 540:	00040e17          	auipc	t3,0x40
 544:	0700                	addi	s0,sp,896
 546:	0278                	addi	a4,sp,268
 548:	0831                	addi	a6,a6,12
 54a:	0000                	unimp
 54c:	1890                	addi	a2,sp,112
 54e:	0391                	addi	t2,t2,4
 550:	0000                	unimp
 552:	c7027c07          	0xc7027c07
 556:	0002                	0x2
 558:	f800                	sd	s0,48(s0)
 55a:	1801                	addi	a6,a6,-32
 55c:	02ce                	slli	t0,t0,0x13
 55e:	0000                	unimp
 560:	88027d07          	0x88027d07
 564:	0002                	0x2
 566:	0000                	unimp
 568:	1802                	slli	a6,a6,0x20
 56a:	0632                	slli	a2,a2,0xc
 56c:	0000                	unimp
 56e:	91028107          	0x91028107
 572:	0008                	0x8
 574:	1800                	addi	s0,sp,48
 576:	1805                	addi	a6,a6,-31
 578:	0000012f          	0x12f
 57c:	2e028607          	0x2e028607
 580:	0006                	0x6
 582:	2000                	fld	fs0,0(s0)
 584:	1805                	addi	a6,a6,-31
 586:	010a                	slli	sp,sp,0x2
 588:	0000                	unimp
 58a:	9d028707          	0x9d028707
 58e:	0008                	0x8
 590:	3800                	fld	fs0,48(s0)
 592:	0005                	c.addi	zero,1
 594:	080d                	addi	a6,a6,3
 596:	0439                	addi	s0,s0,14
 598:	0000                	unimp
 59a:	b914                	fsd	fa3,48(a0)
 59c:	0000                	unimp
 59e:	b800                	fsd	fs0,48(s0)
 5a0:	0005                	c.addi	zero,1
 5a2:	1500                	addi	s0,sp,672
 5a4:	00000457          	0x457
 5a8:	3615                	addiw	a2,a2,-27
 5aa:	0001                	nop
 5ac:	1500                	addi	s0,sp,672
 5ae:	05b8                	addi	a4,sp,712
 5b0:	0000                	unimp
 5b2:	5f15                	li	t5,-27
 5b4:	0000                	unimp
 5b6:	0000                	unimp
 5b8:	080d                	addi	a6,a6,3
 5ba:	0145                	addi	sp,sp,17
 5bc:	0000                	unimp
 5be:	080d                	addi	a6,a6,3
 5c0:	059a                	slli	a1,a1,0x6
 5c2:	0000                	unimp
 5c4:	ae14                	fsd	fa3,24(a2)
 5c6:	0000                	unimp
 5c8:	e200                	sd	s0,0(a2)
 5ca:	0005                	c.addi	zero,1
 5cc:	1500                	addi	s0,sp,672
 5ce:	00000457          	0x457
 5d2:	3615                	addiw	a2,a2,-27
 5d4:	0001                	nop
 5d6:	1500                	addi	s0,sp,672
 5d8:	00ae                	slli	ra,ra,0xb
 5da:	0000                	unimp
 5dc:	5f15                	li	t5,-27
 5de:	0000                	unimp
 5e0:	0000                	unimp
 5e2:	080d                	addi	a6,a6,3
 5e4:	05c4                	addi	s1,sp,708
 5e6:	0000                	unimp
 5e8:	5f14                	lw	a3,56(a4)
 5ea:	0000                	unimp
 5ec:	fc00                	sd	s0,56(s0)
 5ee:	0005                	c.addi	zero,1
 5f0:	1500                	addi	s0,sp,672
 5f2:	00000457          	0x457
 5f6:	3615                	addiw	a2,a2,-27
 5f8:	0001                	nop
 5fa:	0000                	unimp
 5fc:	080d                	addi	a6,a6,3
 5fe:	05e8                	addi	a0,sp,716
 600:	0000                	unimp
 602:	3f08                	fld	fa0,56(a4)
 604:	0000                	unimp
 606:	1200                	addi	s0,sp,288
 608:	0006                	0x6
 60a:	0900                	addi	s0,sp,144
 60c:	0074                	addi	a3,sp,12
 60e:	0000                	unimp
 610:	0002                	0x2
 612:	3f08                	fld	fa0,56(a4)
 614:	0000                	unimp
 616:	2200                	fld	fs0,0(a2)
 618:	0006                	0x6
 61a:	0900                	addi	s0,sp,144
 61c:	0074                	addi	a3,sp,12
 61e:	0000                	unimp
 620:	0000                	unimp
 622:	8b05                	andi	a4,a4,1
 624:	0004                	0x4
 626:	0700                	addi	s0,sp,896
 628:	011f 030f 0000      	0x30f011f
 62e:	1b19                	addi	s6,s6,-26
 630:	0006                	0x6
 632:	1800                	addi	s0,sp,48
 634:	63012307          	flw	ft6,1584(sp) # 69b3c <_tbss_end+0x69b38>
 638:	0006                	0x6
 63a:	1700                	addi	s0,sp,928
 63c:	000004b3          	add	s1,zero,zero
 640:	63012507          	flw	fa0,1584(sp)
 644:	0006                	0x6
 646:	0000                	unimp
 648:	00029f17          	auipc	t5,0x29
 64c:	0700                	addi	s0,sp,896
 64e:	0126                	slli	sp,sp,0x9
 650:	005f 0000 1708      	0x17080000005f
 656:	0485                	addi	s1,s1,1
 658:	0000                	unimp
 65a:	69012707          	flw	fa4,1680(sp)
 65e:	0006                	0x6
 660:	1000                	addi	s0,sp,32
 662:	0d00                	addi	s0,sp,656
 664:	2e08                	fld	fa0,24(a2)
 666:	0006                	0x6
 668:	0d00                	addi	s0,sp,656
 66a:	2208                	fld	fa0,0(a2)
 66c:	0006                	0x6
 66e:	1900                	addi	s0,sp,176
 670:	00000017          	auipc	zero,0x0
 674:	070e                	slli	a4,a4,0x3
 676:	06a4013f 1d170000 	0x1d17000006a4013f
 67e:	0005                	c.addi	zero,1
 680:	0700                	addi	s0,sp,896
 682:	0140                	addi	s0,sp,132
 684:	06a4                	addi	s1,sp,840
 686:	0000                	unimp
 688:	1700                	addi	s0,sp,928
 68a:	058c                	addi	a1,sp,704
 68c:	0000                	unimp
 68e:	a4014107          	flq	ft2,-1472(sp)
 692:	0006                	0x6
 694:	0600                	addi	s0,sp,768
 696:	0005cb17          	auipc	s6,0x5c
 69a:	0700                	addi	s0,sp,896
 69c:	0142                	slli	sp,sp,0x10
 69e:	0058                	addi	a4,sp,4
 6a0:	0000                	unimp
 6a2:	000c                	0xc
 6a4:	5808                	lw	a0,48(s0)
 6a6:	0000                	unimp
 6a8:	b400                	fsd	fs0,40(s0)
 6aa:	0006                	0x6
 6ac:	0900                	addi	s0,sp,144
 6ae:	0074                	addi	a3,sp,12
 6b0:	0000                	unimp
 6b2:	0002                	0x2
 6b4:	d81a                	sw	t1,48(sp)
 6b6:	b5025907          	0xb5025907
 6ba:	17000007          	0x17000007
 6be:	05f8                	addi	a4,sp,716
 6c0:	0000                	unimp
 6c2:	66025b07          	0x66025b07
 6c6:	0000                	unimp
 6c8:	0000                	unimp
 6ca:	0005a817          	auipc	a6,0x5a
 6ce:	0700                	addi	s0,sp,896
 6d0:	025c                	addi	a5,sp,260
 6d2:	0138                	addi	a4,sp,136
 6d4:	0000                	unimp
 6d6:	1708                	addi	a0,sp,928
 6d8:	000002e3          	beqz	zero,edc <_tbss_end+0xed8>
 6dc:	b5025d07          	0xb5025d07
 6e0:	10000007          	0x10000007
 6e4:	00066117          	auipc	sp,0x66
 6e8:	0700                	addi	s0,sp,896
 6ea:	025e                	slli	tp,tp,0x17
 6ec:	01be                	slli	gp,gp,0xf
 6ee:	0000                	unimp
 6f0:	172c                	addi	a1,sp,936
 6f2:	0249                	addi	tp,tp,18
 6f4:	0000                	unimp
 6f6:	5f025f07          	0x5f025f07
 6fa:	0000                	unimp
 6fc:	5000                	lw	s0,32(s0)
 6fe:	0004ae17          	auipc	t3,0x4a
 702:	0700                	addi	s0,sp,896
 704:	0260                	addi	s0,sp,268
 706:	07c5                	addi	a5,a5,17
 708:	0000                	unimp
 70a:	1758                	addi	a4,sp,932
 70c:	00000677          	0x677
 710:	6f026107          	0x6f026107
 714:	0006                	0x6
 716:	6000                	ld	s0,0(s0)
 718:	0004b917          	auipc	s2,0x4b
 71c:	0700                	addi	s0,sp,896
 71e:	0262                	slli	tp,tp,0x18
 720:	0120                	addi	s0,sp,136
 722:	0000                	unimp
 724:	1770                	addi	a2,sp,940
 726:	00000683          	lb	a3,0(zero) # 670 <_tbss_end+0x66c>
 72a:	20026307          	0x20026307
 72e:	0001                	nop
 730:	7800                	ld	s0,48(s0)
 732:	0000cf17          	auipc	t5,0xc
 736:	0700                	addi	s0,sp,896
 738:	0264                	addi	s1,sp,268
 73a:	0120                	addi	s0,sp,136
 73c:	0000                	unimp
 73e:	1780                	addi	s0,sp,992
 740:	0628                	addi	a0,sp,776
 742:	0000                	unimp
 744:	cc026507          	0xcc026507
 748:	88000007          	0x88000007
 74c:	0002d717          	auipc	a4,0x2d
 750:	0700                	addi	s0,sp,896
 752:	0266                	slli	tp,tp,0x19
 754:	07dc                	addi	a5,sp,964
 756:	0000                	unimp
 758:	1790                	addi	a2,sp,992
 75a:	05d8                	addi	a4,sp,708
 75c:	0000                	unimp
 75e:	5f026707          	0x5f026707
 762:	0000                	unimp
 764:	a800                	fsd	fs0,16(s0)
 766:	0001e717          	auipc	a4,0x1e
 76a:	0700                	addi	s0,sp,896
 76c:	0268                	addi	a0,sp,268
 76e:	0120                	addi	s0,sp,136
 770:	0000                	unimp
 772:	17ac                	addi	a1,sp,1000
 774:	000000ab          	0xab
 778:	20026907          	0x20026907
 77c:	0001                	nop
 77e:	b400                	fsd	fs0,40(s0)
 780:	0001d617          	auipc	a2,0x1d
 784:	0700                	addi	s0,sp,896
 786:	026a                	slli	tp,tp,0x1a
 788:	0120                	addi	s0,sp,136
 78a:	0000                	unimp
 78c:	17bc                	addi	a5,sp,1000
 78e:	0051                	c.addi	zero,20
 790:	0000                	unimp
 792:	20026b07          	0x20026b07
 796:	0001                	nop
 798:	c400                	sw	s0,8(s0)
 79a:	00006017          	auipc	zero,0x6
 79e:	0700                	addi	s0,sp,896
 7a0:	026c                	addi	a1,sp,268
 7a2:	0120                	addi	s0,sp,136
 7a4:	0000                	unimp
 7a6:	17cc                	addi	a1,sp,996
 7a8:	0461                	addi	s0,s0,24
 7aa:	0000                	unimp
 7ac:	5f026d07          	0x5f026d07
 7b0:	0000                	unimp
 7b2:	d400                	sw	s0,40(s0)
 7b4:	0800                	addi	s0,sp,16
 7b6:	013e                	slli	sp,sp,0xf
 7b8:	0000                	unimp
 7ba:	07c5                	addi	a5,a5,17
 7bc:	0000                	unimp
 7be:	7409                	lui	s0,0xfffe2
 7c0:	0000                	unimp
 7c2:	1900                	addi	s0,sp,176
 7c4:	0200                	addi	s0,sp,256
 7c6:	0708                	addi	a0,sp,896
 7c8:	0071                	c.addi	zero,28
 7ca:	0000                	unimp
 7cc:	3e08                	fld	fa0,56(a2)
 7ce:	0001                	nop
 7d0:	dc00                	sw	s0,56(s0)
 7d2:	09000007          	0x9000007
 7d6:	0074                	addi	a3,sp,12
 7d8:	0000                	unimp
 7da:	3e080007          	0x3e080007
 7de:	0001                	nop
 7e0:	ec00                	sd	s0,24(s0)
 7e2:	09000007          	0x9000007
 7e6:	0074                	addi	a3,sp,12
 7e8:	0000                	unimp
 7ea:	681b0017          	auipc	zero,0x681b0
 7ee:	0701                	addi	a4,a4,0
 7f0:	0272                	slli	tp,tp,0x1c
 7f2:	0811                	addi	a6,a6,4
 7f4:	0000                	unimp
 7f6:	00037b17          	auipc	s6,0x37
 7fa:	0700                	addi	s0,sp,896
 7fc:	0275                	addi	tp,tp,29
 7fe:	0811                	addi	a6,a6,4
 800:	0000                	unimp
 802:	1700                	addi	s0,sp,928
 804:	0354                	addi	a3,sp,388
 806:	0000                	unimp
 808:	21027607          	0x21027607
 80c:	0008                	0x8
 80e:	f000                	sd	s0,32(s0)
 810:	0800                	addi	s0,sp,16
 812:	0309                	addi	t1,t1,2
 814:	0000                	unimp
 816:	0821                	addi	a6,a6,8
 818:	0000                	unimp
 81a:	7409                	lui	s0,0xfffe2
 81c:	0000                	unimp
 81e:	1d00                	addi	s0,sp,688
 820:	0800                	addi	s0,sp,16
 822:	0066                	0x66
 824:	0000                	unimp
 826:	0831                	addi	a6,a6,12
 828:	0000                	unimp
 82a:	7409                	lui	s0,0xfffe2
 82c:	0000                	unimp
 82e:	1d00                	addi	s0,sp,688
 830:	1c00                	addi	s0,sp,560
 832:	0168                	addi	a0,sp,140
 834:	54025707          	0x54025707
 838:	0008                	0x8
 83a:	1d00                	addi	s0,sp,688
 83c:	0516                	slli	a0,a0,0x5
 83e:	0000                	unimp
 840:	b4026e07          	0xb4026e07
 844:	0006                	0x6
 846:	1d00                	addi	s0,sp,688
 848:	00000647          	fmsub.s	fa2,ft0,ft0,ft0,rne
 84c:	ec027707          	0xec027707
 850:	00000007          	0x7
 854:	3e08                	fld	fa0,56(a2)
 856:	0001                	nop
 858:	6400                	ld	s0,8(s0)
 85a:	0008                	0x8
 85c:	0900                	addi	s0,sp,144
 85e:	0074                	addi	a3,sp,12
 860:	0000                	unimp
 862:	0018                	0x18
 864:	911e                	add	sp,sp,t2
 866:	0000                	unimp
 868:	0d00                	addi	s0,sp,656
 86a:	6408                	ld	a0,8(s0)
 86c:	0008                	0x8
 86e:	1f00                	addi	s0,sp,944
 870:	087a                	slli	a6,a6,0x1e
 872:	0000                	unimp
 874:	5715                	li	a4,-27
 876:	0004                	0x4
 878:	0000                	unimp
 87a:	080d                	addi	a6,a6,3
 87c:	0000086f          	jal	a6,87c <_tbss_end+0x878>
 880:	080d                	addi	a6,a6,3
 882:	01a8                	addi	a0,sp,200
 884:	0000                	unimp
 886:	911f 0008 1500      	0x15000008911f
 88c:	005f 0000 0d00      	0xd000000005f
 892:	9708                	0x9708
 894:	0008                	0x8
 896:	0d00                	addi	s0,sp,656
 898:	8608                	0x8608
 89a:	0008                	0x8
 89c:	0800                	addi	s0,sp,16
 89e:	0622                	slli	a2,a2,0x8
 8a0:	0000                	unimp
 8a2:	08ad                	addi	a7,a7,11
 8a4:	0000                	unimp
 8a6:	7409                	lui	s0,0xfffe2
 8a8:	0000                	unimp
 8aa:	0200                	addi	s0,sp,256
 8ac:	2000                	fld	fs0,0(s0)
 8ae:	05ec                	addi	a1,sp,716
 8b0:	0000                	unimp
 8b2:	5702fe07          	0x5702fe07
 8b6:	0004                	0x4
 8b8:	2000                	fld	fs0,0(s0)
 8ba:	05e5                	addi	a1,a1,25
 8bc:	0000                	unimp
 8be:	5d02ff07          	0x5d02ff07
 8c2:	0004                	0x4
 8c4:	2100                	fld	fs0,0(a0)
 8c6:	02fe                	slli	t0,t0,0x1f
 8c8:	0000                	unimp
 8ca:	1008                	addi	a0,sp,32
 8cc:	08d0                	addi	a2,sp,84
 8ce:	0000                	unimp
 8d0:	080d                	addi	a6,a6,3
 8d2:	0138                	addi	a4,sp,136
 8d4:	0000                	unimp
 8d6:	9c21                	addw	s0,s0,s0
 8d8:	08000003          	lb	zero,128(zero) # 681b086a <_tbss_end+0x681b0866>
 8dc:	38e2                	fld	fa7,56(sp)
 8de:	0001                	nop
 8e0:	2100                	fld	fs0,0(a0)
 8e2:	00000367          	jalr	t1,zero
 8e6:	e308                	sd	a0,0(a4)
 8e8:	005f 0000 8521      	0x85210000005f
 8ee:	0005                	c.addi	zero,1
 8f0:	0800                	addi	s0,sp,16
 8f2:	00005fe3          	blez	zero,1110 <_tbss_end+0x110c>
 8f6:	2100                	fld	fs0,0(a0)
 8f8:	067c                	addi	a5,sp,780
 8fa:	0000                	unimp
 8fc:	e308                	sd	a0,0(a4)
 8fe:	005f 0000 3121      	0x31210000005f
 904:	08000003          	lb	zero,128(zero) # 80 <_tbss_end+0x7c>
 908:	5fe5                	li	t6,-7
 90a:	0000                	unimp
 90c:	2100                	fld	fs0,0(a0)
 90e:	0399                	addi	t2,t2,6
 910:	0000                	unimp
 912:	6309                	lui	t1,0x2
 914:	0138                	addi	a4,sp,136
 916:	0000                	unimp
 918:	3f08                	fld	fa0,56(a4)
 91a:	0000                	unimp
 91c:	2800                	fld	fs0,16(s0)
 91e:	0009                	c.addi	zero,2
 920:	0900                	addi	s0,sp,144
 922:	0074                	addi	a3,sp,12
 924:	0000                	unimp
 926:	46220007          	0x46220007
 92a:	0005                	c.addi	zero,1
 92c:	0a00                	addi	s0,sp,272
 92e:	1801                	addi	a6,a6,-32
 930:	0009                	c.addi	zero,2
 932:	0900                	addi	s0,sp,144
 934:	002fb003          	ld	zero,2(t6)
 938:	00c0                	addi	s0,sp,68
 93a:	0000                	unimp
 93c:	0800                	addi	s0,sp,16
 93e:	0000003f 0000094d 	0x94d0000003f
 946:	7409                	lui	s0,0xfffe2
 948:	0000                	unimp
 94a:	0900                	addi	s0,sp,144
 94c:	2200                	fld	fs0,0(a2)
 94e:	0000069b          	sext.w	a3,zero
 952:	020a                	slli	tp,tp,0x2
 954:	093d                	addi	s2,s2,15
 956:	0000                	unimp
 958:	0309                	addi	t1,t1,2
 95a:	2fb8                	fld	fa4,88(a5)
 95c:	c000                	sw	s0,0(s0)
 95e:	0000                	unimp
 960:	0000                	unimp
 962:	00069623          	sh	zero,12(a3) # 3000c <_tbss_end+0x30008>
 966:	0100                	addi	s0,sp,128
 968:	0258                	addi	a4,sp,260
 96a:	1830                	addi	a2,sp,56
 96c:	c000                	sw	s0,0(s0)
 96e:	0000                	unimp
 970:	0000                	unimp
 972:	00bc                	addi	a5,sp,72
 974:	0000                	unimp
 976:	0000                	unimp
 978:	0000                	unimp
 97a:	9c01                	subw	s0,s0,s0
 97c:	a524                	fsd	fs1,72(a0)
 97e:	0000                	unimp
 980:	0100                	addi	s0,sp,128
 982:	024c                	addi	a1,sp,260
 984:	17d8                	addi	a4,sp,996
 986:	c000                	sw	s0,0(s0)
 988:	0000                	unimp
 98a:	0000                	unimp
 98c:	0058                	addi	a4,sp,4
 98e:	0000                	unimp
 990:	0000                	unimp
 992:	0000                	unimp
 994:	9c01                	subw	s0,s0,s0
 996:	09c8                	addi	a0,sp,212
 998:	0000                	unimp
 99a:	fd25                	bnez	a0,912 <_tbss_end+0x90e>
 99c:	0001                	nop
 99e:	0100                	addi	s0,sp,128
 9a0:	024c                	addi	a1,sp,260
 9a2:	0074                	addi	a3,sp,12
 9a4:	0000                	unimp
 9a6:	9102                	jalr	sp
 9a8:	2558                	fld	fa4,136(a0)
 9aa:	0208                	addi	a0,sp,256
 9ac:	0000                	unimp
 9ae:	4c01                	li	s8,0
 9b0:	7402                	ld	s0,32(sp)
 9b2:	0000                	unimp
 9b4:	0200                	addi	s0,sp,256
 9b6:	5091                	li	ra,-28
 9b8:	9c26                	add	s8,s8,s1
 9ba:	0000                	unimp
 9bc:	0100                	addi	s0,sp,128
 9be:	024e                	slli	tp,tp,0x13
 9c0:	0074                	addi	a3,sp,12
 9c2:	0000                	unimp
 9c4:	9102                	jalr	sp
 9c6:	0068                	addi	a0,sp,12
 9c8:	00036e27          	0x36e27
 9cc:	0100                	addi	s0,sp,128
 9ce:	0238                	addi	a4,sp,264
 9d0:	005f 0000 1784      	0x17840000005f
 9d6:	c000                	sw	s0,0(s0)
 9d8:	0000                	unimp
 9da:	0000                	unimp
 9dc:	0054                	addi	a3,sp,4
 9de:	0000                	unimp
 9e0:	0000                	unimp
 9e2:	0000                	unimp
 9e4:	9c01                	subw	s0,s0,s0
 9e6:	0002c523          	0x2c523
 9ea:	0100                	addi	s0,sp,128
 9ec:	17440227          	0x17440227
 9f0:	c000                	sw	s0,0(s0)
 9f2:	0000                	unimp
 9f4:	0000                	unimp
 9f6:	0040                	addi	s0,sp,4
 9f8:	0000                	unimp
 9fa:	0000                	unimp
 9fc:	0000                	unimp
 9fe:	9c01                	subw	s0,s0,s0
 a00:	00001f23          	sh	zero,30(zero) # 1e <_tbss_end+0x1a>
 a04:	0100                	addi	s0,sp,128
 a06:	021a                	slli	tp,tp,0x6
 a08:	16bc                	addi	a5,sp,872
 a0a:	c000                	sw	s0,0(s0)
 a0c:	0000                	unimp
 a0e:	0000                	unimp
 a10:	0088                	addi	a0,sp,64
 a12:	0000                	unimp
 a14:	0000                	unimp
 a16:	0000                	unimp
 a18:	9c01                	subw	s0,s0,s0
 a1a:	1d28                	addi	a0,sp,696
 a1c:	0001                	nop
 a1e:	0100                	addi	s0,sp,128
 a20:	0214                	addi	a3,sp,256
 a22:	166c                	addi	a1,sp,812
 a24:	c000                	sw	s0,0(s0)
 a26:	0000                	unimp
 a28:	0000                	unimp
 a2a:	0050                	addi	a2,sp,4
 a2c:	0000                	unimp
 a2e:	0000                	unimp
 a30:	0000                	unimp
 a32:	9c01                	subw	s0,s0,s0
 a34:	0a48                	addi	a0,sp,276
 a36:	0000                	unimp
 a38:	4f25                	li	t5,9
 a3a:	0006                	0x6
 a3c:	0100                	addi	s0,sp,128
 a3e:	0214                	addi	a3,sp,256
 a40:	005f 0000 9102      	0x91020000005f
 a46:	006c                	addi	a1,sp,12
 a48:	00003e23          	sd	zero,28(zero) # 1c <_tbss_end+0x18>
 a4c:	0100                	addi	s0,sp,128
 a4e:	020d                	addi	tp,tp,3
 a50:	162c                	addi	a1,sp,808
 a52:	c000                	sw	s0,0(s0)
 a54:	0000                	unimp
 a56:	0000                	unimp
 a58:	0040                	addi	s0,sp,4
 a5a:	0000                	unimp
 a5c:	0000                	unimp
 a5e:	0000                	unimp
 a60:	9c01                	subw	s0,s0,s0
 a62:	00055723          	0x55723
 a66:	0100                	addi	s0,sp,128
 a68:	0206                	slli	tp,tp,0x1
 a6a:	15ec                	addi	a1,sp,748
 a6c:	c000                	sw	s0,0(s0)
 a6e:	0000                	unimp
 a70:	0000                	unimp
 a72:	0040                	addi	s0,sp,4
 a74:	0000                	unimp
 a76:	0000                	unimp
 a78:	0000                	unimp
 a7a:	9c01                	subw	s0,s0,s0
 a7c:	0003e723          	0x3e723
 a80:	0100                	addi	s0,sp,128
 a82:	01ff                	0x1ff
 a84:	15ac                	addi	a1,sp,744
 a86:	c000                	sw	s0,0(s0)
 a88:	0000                	unimp
 a8a:	0000                	unimp
 a8c:	0040                	addi	s0,sp,4
 a8e:	0000                	unimp
 a90:	0000                	unimp
 a92:	0000                	unimp
 a94:	9c01                	subw	s0,s0,s0
 a96:	00022123          	sw	zero,2(tp) # 2 <_tdata_begin+0x2>
 a9a:	0100                	addi	s0,sp,128
 a9c:	01f8                	addi	a4,sp,204
 a9e:	156c                	addi	a1,sp,684
 aa0:	c000                	sw	s0,0(s0)
 aa2:	0000                	unimp
 aa4:	0000                	unimp
 aa6:	0040                	addi	s0,sp,4
 aa8:	0000                	unimp
 aaa:	0000                	unimp
 aac:	0000                	unimp
 aae:	9c01                	subw	s0,s0,s0
 ab0:	8224                	0x8224
 ab2:	01000003          	lb	zero,16(zero) # 10 <_tbss_end+0xc>
 ab6:	14e401ef          	jal	gp,40c04 <_tbss_end+0x40c00>
 aba:	c000                	sw	s0,0(s0)
 abc:	0000                	unimp
 abe:	0000                	unimp
 ac0:	0088                	addi	a0,sp,64
 ac2:	0000                	unimp
 ac4:	0000                	unimp
 ac6:	0000                	unimp
 ac8:	9c01                	subw	s0,s0,s0
 aca:	00000b07          	0xb07
 ace:	0c25                	addi	s8,s8,9
 ad0:	0000                	unimp
 ad2:	0100                	addi	s0,sp,128
 ad4:	008601ef          	jal	gp,60adc <_tbss_end+0x60ad8>
 ad8:	0000                	unimp
 ada:	9102                	jalr	sp
 adc:	255e                	fld	fa0,464(sp)
 ade:	03b5                	addi	t2,t2,13
 ae0:	0000                	unimp
 ae2:	ef01                	bnez	a4,afa <_tbss_end+0xaf6>
 ae4:	8601                	srai	a2,a2,0x0
 ae6:	0000                	unimp
 ae8:	0200                	addi	s0,sp,256
 aea:	5c91                	li	s9,-28
 aec:	6929                	lui	s2,0xa
 aee:	0100                	addi	s0,sp,128
 af0:	01f1                	addi	gp,gp,28
 af2:	0086                	slli	ra,ra,0x1
 af4:	0000                	unimp
 af6:	9102                	jalr	sp
 af8:	296e                	fld	fs2,216(sp)
 afa:	006a                	0x6a
 afc:	f101                	bnez	a0,9fc <_tbss_end+0x9f8>
 afe:	8601                	srai	a2,a2,0x0
 b00:	0000                	unimp
 b02:	0200                	addi	s0,sp,256
 b04:	6c91                	lui	s9,0x4
 b06:	2800                	fld	fs0,16(s0)
 b08:	01b1                	addi	gp,gp,12
 b0a:	0000                	unimp
 b0c:	da01                	beqz	a2,a1c <_tbss_end+0xa18>
 b0e:	c801                	beqz	s0,b1e <_tbss_end+0xb1a>
 b10:	00c00013          	li	zero,12
 b14:	0000                	unimp
 b16:	1c00                	addi	s0,sp,560
 b18:	0001                	nop
 b1a:	0000                	unimp
 b1c:	0000                	unimp
 b1e:	0100                	addi	s0,sp,128
 b20:	729c                	ld	a5,32(a3)
 b22:	2500000b          	0x2500000b
 b26:	0574                	addi	a3,sp,652
 b28:	0000                	unimp
 b2a:	da01                	beqz	a2,a3a <_tbss_end+0xa36>
 b2c:	3f01                	addiw	t5,t5,-32
 b2e:	0000                	unimp
 b30:	0200                	addi	s0,sp,256
 b32:	5f91                	li	t6,-28
 b34:	3c25                	addiw	s8,s8,-23
 b36:	0006                	0x6
 b38:	0100                	addi	s0,sp,128
 b3a:	01da                	slli	gp,gp,0x16
 b3c:	0000003f 255e9102 	0x255e91020000003f
 b44:	0000022b          	0x22b
 b48:	da01                	beqz	a2,a58 <_tbss_end+0xa54>
 b4a:	3f01                	addiw	t5,t5,-32
 b4c:	0000                	unimp
 b4e:	0200                	addi	s0,sp,256
 b50:	5d91                	li	s11,-28
 b52:	842a                	mv	s0,a0
 b54:	0014                	0x14
 b56:	00c0                	addi	s0,sp,68
 b58:	0000                	unimp
 b5a:	4c00                	lw	s0,24(s0)
 b5c:	0000                	unimp
 b5e:	0000                	unimp
 b60:	0000                	unimp
 b62:	2900                	fld	fs0,16(a0)
 b64:	0069                	c.addi	zero,26
 b66:	e501                	bnez	a0,b6e <_tbss_end+0xb6a>
 b68:	7b01                	lui	s6,0xfffe0
 b6a:	0000                	unimp
 b6c:	0200                	addi	s0,sp,256
 b6e:	6f91                	lui	t6,0x4
 b70:	0000                	unimp
 b72:	0000ba2b          	0xba2b
 b76:	0100                	addi	s0,sp,128
 b78:	00013eb3          	sltu	t4,sp,zero
 b7c:	8400                	0x8400
 b7e:	00c00013          	li	zero,12
 b82:	0000                	unimp
 b84:	4400                	lw	s0,8(s0)
 b86:	0000                	unimp
 b88:	0000                	unimp
 b8a:	0000                	unimp
 b8c:	0100                	addi	s0,sp,128
 b8e:	2c9c                	fld	fa5,24(s1)
 b90:	00000313          	li	t1,0
 b94:	ab01                	j	10a4 <_tbss_end+0x10a0>
 b96:	005f 0000 133c      	0x133c0000005f
 b9c:	c000                	sw	s0,0(s0)
 b9e:	0000                	unimp
 ba0:	0000                	unimp
 ba2:	0048                	addi	a0,sp,4
 ba4:	0000                	unimp
 ba6:	0000                	unimp
 ba8:	0000                	unimp
 baa:	9c01                	subw	s0,s0,s0
 bac:	00000bbf 00057c22 	0x57c2200000bbf
 bb4:	0100                	addi	s0,sp,128
 bb6:	66ad                	lui	a3,0xb
 bb8:	0000                	unimp
 bba:	0200                	addi	s0,sp,256
 bbc:	6c91                	lui	s9,0x4
 bbe:	2d00                	fld	fs0,24(a0)
 bc0:	04d0                	addi	a2,sp,580
 bc2:	0000                	unimp
 bc4:	a401                	j	dc4 <_tbss_end+0xdc0>
 bc6:	12e8                	addi	a0,sp,364
 bc8:	c000                	sw	s0,0(s0)
 bca:	0000                	unimp
 bcc:	0000                	unimp
 bce:	0054                	addi	a3,sp,4
 bd0:	0000                	unimp
 bd2:	0000                	unimp
 bd4:	0000                	unimp
 bd6:	9c01                	subw	s0,s0,s0
 bd8:	0be9                	addi	s7,s7,26
 bda:	0000                	unimp
 bdc:	732e                	ld	t1,232(sp)
 bde:	0100                	addi	s0,sp,128
 be0:	38a4                	fld	fs1,112(s1)
 be2:	0001                	nop
 be4:	0200                	addi	s0,sp,256
 be6:	6891                	lui	a7,0x4
 be8:	2d00                	fld	fs0,24(a0)
 bea:	0592                	slli	a1,a1,0x4
 bec:	0000                	unimp
 bee:	9401                	srai	s0,s0,0x20
 bf0:	1284                	addi	s1,sp,352
 bf2:	c000                	sw	s0,0(s0)
 bf4:	0000                	unimp
 bf6:	0000                	unimp
 bf8:	0064                	addi	s1,sp,12
 bfa:	0000                	unimp
 bfc:	0000                	unimp
 bfe:	0000                	unimp
 c00:	9c01                	subw	s0,s0,s0
 c02:	0c2c                	addi	a1,sp,536
 c04:	0000                	unimp
 c06:	632e                	ld	t1,200(sp)
 c08:	0100                	addi	s0,sp,128
 c0a:	3e94                	fld	fa3,56(a3)
 c0c:	0001                	nop
 c0e:	0200                	addi	s0,sp,256
 c10:	5f91                	li	t6,-28
 c12:	0522                	slli	a0,a0,0x8
 c14:	0006                	0x6
 c16:	0100                	addi	s0,sp,128
 c18:	6696                	ld	a3,320(sp)
 c1a:	0000                	unimp
 c1c:	0200                	addi	s0,sp,256
 c1e:	6c91                	lui	s9,0x4
 c20:	00034b2f          	0x34b2f
 c24:	0100                	addi	s0,sp,128
 c26:	6696                	ld	a3,320(sp)
 c28:	0000                	unimp
 c2a:	0000                	unimp
 c2c:	7430                	ld	a2,104(s0)
 c2e:	0002                	0x2
 c30:	0100                	addi	s0,sp,128
 c32:	668d                	lui	a3,0x3
 c34:	0000                	unimp
 c36:	4400                	lw	s0,8(s0)
 c38:	0012                	0x12
 c3a:	00c0                	addi	s0,sp,68
 c3c:	0000                	unimp
 c3e:	4000                	lw	s0,0(s0)
 c40:	0000                	unimp
 c42:	0000                	unimp
 c44:	0000                	unimp
 c46:	0100                	addi	s0,sp,128
 c48:	5c9c                	lw	a5,56(s1)
 c4a:	000c                	0xc
 c4c:	2200                	fld	fs0,0(a2)
 c4e:	057c                	addi	a5,sp,652
 c50:	0000                	unimp
 c52:	8f01                	sub	a4,a4,s0
 c54:	0066                	0x66
 c56:	0000                	unimp
 c58:	9102                	jalr	sp
 c5a:	006c                	addi	a1,sp,12
 c5c:	ba2d                	j	596 <_tbss_end+0x592>
 c5e:	01000003          	lb	zero,16(zero) # 10 <_tbss_end+0xc>
 c62:	7078                	ld	a4,224(s0)
 c64:	0011                	c.addi	zero,4
 c66:	00c0                	addi	s0,sp,68
 c68:	0000                	unimp
 c6a:	d400                	sw	s0,40(s0)
 c6c:	0000                	unimp
 c6e:	0000                	unimp
 c70:	0000                	unimp
 c72:	0100                	addi	s0,sp,128
 c74:	949c                	0x949c
 c76:	000c                	0xc
 c78:	3100                	fld	fs0,32(a0)
 c7a:	0541                	addi	a0,a0,16
 c7c:	0000                	unimp
 c7e:	7801                	lui	a6,0xfffe0
 c80:	005f 0000 9102      	0x91020000005f
 c86:	325c                	fld	fa5,160(a2)
 c88:	0064                	addi	s1,sp,12
 c8a:	7a01                	lui	s4,0xfffe0
 c8c:	005f 0000 9102      	0x91020000005f
 c92:	006c                	addi	a1,sp,12
 c94:	00020e33          	add	t3,tp,zero
 c98:	0100                	addi	s0,sp,128
 c9a:	3f4a                	fld	ft10,176(sp)
 c9c:	0000                	unimp
 c9e:	e400                	sd	s0,8(s0)
 ca0:	0010                	0x10
 ca2:	00c0                	addi	s0,sp,68
 ca4:	0000                	unimp
 ca6:	8c00                	0x8c00
 ca8:	0000                	unimp
 caa:	0000                	unimp
 cac:	0000                	unimp
 cae:	0100                	addi	s0,sp,128
 cb0:	e09c                	sd	a5,0(s1)
 cb2:	000c                	0xc
 cb4:	3100                	fld	fs0,32(a0)
 cb6:	03c4                	addi	s1,sp,452
 cb8:	0000                	unimp
 cba:	4a01                	li	s4,0
 cbc:	0000003f 315f9102 	0x315f91020000003f
 cc4:	00000523          	sb	zero,10(zero) # a <_tbss_end+0x6>
 cc8:	4a01                	li	s4,0
 cca:	0000003f 225e9102 	0x225e91020000003f
 cd2:	02a6                	slli	t0,t0,0x9
 cd4:	0000                	unimp
 cd6:	4c01                	li	s8,0
 cd8:	0ce0                	addi	s0,sp,604
 cda:	0000                	unimp
 cdc:	9102                	jalr	sp
 cde:	0068                	addi	a0,sp,12
 ce0:	080d                	addi	a6,a6,3
 ce2:	005f 0000 3734      	0x37340000005f
 ce8:	0001                	nop
 cea:	0100                	addi	s0,sp,128
 cec:	483e                	lw	a6,204(sp)
 cee:	0010                	0x10
 cf0:	00c0                	addi	s0,sp,68
 cf2:	0000                	unimp
 cf4:	9c00                	0x9c00
 cf6:	0000                	unimp
 cf8:	0000                	unimp
 cfa:	0000                	unimp
 cfc:	0100                	addi	s0,sp,128
 cfe:	319c                	fld	fa5,32(a1)
 d00:	03c4                	addi	s1,sp,452
 d02:	0000                	unimp
 d04:	3e01                	addiw	t3,t3,-32
 d06:	0000003f 315f9102 	0x315f91020000003f
 d0e:	00000523          	sb	zero,10(zero) # a <_tbss_end+0x6>
 d12:	3e01                	addiw	t3,t3,-32
 d14:	0000003f 315e9102 	0x315e91020000003f
 d1c:	035d                	addi	t1,t1,23
 d1e:	0000                	unimp
 d20:	3e01                	addiw	t3,t3,-32
 d22:	0000003f 225d9102 	0x225d91020000003f
 d2a:	05be                	slli	a1,a1,0xf
 d2c:	0000                	unimp
 d2e:	4001                	0x4001
 d30:	0ce0                	addi	s0,sp,604
 d32:	0000                	unimp
 d34:	9102                	jalr	sp
 d36:	0068                	addi	a0,sp,12
	...

Disassembly of section .debug_abbrev:

0000000000000000 <.debug_abbrev>:
   0:	1101                	addi	sp,sp,-32
   2:	2501                	sext.w	a0,a0
   4:	130e                	slli	t1,t1,0x23
   6:	1b0e030b          	0x1b0e030b
   a:	110e                	slli	sp,sp,0x23
   c:	1201                	addi	tp,tp,-32
   e:	00171007          	0x171007
  12:	0200                	addi	s0,sp,256
  14:	0024                	addi	s1,sp,8
  16:	0b3e0b0b          	0xb3e0b0b
  1a:	00000e03          	lb	t3,0(zero) # 0 <_tdata_begin>
  1e:	03001603          	lh	a2,48(zero) # 30 <_tbss_end+0x2c>
  22:	3a0e                	fld	fs4,224(sp)
  24:	490b3b0b          	0x490b3b0b
  28:	04000013          	li	zero,64
  2c:	0024                	addi	s1,sp,8
  2e:	0b3e0b0b          	0xb3e0b0b
  32:	00000803          	lb	a6,0(zero) # 0 <_tdata_begin>
  36:	1605                	addi	a2,a2,-31
  38:	0300                	addi	s0,sp,384
  3a:	3a0e                	fld	fs4,224(sp)
  3c:	49053b0b          	0x49053b0b
  40:	06000013          	li	zero,96
  44:	0b0b0117          	auipc	sp,0xb0b0
  48:	0b3a                	slli	s6,s6,0xe
  4a:	13010b3b          	0x13010b3b
  4e:	0000                	unimp
  50:	03000d07          	0x3000d07
  54:	3a0e                	fld	fs4,224(sp)
  56:	490b3b0b          	0x490b3b0b
  5a:	08000013          	li	zero,128
  5e:	0101                	addi	sp,sp,0
  60:	1349                	addi	t1,t1,-14
  62:	1301                	addi	t1,t1,-32
  64:	0000                	unimp
  66:	2109                	addiw	sp,sp,2
  68:	4900                	lw	s0,16(a0)
  6a:	000b2f13          	slti	t5,s6,0
  6e:	0a00                	addi	s0,sp,272
  70:	0b0b0113          	addi	sp,s6,176 # fffffffffffe00b0 <__global_pointer$+0xffffffff3ffdc900>
  74:	0b3a                	slli	s6,s6,0xe
  76:	13010b3b          	0x13010b3b
  7a:	0000                	unimp
  7c:	03000d0b          	0x3000d0b
  80:	3a0e                	fld	fs4,224(sp)
  82:	490b3b0b          	0x490b3b0b
  86:	000b3813          	sltiu	a6,s6,0
  8a:	0c00                	addi	s0,sp,528
  8c:	0b0b000f          	0xb0b000f
  90:	0000                	unimp
  92:	0f0d                	addi	t5,t5,3
  94:	0b00                	addi	s0,sp,400
  96:	0013490b          	0x13490b
  9a:	0e00                	addi	s0,sp,784
  9c:	0026                	0x26
  9e:	1349                	addi	t1,t1,-14
  a0:	0000                	unimp
  a2:	0301130f          	0x301130f
  a6:	0b0e                	slli	s6,s6,0x3
  a8:	3b0b3a0b          	0x3b0b3a0b
  ac:	0013010b          	0x13010b
  b0:	1000                	addi	s0,sp,32
  b2:	000d                	c.addi	zero,3
  b4:	0b3a0803          	lb	a6,179(s4) # fffffffffffe00b3 <__global_pointer$+0xffffffff3ffdc903>
  b8:	13490b3b          	0x13490b3b
  bc:	0b38                	addi	a4,sp,408
  be:	0000                	unimp
  c0:	1311                	addi	t1,t1,-28
  c2:	0301                	addi	t1,t1,0
  c4:	0b0e                	slli	s6,s6,0x3
  c6:	3a05                	addiw	s4,s4,-31
  c8:	010b3b0b          	0x10b3b0b
  cc:	12000013          	li	zero,288
  d0:	000d                	c.addi	zero,3
  d2:	0b3a0e03          	lb	t3,179(s4)
  d6:	13490b3b          	0x13490b3b
  da:	0538                	addi	a4,sp,648
  dc:	0000                	unimp
  de:	27001513          	0x27001513
  e2:	0019                	c.addi	zero,6
  e4:	1400                	addi	s0,sp,544
  e6:	0115                	addi	sp,sp,5
  e8:	13491927          	0x13491927
  ec:	1301                	addi	t1,t1,-32
  ee:	0000                	unimp
  f0:	0515                	addi	a0,a0,5
  f2:	4900                	lw	s0,16(a0)
  f4:	16000013          	li	zero,352
  f8:	0e030113          	addi	sp,t1,224 # 20e0 <_tbss_end+0x20dc>
  fc:	0b3a050b          	0xb3a050b
 100:	1301053b          	0x1301053b
 104:	0000                	unimp
 106:	03000d17          	auipc	s10,0x3000
 10a:	3a0e                	fld	fs4,224(sp)
 10c:	49053b0b          	0x49053b0b
 110:	000b3813          	sltiu	a6,s6,0
 114:	1800                	addi	s0,sp,48
 116:	000d                	c.addi	zero,3
 118:	0b3a0e03          	lb	t3,179(s4)
 11c:	1349053b          	0x1349053b
 120:	0538                	addi	a4,sp,648
 122:	0000                	unimp
 124:	1319                	addi	t1,t1,-26
 126:	0301                	addi	t1,t1,0
 128:	0b0e                	slli	s6,s6,0x3
 12a:	3b0b3a0b          	0x3b0b3a0b
 12e:	0105                	addi	sp,sp,1
 130:	1a000013          	li	zero,416
 134:	0b0b0113          	addi	sp,s6,176
 138:	0b3a                	slli	s6,s6,0xe
 13a:	1301053b          	0x1301053b
 13e:	0000                	unimp
 140:	0b01131b          	0xb01131b
 144:	3a05                	addiw	s4,s4,-31
 146:	01053b0b          	0x1053b0b
 14a:	1c000013          	li	zero,448
 14e:	050b0117          	auipc	sp,0x50b0
 152:	0b3a                	slli	s6,s6,0xe
 154:	1301053b          	0x1301053b
 158:	0000                	unimp
 15a:	0d1d                	addi	s10,s10,7
 15c:	0300                	addi	s0,sp,384
 15e:	3a0e                	fld	fs4,224(sp)
 160:	49053b0b          	0x49053b0b
 164:	1e000013          	li	zero,480
 168:	0e030013          	addi	zero,t1,224
 16c:	193c                	addi	a5,sp,184
 16e:	0000                	unimp
 170:	151f 2701 0119      	0x1192701151f
 176:	20000013          	li	zero,512
 17a:	0034                	addi	a3,sp,8
 17c:	0b3a0e03          	lb	t3,179(s4)
 180:	1349053b          	0x1349053b
 184:	193c193f 34210000 	0x34210000193c193f
 18c:	0300                	addi	s0,sp,384
 18e:	3a0e                	fld	fs4,224(sp)
 190:	490b3b0b          	0x490b3b0b
 194:	3c193f13          	sltiu	t5,s2,961
 198:	0019                	c.addi	zero,6
 19a:	2200                	fld	fs0,0(a2)
 19c:	0034                	addi	a3,sp,8
 19e:	0b3a0e03          	lb	t3,179(s4)
 1a2:	13490b3b          	0x13490b3b
 1a6:	1802                	slli	a6,a6,0x20
 1a8:	0000                	unimp
 1aa:	3f002e23          	sw	a6,1020(zero) # 3fc <_tbss_end+0x3f8>
 1ae:	0319                	addi	t1,t1,6
 1b0:	3a0e                	fld	fs4,224(sp)
 1b2:	11053b0b          	0x11053b0b
 1b6:	1201                	addi	tp,tp,-32
 1b8:	96184007          	flq	ft0,-1695(a6) # fffffffffffdf961 <__global_pointer$+0xffffffff3ffdc1b1>
 1bc:	1942                	slli	s2,s2,0x30
 1be:	0000                	unimp
 1c0:	2e24                	fld	fs1,88(a2)
 1c2:	3f01                	addiw	t5,t5,-32
 1c4:	0319                	addi	t1,t1,6
 1c6:	3a0e                	fld	fs4,224(sp)
 1c8:	27053b0b          	0x27053b0b
 1cc:	1119                	addi	sp,sp,-26
 1ce:	1201                	addi	tp,tp,-32
 1d0:	97184007          	flq	ft0,-1679(a6)
 1d4:	1942                	slli	s2,s2,0x30
 1d6:	1301                	addi	t1,t1,-32
 1d8:	0000                	unimp
 1da:	0525                	addi	a0,a0,9
 1dc:	0300                	addi	s0,sp,384
 1de:	3a0e                	fld	fs4,224(sp)
 1e0:	49053b0b          	0x49053b0b
 1e4:	00180213          	addi	tp,a6,1
 1e8:	2600                	fld	fs0,8(a2)
 1ea:	0034                	addi	a3,sp,8
 1ec:	0b3a0e03          	lb	t3,179(s4)
 1f0:	1349053b          	0x1349053b
 1f4:	1802                	slli	a6,a6,0x20
 1f6:	0000                	unimp
 1f8:	3f002e27          	fsw	fa6,1020(zero) # 3fc <_tbss_end+0x3f8>
 1fc:	0319                	addi	t1,t1,6
 1fe:	3a0e                	fld	fs4,224(sp)
 200:	49053b0b          	0x49053b0b
 204:	12011113          	0x12011113
 208:	97184007          	flq	ft0,-1679(a6)
 20c:	1942                	slli	s2,s2,0x30
 20e:	0000                	unimp
 210:	2e28                	fld	fa0,88(a2)
 212:	3f01                	addiw	t5,t5,-32
 214:	0319                	addi	t1,t1,6
 216:	3a0e                	fld	fs4,224(sp)
 218:	27053b0b          	0x27053b0b
 21c:	1119                	addi	sp,sp,-26
 21e:	1201                	addi	tp,tp,-32
 220:	96184007          	flq	ft0,-1695(a6)
 224:	1942                	slli	s2,s2,0x30
 226:	1301                	addi	t1,t1,-32
 228:	0000                	unimp
 22a:	3429                	addiw	s0,s0,-22
 22c:	0300                	addi	s0,sp,384
 22e:	3a08                	fld	fa0,48(a2)
 230:	49053b0b          	0x49053b0b
 234:	00180213          	addi	tp,a6,1
 238:	2a00                	fld	fs0,16(a2)
 23a:	0111010b          	0x111010b
 23e:	0712                	slli	a4,a4,0x4
 240:	0000                	unimp
 242:	3f002e2b          	0x3f002e2b
 246:	0319                	addi	t1,t1,6
 248:	3a0e                	fld	fs4,224(sp)
 24a:	270b3b0b          	0x270b3b0b
 24e:	4919                	li	s2,6
 250:	12011113          	0x12011113
 254:	96184007          	flq	ft0,-1695(a6)
 258:	1942                	slli	s2,s2,0x30
 25a:	0000                	unimp
 25c:	2e2c                	fld	fa1,88(a2)
 25e:	3f01                	addiw	t5,t5,-32
 260:	0319                	addi	t1,t1,6
 262:	3a0e                	fld	fs4,224(sp)
 264:	270b3b0b          	0x270b3b0b
 268:	4919                	li	s2,6
 26a:	12011113          	0x12011113
 26e:	96184007          	flq	ft0,-1695(a6)
 272:	1942                	slli	s2,s2,0x30
 274:	1301                	addi	t1,t1,-32
 276:	0000                	unimp
 278:	2e2d                	addiw	t3,t3,11
 27a:	3f01                	addiw	t5,t5,-32
 27c:	0319                	addi	t1,t1,6
 27e:	3a0e                	fld	fs4,224(sp)
 280:	270b3b0b          	0x270b3b0b
 284:	1119                	addi	sp,sp,-26
 286:	1201                	addi	tp,tp,-32
 288:	96184007          	flq	ft0,-1695(a6)
 28c:	1942                	slli	s2,s2,0x30
 28e:	1301                	addi	t1,t1,-32
 290:	0000                	unimp
 292:	052e                	slli	a0,a0,0xb
 294:	0300                	addi	s0,sp,384
 296:	3a08                	fld	fa0,48(a2)
 298:	490b3b0b          	0x490b3b0b
 29c:	00180213          	addi	tp,a6,1
 2a0:	2f00                	fld	fs0,24(a4)
 2a2:	0034                	addi	a3,sp,8
 2a4:	0b3a0e03          	lb	t3,179(s4)
 2a8:	13490b3b          	0x13490b3b
 2ac:	0000                	unimp
 2ae:	2e30                	fld	fa2,88(a2)
 2b0:	3f01                	addiw	t5,t5,-32
 2b2:	0319                	addi	t1,t1,6
 2b4:	3a0e                	fld	fs4,224(sp)
 2b6:	490b3b0b          	0x490b3b0b
 2ba:	12011113          	0x12011113
 2be:	96184007          	flq	ft0,-1695(a6)
 2c2:	1942                	slli	s2,s2,0x30
 2c4:	1301                	addi	t1,t1,-32
 2c6:	0000                	unimp
 2c8:	0531                	addi	a0,a0,12
 2ca:	0300                	addi	s0,sp,384
 2cc:	3a0e                	fld	fs4,224(sp)
 2ce:	490b3b0b          	0x490b3b0b
 2d2:	00180213          	addi	tp,a6,1
 2d6:	3200                	fld	fs0,32(a2)
 2d8:	0034                	addi	a3,sp,8
 2da:	0b3a0803          	lb	a6,179(s4)
 2de:	13490b3b          	0x13490b3b
 2e2:	1802                	slli	a6,a6,0x20
 2e4:	0000                	unimp
 2e6:	3f012e33          	0x3f012e33
 2ea:	0319                	addi	t1,t1,6
 2ec:	3a0e                	fld	fs4,224(sp)
 2ee:	270b3b0b          	0x270b3b0b
 2f2:	4919                	li	s2,6
 2f4:	12011113          	0x12011113
 2f8:	97184007          	flq	ft0,-1679(a6)
 2fc:	1942                	slli	s2,s2,0x30
 2fe:	1301                	addi	t1,t1,-32
 300:	0000                	unimp
 302:	2e34                	fld	fa3,88(a2)
 304:	3f01                	addiw	t5,t5,-32
 306:	0319                	addi	t1,t1,6
 308:	3a0e                	fld	fs4,224(sp)
 30a:	270b3b0b          	0x270b3b0b
 30e:	1119                	addi	sp,sp,-26
 310:	1201                	addi	tp,tp,-32
 312:	97184007          	flq	ft0,-1679(a6)
 316:	1942                	slli	s2,s2,0x30
 318:	0000                	unimp
	...

Disassembly of section .debug_aranges:

0000000000000000 <.debug_aranges>:
   0:	002c                	addi	a1,sp,8
   2:	0000                	unimp
   4:	0002                	0x2
   6:	0000                	unimp
   8:	0000                	unimp
   a:	0008                	0x8
   c:	0000                	unimp
   e:	0000                	unimp
  10:	1048                	addi	a0,sp,36
  12:	c000                	sw	s0,0(s0)
  14:	0000                	unimp
  16:	0000                	unimp
  18:	08a4                	addi	s1,sp,88
	...

Disassembly of section .debug_line:

0000000000000000 <.debug_line>:
   0:	00000513          	li	a0,0
   4:	0002                	0x2
   6:	0198                	addi	a4,sp,192
   8:	0000                	unimp
   a:	0101                	addi	sp,sp,0
   c:	000d0efb          	0xd0efb
  10:	0101                	addi	sp,sp,0
  12:	0101                	addi	sp,sp,0
  14:	0000                	unimp
  16:	0100                	addi	s0,sp,128
  18:	0000                	unimp
  1a:	2e01                	sext.w	t3,t3
  1c:	5241552f          	0x5241552f
  20:	3154                	fld	fa3,160(a0)
  22:	682f002f          	0x682f002f
  26:	2f656d6f          	jal	s10,5631c <_tbss_end+0x56318>
  2a:	6972                	ld	s2,280(sp)
  2c:	72636573          	csrrsi	a0,0x726,6
  30:	6565                	lui	a0,0x19
  32:	6f742f6b          	0x6f742f6b
  36:	2f736c6f          	jal	s8,36b2c <_tbss_end+0x36b28>
  3a:	6972                	ld	s2,280(sp)
  3c:	2f766373          	csrrsi	t1,0x2f7,12
  40:	6972                	ld	s2,280(sp)
  42:	36766373          	csrrsi	t1,0x367,12
  46:	2d34                	fld	fa3,88(a0)
  48:	6e75                	lui	t3,0x1d
  4a:	776f6e6b          	0x776f6e6b
  4e:	2d6e                	fld	fs10,216(sp)
  50:	6c65                	lui	s8,0x19
  52:	2f66                	fld	ft10,88(sp)
  54:	6e69                	lui	t3,0x1a
  56:	64756c63          	bltu	a0,t2,6ae <_tbss_end+0x6aa>
  5a:	2f65                	addiw	t5,t5,25
  5c:	616d                	addi	sp,sp,240
  5e:	6e696863          	bltu	s2,t1,74e <_tbss_end+0x74a>
  62:	0065                	c.addi	zero,25
  64:	6d6f682f          	0x6d6f682f
  68:	2f65                	addiw	t5,t5,25
  6a:	6972                	ld	s2,280(sp)
  6c:	72636573          	csrrsi	a0,0x726,6
  70:	6565                	lui	a0,0x19
  72:	6f742f6b          	0x6f742f6b
  76:	2f736c6f          	jal	s8,36b6c <_tbss_end+0x36b68>
  7a:	6972                	ld	s2,280(sp)
  7c:	2f766373          	csrrsi	t1,0x2f7,12
  80:	6972                	ld	s2,280(sp)
  82:	36766373          	csrrsi	t1,0x367,12
  86:	2d34                	fld	fa3,88(a0)
  88:	6e75                	lui	t3,0x1d
  8a:	776f6e6b          	0x776f6e6b
  8e:	2d6e                	fld	fs10,216(sp)
  90:	6c65                	lui	s8,0x19
  92:	2f66                	fld	ft10,88(sp)
  94:	6e69                	lui	t3,0x1a
  96:	64756c63          	bltu	a0,t2,6ee <_tbss_end+0x6ea>
  9a:	2f65                	addiw	t5,t5,25
  9c:	00737973          	csrrci	s2,0x7,6
  a0:	6d6f682f          	0x6d6f682f
  a4:	2f65                	addiw	t5,t5,25
  a6:	6972                	ld	s2,280(sp)
  a8:	72636573          	csrrsi	a0,0x726,6
  ac:	6565                	lui	a0,0x19
  ae:	6f742f6b          	0x6f742f6b
  b2:	2f736c6f          	jal	s8,36ba8 <_tbss_end+0x36ba4>
  b6:	6972                	ld	s2,280(sp)
  b8:	2f766373          	csrrsi	t1,0x2f7,12
  bc:	696c                	ld	a1,208(a0)
  be:	2f62                	fld	ft10,24(sp)
  c0:	2f636367          	0x2f636367
  c4:	6972                	ld	s2,280(sp)
  c6:	36766373          	csrrsi	t1,0x367,12
  ca:	2d34                	fld	fa3,88(a0)
  cc:	6e75                	lui	t3,0x1d
  ce:	776f6e6b          	0x776f6e6b
  d2:	2d6e                	fld	fs10,216(sp)
  d4:	6c65                	lui	s8,0x19
  d6:	2f66                	fld	ft10,88(sp)
  d8:	2e322e37          	lui	t3,0x2e322
  dc:	2f30                	fld	fa2,88(a4)
  de:	6e69                	lui	t3,0x1a
  e0:	64756c63          	bltu	a0,t2,738 <_tbss_end+0x734>
  e4:	0065                	c.addi	zero,25
  e6:	6d6f682f          	0x6d6f682f
  ea:	2f65                	addiw	t5,t5,25
  ec:	6972                	ld	s2,280(sp)
  ee:	72636573          	csrrsi	a0,0x726,6
  f2:	6565                	lui	a0,0x19
  f4:	6f742f6b          	0x6f742f6b
  f8:	2f736c6f          	jal	s8,36bee <_tbss_end+0x36bea>
  fc:	6972                	ld	s2,280(sp)
  fe:	2f766373          	csrrsi	t1,0x2f7,12
 102:	6972                	ld	s2,280(sp)
 104:	36766373          	csrrsi	t1,0x367,12
 108:	2d34                	fld	fa3,88(a0)
 10a:	6e75                	lui	t3,0x1d
 10c:	776f6e6b          	0x776f6e6b
 110:	2d6e                	fld	fs10,216(sp)
 112:	6c65                	lui	s8,0x19
 114:	2f66                	fld	ft10,88(sp)
 116:	6e69                	lui	t3,0x1a
 118:	64756c63          	bltu	a0,t2,770 <_tbss_end+0x76c>
 11c:	0065                	c.addi	zero,25
 11e:	7500                	ld	s0,40(a0)
 120:	7261                	lui	tp,0xffff8
 122:	3074                	fld	fa3,224(s0)
 124:	6362                	ld	t1,24(sp)
 126:	2e6d                	addiw	t3,t3,27
 128:	00010063          	beqz	sp,128 <_tbss_end+0x124>
 12c:	5f00                	lw	s0,56(a4)
 12e:	6564                	ld	s1,200(a0)
 130:	6166                	ld	sp,88(sp)
 132:	6c75                	lui	s8,0x1d
 134:	5f74                	lw	a3,124(a4)
 136:	7974                	ld	a3,240(a0)
 138:	6570                	ld	a2,200(a0)
 13a:	00682e73          	csrrs	t3,0x6,a6
 13e:	0002                	0x2
 140:	5f00                	lw	s0,56(a4)
 142:	69647473          	csrrci	s0,0x696,8
 146:	746e                	ld	s0,248(sp)
 148:	682e                	ld	a6,200(sp)
 14a:	0300                	addi	s0,sp,384
 14c:	0000                	unimp
 14e:	6f6c                	ld	a1,216(a4)
 150:	682e6b63          	bltu	t3,sp,7e6 <_tbss_end+0x7e2>
 154:	0300                	addi	s0,sp,384
 156:	0000                	unimp
 158:	745f 7079 7365      	0x73657079745f
 15e:	682e                	ld	a6,200(sp)
 160:	0300                	addi	s0,sp,384
 162:	0000                	unimp
 164:	64647473          	csrrci	s0,0x646,8
 168:	6665                	lui	a2,0x19
 16a:	682e                	ld	a6,200(sp)
 16c:	0400                	addi	s0,sp,512
 16e:	0000                	unimp
 170:	6572                	ld	a0,280(sp)
 172:	6e65                	lui	t3,0x19
 174:	2e74                	fld	fa3,216(a2)
 176:	0068                	addi	a0,sp,12
 178:	75000003          	lb	zero,1872(zero) # 750 <_tbss_end+0x74c>
 17c:	696e                	ld	s2,216(sp)
 17e:	2e647473          	csrrci	s0,0x2e6,8
 182:	0068                	addi	a0,sp,12
 184:	73000003          	lb	zero,1840(zero) # 730 <_tbss_end+0x72c>
 188:	6474                	ld	a3,200(s0)
 18a:	696c                	ld	a1,208(a0)
 18c:	2e62                	fld	ft8,24(sp)
 18e:	0068                	addi	a0,sp,12
 190:	0005                	c.addi	zero,1
 192:	7500                	ld	s0,40(a0)
 194:	7261                	lui	tp,0xffff8
 196:	3174                	fld	fa3,224(a0)
 198:	706d                	0x706d
 19a:	00682e33          	slt	t3,a6,t1
 19e:	0001                	nop
 1a0:	0000                	unimp
 1a2:	0900                	addi	s0,sp,144
 1a4:	4802                	lw	a6,0(sp)
 1a6:	0010                	0x10
 1a8:	00c0                	addi	s0,sp,68
 1aa:	0000                	unimp
 1ac:	0300                	addi	s0,sp,384
 1ae:	013e                	slli	sp,sp,0xf
 1b0:	2c090103          	lb	sp,704(s2) # a2c0 <_tbss_end+0xa2bc>
 1b4:	0100                	addi	s0,sp,128
 1b6:	04090103          	lb	sp,64(s2)
 1ba:	0100                	addi	s0,sp,128
 1bc:	10090103          	lb	sp,256(s2)
 1c0:	0100                	addi	s0,sp,128
 1c2:	20090203          	lb	tp,512(s2)
 1c6:	0100                	addi	s0,sp,128
 1c8:	1c090203          	lb	tp,448(s2)
 1cc:	0100                	addi	s0,sp,128
 1ce:	10090203          	lb	tp,256(s2)
 1d2:	0100                	addi	s0,sp,128
 1d4:	10090303          	lb	t1,256(s2)
 1d8:	0100                	addi	s0,sp,128
 1da:	20090103          	lb	sp,512(s2)
 1de:	0100                	addi	s0,sp,128
 1e0:	04090103          	lb	sp,64(s2)
 1e4:	0100                	addi	s0,sp,128
 1e6:	10090103          	lb	sp,256(s2)
 1ea:	0100                	addi	s0,sp,128
 1ec:	20090203          	lb	tp,512(s2)
 1f0:	0100                	addi	s0,sp,128
 1f2:	1c090103          	lb	sp,448(s2)
 1f6:	0100                	addi	s0,sp,128
 1f8:	0c090103          	lb	sp,192(s2)
 1fc:	0100                	addi	s0,sp,128
 1fe:	10092703          	lw	a4,256(s2)
 202:	0100                	addi	s0,sp,128
 204:	18090103          	lb	sp,384(s2)
 208:	0100                	addi	s0,sp,128
 20a:	1c090103          	lb	sp,448(s2)
 20e:	0100                	addi	s0,sp,128
 210:	14090203          	lb	tp,320(s2)
 214:	0100                	addi	s0,sp,128
 216:	10090103          	lb	sp,256(s2)
 21a:	0100                	addi	s0,sp,128
 21c:	20090103          	lb	sp,512(s2)
 220:	0100                	addi	s0,sp,128
 222:	18090103          	lb	sp,384(s2)
 226:	0100                	addi	s0,sp,128
 228:	10090103          	lb	sp,256(s2)
 22c:	0100                	addi	s0,sp,128
 22e:	10090103          	lb	sp,256(s2)
 232:	0100                	addi	s0,sp,128
 234:	10090803          	lb	a6,256(s2)
 238:	0100                	addi	s0,sp,128
 23a:	14090403          	lb	s0,320(s2)
 23e:	0100                	addi	s0,sp,128
 240:	10090103          	lb	sp,256(s2)
 244:	0100                	addi	s0,sp,128
 246:	04090103          	lb	sp,64(s2)
 24a:	0100                	addi	s0,sp,128
 24c:	14090103          	lb	sp,320(s2)
 250:	0100                	addi	s0,sp,128
 252:	04090103          	lb	sp,64(s2)
 256:	0100                	addi	s0,sp,128
 258:	14090303          	lb	t1,320(s2)
 25c:	0100                	addi	s0,sp,128
 25e:	18090603          	lb	a2,384(s2)
 262:	0100                	addi	s0,sp,128
 264:	0c090103          	lb	sp,192(s2)
 268:	0100                	addi	s0,sp,128
 26a:	10097f03          	0x10097f03
 26e:	0100                	addi	s0,sp,128
 270:	04090203          	lb	tp,64(s2)
 274:	0100                	addi	s0,sp,128
 276:	04090303          	lb	t1,64(s2)
 27a:	0100                	addi	s0,sp,128
 27c:	14090103          	lb	sp,320(s2)
 280:	0100                	addi	s0,sp,128
 282:	14090403          	lb	s0,320(s2)
 286:	0100                	addi	s0,sp,128
 288:	14090103          	lb	sp,320(s2)
 28c:	0100                	addi	s0,sp,128
 28e:	0200                	addi	s0,sp,256
 290:	0204                	addi	s1,sp,256
 292:	04090103          	lb	sp,64(s2)
 296:	0100                	addi	s0,sp,128
 298:	0200                	addi	s0,sp,256
 29a:	0204                	addi	s1,sp,256
 29c:	10097f03          	0x10097f03
 2a0:	0100                	addi	s0,sp,128
 2a2:	0200                	addi	s0,sp,256
 2a4:	0104                	addi	s1,sp,128
 2a6:	0306                	slli	t1,t1,0x1
 2a8:	0900                	addi	s0,sp,144
 2aa:	000c                	0xc
 2ac:	0601                	addi	a2,a2,0
 2ae:	0c090203          	lb	tp,192(s2)
 2b2:	0100                	addi	s0,sp,128
 2b4:	14090403          	lb	s0,320(s2)
 2b8:	0100                	addi	s0,sp,128
 2ba:	10090103          	lb	sp,256(s2)
 2be:	0100                	addi	s0,sp,128
 2c0:	04090103          	lb	sp,64(s2)
 2c4:	0100                	addi	s0,sp,128
 2c6:	14090103          	lb	sp,320(s2)
 2ca:	0100                	addi	s0,sp,128
 2cc:	0c090103          	lb	sp,192(s2)
 2d0:	0100                	addi	s0,sp,128
 2d2:	14090403          	lb	s0,320(s2)
 2d6:	0100                	addi	s0,sp,128
 2d8:	10090103          	lb	sp,256(s2)
 2dc:	0100                	addi	s0,sp,128
 2de:	0200                	addi	s0,sp,256
 2e0:	0104                	addi	s1,sp,128
 2e2:	0306                	slli	t1,t1,0x1
 2e4:	0900                	addi	s0,sp,144
 2e6:	0004                	0x4
 2e8:	0601                	addi	a2,a2,0
 2ea:	0c090103          	lb	sp,192(s2)
 2ee:	0100                	addi	s0,sp,128
 2f0:	10090103          	lb	sp,256(s2)
 2f4:	0100                	addi	s0,sp,128
 2f6:	0902a303          	lw	t1,144(t0)
 2fa:	0014                	0x14
 2fc:	0301                	addi	t1,t1,0
 2fe:	0902                	slli	s2,s2,0x0
 300:	0030                	addi	a2,sp,8
 302:	0301                	addi	t1,t1,0
 304:	0901                	addi	s2,s2,0
 306:	0010                	0x10
 308:	0301                	addi	t1,t1,0
 30a:	0901                	addi	s2,s2,0
 30c:	0010                	0x10
 30e:	0301                	addi	t1,t1,0
 310:	0901                	addi	s2,s2,0
 312:	0010                	0x10
 314:	0301                	addi	t1,t1,0
 316:	0901                	addi	s2,s2,0
 318:	0010                	0x10
 31a:	0301                	addi	t1,t1,0
 31c:	0901                	addi	s2,s2,0
 31e:	0010                	0x10
 320:	0301                	addi	t1,t1,0
 322:	0901                	addi	s2,s2,0
 324:	0010                	0x10
 326:	0301                	addi	t1,t1,0
 328:	0901                	addi	s2,s2,0
 32a:	0010                	0x10
 32c:	0301                	addi	t1,t1,0
 32e:	0901                	addi	s2,s2,0
 330:	0010                	0x10
 332:	0301                	addi	t1,t1,0
 334:	0901                	addi	s2,s2,0
 336:	000c                	0xc
 338:	0001                	nop
 33a:	0402                	slli	s0,s0,0x0
 33c:	09020303          	lb	t1,144(tp) # ffffffffffff8090 <__global_pointer$+0xffffffff3fff48e0>
 340:	0008                	0x8
 342:	0001                	nop
 344:	0402                	slli	s0,s0,0x0
 346:	097e0303          	lb	t1,151(t3) # 19097 <_tbss_end+0x19093>
 34a:	0028                	addi	a0,sp,8
 34c:	0001                	nop
 34e:	0402                	slli	s0,s0,0x0
 350:	0601                	addi	a2,a2,0
 352:	0c090003          	lb	zero,192(s2)
 356:	0100                	addi	s0,sp,128
 358:	0306                	slli	t1,t1,0x1
 35a:	0906                	slli	s2,s2,0x1
 35c:	0010                	0x10
 35e:	0301                	addi	t1,t1,0
 360:	0905                	addi	s2,s2,1
 362:	0014                	0x14
 364:	0301                	addi	t1,t1,0
 366:	0901                	addi	s2,s2,0
 368:	0020                	addi	s0,sp,8
 36a:	0301                	addi	t1,t1,0
 36c:	0901                	addi	s2,s2,0
 36e:	0008                	0x8
 370:	0301                	addi	t1,t1,0
 372:	0901                	addi	s2,s2,0
 374:	0008                	0x8
 376:	0001                	nop
 378:	0402                	slli	s0,s0,0x0
 37a:	00030603          	lb	a2,0(t1)
 37e:	0809                	addi	a6,a6,2
 380:	0100                	addi	s0,sp,128
 382:	0200                	addi	s0,sp,256
 384:	0104                	addi	s1,sp,128
 386:	0c090003          	lb	zero,192(s2)
 38a:	0100                	addi	s0,sp,128
 38c:	0200                	addi	s0,sp,256
 38e:	0204                	addi	s1,sp,256
 390:	0306                	slli	t1,t1,0x1
 392:	097f                	0x97f
 394:	0014                	0x14
 396:	0001                	nop
 398:	0402                	slli	s0,s0,0x0
 39a:	0601                	addi	a2,a2,0
 39c:	0c090003          	lb	zero,192(s2)
 3a0:	0100                	addi	s0,sp,128
 3a2:	0306                	slli	t1,t1,0x1
 3a4:	00140903          	lb	s2,1(s0) # fffffffffffe2001 <__global_pointer$+0xffffffff3ffde851>
 3a8:	0301                	addi	t1,t1,0
 3aa:	0904                	addi	s1,sp,144
 3ac:	0010                	0x10
 3ae:	0301                	addi	t1,t1,0
 3b0:	0901                	addi	s2,s2,0
 3b2:	0010                	0x10
 3b4:	0301                	addi	t1,t1,0
 3b6:	0901                	addi	s2,s2,0
 3b8:	0010                	0x10
 3ba:	0301                	addi	t1,t1,0
 3bc:	0901                	addi	s2,s2,0
 3be:	000c                	0xc
 3c0:	0301                	addi	t1,t1,0
 3c2:	0904                	addi	s1,sp,144
 3c4:	0014                	0x14
 3c6:	0301                	addi	t1,t1,0
 3c8:	0901                	addi	s2,s2,0
 3ca:	0010                	0x10
 3cc:	0301                	addi	t1,t1,0
 3ce:	0901                	addi	s2,s2,0
 3d0:	0010                	0x10
 3d2:	0301                	addi	t1,t1,0
 3d4:	0901                	addi	s2,s2,0
 3d6:	000c                	0xc
 3d8:	0301                	addi	t1,t1,0
 3da:	0904                	addi	s1,sp,144
 3dc:	0014                	0x14
 3de:	0301                	addi	t1,t1,0
 3e0:	0901                	addi	s2,s2,0
 3e2:	0010                	0x10
 3e4:	0301                	addi	t1,t1,0
 3e6:	0901                	addi	s2,s2,0
 3e8:	0010                	0x10
 3ea:	0301                	addi	t1,t1,0
 3ec:	0901                	addi	s2,s2,0
 3ee:	000c                	0xc
 3f0:	0301                	addi	t1,t1,0
 3f2:	0904                	addi	s1,sp,144
 3f4:	0014                	0x14
 3f6:	0301                	addi	t1,t1,0
 3f8:	0901                	addi	s2,s2,0
 3fa:	0010                	0x10
 3fc:	0301                	addi	t1,t1,0
 3fe:	0901                	addi	s2,s2,0
 400:	0010                	0x10
 402:	0301                	addi	t1,t1,0
 404:	0901                	addi	s2,s2,0
 406:	000c                	0xc
 408:	0301                	addi	t1,t1,0
 40a:	0904                	addi	s1,sp,144
 40c:	0014                	0x14
 40e:	0301                	addi	t1,t1,0
 410:	0901                	addi	s2,s2,0
 412:	0018                	0x18
 414:	0301                	addi	t1,t1,0
 416:	0901                	addi	s2,s2,0
 418:	0018                	0x18
 41a:	0301                	addi	t1,t1,0
 41c:	0901                	addi	s2,s2,0
 41e:	000c                	0xc
 420:	0301                	addi	t1,t1,0
 422:	00140903          	lb	s2,1(s0)
 426:	0301                	addi	t1,t1,0
 428:	0901                	addi	s2,s2,0
 42a:	0010                	0x10
 42c:	0301                	addi	t1,t1,0
 42e:	0902                	slli	s2,s2,0x0
 430:	000c                	0xc
 432:	0301                	addi	t1,t1,0
 434:	0901                	addi	s2,s2,0
 436:	0010                	0x10
 438:	0301                	addi	t1,t1,0
 43a:	0901                	addi	s2,s2,0
 43c:	000c                	0xc
 43e:	0301                	addi	t1,t1,0
 440:	0901                	addi	s2,s2,0
 442:	0008                	0x8
 444:	0301                	addi	t1,t1,0
 446:	0901                	addi	s2,s2,0
 448:	000c                	0xc
 44a:	0301                	addi	t1,t1,0
 44c:	0901                	addi	s2,s2,0
 44e:	0010                	0x10
 450:	0301                	addi	t1,t1,0
 452:	0901                	addi	s2,s2,0
 454:	000c                	0xc
 456:	0301                	addi	t1,t1,0
 458:	0901                	addi	s2,s2,0
 45a:	000c                	0xc
 45c:	0301                	addi	t1,t1,0
 45e:	00140903          	lb	s2,1(s0)
 462:	0301                	addi	t1,t1,0
 464:	0901                	addi	s2,s2,0
 466:	0010                	0x10
 468:	0301                	addi	t1,t1,0
 46a:	0901                	addi	s2,s2,0
 46c:	0010                	0x10
 46e:	0301                	addi	t1,t1,0
 470:	0901                	addi	s2,s2,0
 472:	000c                	0xc
 474:	0301                	addi	t1,t1,0
 476:	090e                	slli	s2,s2,0x3
 478:	0014                	0x14
 47a:	0301                	addi	t1,t1,0
 47c:	0901                	addi	s2,s2,0
 47e:	000c                	0xc
 480:	0301                	addi	t1,t1,0
 482:	0034090f          	0x34090f
 486:	0301                	addi	t1,t1,0
 488:	0901                	addi	s2,s2,0
 48a:	0004                	0x4
 48c:	0301                	addi	t1,t1,0
 48e:	00100903          	lb	s2,1(zero) # 1 <_tdata_begin+0x1>
 492:	0301                	addi	t1,t1,0
 494:	0901                	addi	s2,s2,0
 496:	0014                	0x14
 498:	0301                	addi	t1,t1,0
 49a:	0901                	addi	s2,s2,0
 49c:	0004                	0x4
 49e:	0301                	addi	t1,t1,0
 4a0:	0902                	slli	s2,s2,0x0
 4a2:	0004                	0x4
 4a4:	0301                	addi	t1,t1,0
 4a6:	0901                	addi	s2,s2,0
 4a8:	0008                	0x8
 4aa:	0001                	nop
 4ac:	0402                	slli	s0,s0,0x0
 4ae:	0601                	addi	a2,a2,0
 4b0:	04090003          	lb	zero,64(s2)
 4b4:	0100                	addi	s0,sp,128
 4b6:	0306                	slli	t1,t1,0x1
 4b8:	097d                	addi	s2,s2,31
 4ba:	0010                	0x10
 4bc:	0301                	addi	t1,t1,0
 4be:	00100907          	0x100907
 4c2:	0301                	addi	t1,t1,0
 4c4:	00100903          	lb	s2,1(zero) # 1 <_tdata_begin+0x1>
 4c8:	0301                	addi	t1,t1,0
 4ca:	0906                	slli	s2,s2,0x1
 4cc:	0010                	0x10
 4ce:	0301                	addi	t1,t1,0
 4d0:	0909                	addi	s2,s2,2
 4d2:	000c                	0xc
 4d4:	0301                	addi	t1,t1,0
 4d6:	0901                	addi	s2,s2,0
 4d8:	0010                	0x10
 4da:	0301                	addi	t1,t1,0
 4dc:	0901                	addi	s2,s2,0
 4de:	000c                	0xc
 4e0:	0301                	addi	t1,t1,0
 4e2:	0901                	addi	s2,s2,0
 4e4:	0010                	0x10
 4e6:	0301                	addi	t1,t1,0
 4e8:	0901                	addi	s2,s2,0
 4ea:	000c                	0xc
 4ec:	0301                	addi	t1,t1,0
 4ee:	0901                	addi	s2,s2,0
 4f0:	0010                	0x10
 4f2:	0301                	addi	t1,t1,0
 4f4:	0901                	addi	s2,s2,0
 4f6:	000c                	0xc
 4f8:	0301                	addi	t1,t1,0
 4fa:	0901                	addi	s2,s2,0
 4fc:	0010                	0x10
 4fe:	0301                	addi	t1,t1,0
 500:	0901                	addi	s2,s2,0
 502:	000c                	0xc
 504:	0301                	addi	t1,t1,0
 506:	0901                	addi	s2,s2,0
 508:	0010                	0x10
 50a:	0301                	addi	t1,t1,0
 50c:	0904                	addi	s1,sp,144
 50e:	000c                	0xc
 510:	0901                	addi	s2,s2,0
 512:	0014                	0x14
 514:	0100                	addi	s0,sp,128
 516:	01              	Address 0x0000000000000516 is out of bounds.


Disassembly of section .debug_str:

0000000000000000 <.debug_str>:
   0:	645f 6f73 685f      	0x685f6f73645f
   6:	6e61                	lui	t3,0x18
   8:	6c64                	ld	s1,216(s0)
   a:	0065                	c.addi	zero,25
   c:	31746e43          	fmadd.s	ft8,fs0,fs7,ft6,unknown
  10:	5f00                	lw	s0,56(a4)
  12:	657a6973          	csrrsi	s2,0x657,20
  16:	5f00                	lw	s0,56(a4)
  18:	6172                	ld	sp,280(sp)
  1a:	646e                	ld	s0,216(sp)
  1c:	3834                	fld	fa3,112(s0)
  1e:	7000                	ld	s0,32(s0)
  20:	616c                	ld	a1,192(a0)
  22:	4679                	li	a2,30
  24:	7269                	lui	tp,0xffffa
  26:	5f007473          	csrrci	s0,0x5f0,0
  2a:	6d65                	lui	s10,0x19
  2c:	7265                	lui	tp,0xffff9
  2e:	636e6567          	0x636e6567
  32:	0079                	c.addi	zero,30
  34:	5f5f 6975 746e      	0x746e69755f5f
  3a:	5f38                	lw	a4,120(a4)
  3c:	0074                	addi	a3,sp,12
  3e:	6c70                	ld	a2,216(s0)
  40:	7961                	lui	s2,0xffff8
  42:	7250                	ld	a2,160(a2)
  44:	7665                	lui	a2,0xffff9
  46:	6f69                	lui	t5,0x1a
  48:	7375                	lui	t1,0xffffd
  4a:	5f00                	lw	s0,56(a4)
  4c:	6164                	ld	s1,192(a0)
  4e:	6174                	ld	a3,192(a0)
  50:	5f00                	lw	s0,56(a4)
  52:	74726377          	0x74726377
  56:	5f626d6f          	jal	s10,2664c <_tbss_end+0x26648>
  5a:	74617473          	csrrci	s0,0x746,2
  5e:	0065                	c.addi	zero,25
  60:	775f 7363 7472      	0x74727363775f
  66:	73626d6f          	jal	s10,2679c <_tbss_end+0x26798>
  6a:	735f 6174 6574      	0x65746174735f
  70:	6c00                	ld	s0,24(s0)
  72:	20676e6f          	jal	t3,76278 <_tbss_end+0x76274>
  76:	6f6c                	ld	a1,216(a4)
  78:	676e                	ld	a4,216(sp)
  7a:	7520                	ld	s0,104(a0)
  7c:	736e                	ld	t1,248(sp)
  7e:	6769                	lui	a4,0x1a
  80:	656e                	ld	a0,216(sp)
  82:	2064                	fld	fs1,192(s0)
  84:	6e69                	lui	t3,0x1a
  86:	0074                	addi	a3,sp,12
  88:	6c5f 6662 6973      	0x697366626c5f
  8e:	657a                	ld	a0,408(sp)
  90:	5f00                	lw	s0,56(a4)
  92:	6c5f 636f 6c61      	0x6c61636f6c5f
  98:	5f65                	li	t5,-7
  9a:	0074                	addi	a3,sp,12
  9c:	6574                	ld	a3,200(a0)
  9e:	706d                	0x706d
  a0:	72746e43          	fmadd.d	ft8,fs0,ft7,fa4,unknown
  a4:	6400                	ld	s0,8(s0)
  a6:	6c65                	lui	s8,0x19
  a8:	7961                	lui	s2,0xffff8
  aa:	5f00                	lw	s0,56(a4)
  ac:	626d                	lui	tp,0x1b
  ae:	7472                	ld	s0,312(sp)
  b0:	5f63776f          	jal	a4,376a6 <_tbss_end+0x376a2>
  b4:	74617473          	csrrci	s0,0x746,2
  b8:	0065                	c.addi	zero,25
  ba:	6155                	addi	sp,sp,304
  bc:	7472                	ld	s0,312(sp)
  be:	6552                	ld	a0,272(sp)
  c0:	76696563          	bltu	s2,t1,82a <_tbss_end+0x826>
  c4:	4365                	li	t1,25
  c6:	6168                	ld	a0,192(a0)
  c8:	6172                	ld	sp,280(sp)
  ca:	72657463          	bleu	t1,a0,7f2 <_tbss_end+0x7ee>
  ce:	5f00                	lw	s0,56(a4)
  d0:	6f746377          	0x6f746377
  d4:	626d                	lui	tp,0x1b
  d6:	735f 6174 6574      	0x65746174735f
  dc:	5f00                	lw	s0,56(a4)
  de:	745f 5f6d 6573      	0x65735f6d745f
  e4:	6f6c0063          	beq	s8,s6,7c4 <_tbss_end+0x7c0>
  e8:	676e                	ld	a4,216(sp)
  ea:	6c20                	ld	s0,88(s0)
  ec:	20676e6f          	jal	t3,762f2 <_tbss_end+0x762ee>
  f0:	6e69                	lui	t3,0x1a
  f2:	0074                	addi	a3,sp,12
  f4:	755f 7562 0066      	0x667562755f
  fa:	625f 7361 0065      	0x657361625f
 100:	5f5f 6d74 685f      	0x685f6d745f5f
 106:	0072756f          	jal	a0,2790c <_tbss_end+0x27908>
 10a:	5f5f 6673 5f00      	0x5f0066735f5f
 110:	655f6e6f          	jal	t3,f6f64 <_tbss_end+0xf6f60>
 114:	6978                	ld	a4,208(a0)
 116:	5f74                	lw	a3,124(a4)
 118:	7261                	lui	tp,0xffff8
 11a:	73007367          	0x73007367
 11e:	7465                	lui	s0,0xffff9
 120:	6f56                	ld	t5,336(sp)
 122:	756c                	ld	a1,232(a0)
 124:	656d                	lui	a0,0x1b
 126:	5f00                	lw	s0,56(a4)
 128:	6b6f6f63          	bltu	t5,s6,7e6 <_tbss_end+0x7e2>
 12c:	6569                	lui	a0,0x1a
 12e:	5f00                	lw	s0,56(a4)
 130:	735f 6c67 6575      	0x65756c67735f
 136:	5700                	lw	s0,40(a4)
 138:	6972                	ld	s2,280(sp)
 13a:	6574                	ld	a3,200(a0)
 13c:	6e49                	lui	t3,0x12
 13e:	6f74                	ld	a3,216(a4)
 140:	6155                	addi	sp,sp,304
 142:	7472                	ld	s0,312(sp)
 144:	5f00                	lw	s0,56(a4)
 146:	6c66                	ld	s8,88(sp)
 148:	6761                	lui	a4,0x18
 14a:	695f0073          	0x695f0073
 14e:	78635f73          	csrrwi	t5,0x786,6
 152:	0061                	c.addi	zero,24
 154:	20554e47          	fmsub.s	ft8,fa0,ft5,ft4,rmm
 158:	20393943          	fmadd.s	fs2,fs2,ft3,ft4,rup
 15c:	2e322e37          	lui	t3,0x2e322
 160:	2030                	fld	fa2,64(s0)
 162:	6d2d                	lui	s10,0xb
 164:	646f6d63          	bltu	t5,t1,7be <_tbss_end+0x7ba>
 168:	6c65                	lui	s8,0x19
 16a:	6d3d                	lui	s10,0xf
 16c:	6465                	lui	s0,0x19
 16e:	6e61                	lui	t3,0x18
 170:	2079                	0x2079
 172:	6d2d                	lui	s10,0xb
 174:	7261                	lui	tp,0xffff8
 176:	723d6863          	bltu	s10,gp,8a6 <_tbss_end+0x8a2>
 17a:	3676                	fld	fa2,376(sp)
 17c:	6934                	ld	a3,80(a0)
 17e:	616d                	addi	sp,sp,240
 180:	6466                	ld	s0,88(sp)
 182:	2d20                	fld	fs0,88(a0)
 184:	616d                	addi	sp,sp,240
 186:	6962                	ld	s2,24(sp)
 188:	6c3d                	lui	s8,0xf
 18a:	3670                	fld	fa2,232(a2)
 18c:	6434                	ld	a3,72(s0)
 18e:	2d20                	fld	fs0,88(a0)
 190:	732d2067          	0x732d2067
 194:	6474                	ld	a3,200(s0)
 196:	673d                	lui	a4,0xf
 198:	756e                	ld	a0,248(sp)
 19a:	3939                	addiw	s2,s2,-18
 19c:	2d20                	fld	fs0,88(a0)
 19e:	6e66                	ld	t3,88(sp)
 1a0:	75622d6f          	jal	s10,228f6 <_tbss_end+0x228f2>
 1a4:	6c69                	lui	s8,0x1a
 1a6:	6974                	ld	a3,208(a0)
 1a8:	2d6e                	fld	fs10,216(sp)
 1aa:	7270                	ld	a2,224(a2)
 1ac:	6e69                	lui	t3,0x1a
 1ae:	6674                	ld	a3,200(a2)
 1b0:	7300                	ld	s0,32(a4)
 1b2:	6e65                	lui	t3,0x19
 1b4:	4364                	lw	s1,68(a4)
 1b6:	616d6d6f          	jal	s10,d67cc <_tbss_end+0xd67c8>
 1ba:	646e                	ld	s0,216(sp)
 1bc:	5f00                	lw	s0,56(a4)
 1be:	6c62                	ld	s8,24(sp)
 1c0:	7a69736b          	0x7a69736b
 1c4:	0065                	c.addi	zero,25
 1c6:	635f 7476 7562      	0x75627476635f
 1cc:	0066                	0x66
 1ce:	6f5f 6666 6573      	0x657366666f5f
 1d4:	0074                	addi	a3,sp,12
 1d6:	6d5f 7362 7472      	0x747273626d5f
 1dc:	7363776f          	jal	a4,37912 <_tbss_end+0x3790e>
 1e0:	735f 6174 6574      	0x65746174735f
 1e6:	5f00                	lw	s0,56(a4)
 1e8:	626d                	lui	tp,0x1b
 1ea:	6c72                	ld	s8,280(sp)
 1ec:	6e65                	lui	t3,0x19
 1ee:	735f 6174 6574      	0x65746174735f
 1f4:	5f00                	lw	s0,56(a4)
 1f6:	6e66                	ld	t3,88(sp)
 1f8:	7261                	lui	tp,0xffff8
 1fa:	63007367          	0x63007367
 1fe:	746e                	ld	s0,248(sp)
 200:	3172                	fld	ft2,312(sp)
 202:	5f00                	lw	s0,56(a4)
 204:	6e66                	ld	t3,88(sp)
 206:	6e630073          	0x6e630073
 20a:	7274                	ld	a3,224(a2)
 20c:	0032                	0x32
 20e:	6552                	ld	a0,272(sp)
 210:	6461                	lui	s0,0x18
 212:	7246                	ld	tp,112(sp)
 214:	61556d6f          	jal	s10,57028 <_tbss_end+0x57024>
 218:	7472                	ld	s0,312(sp)
 21a:	5f00                	lw	s0,56(a4)
 21c:	6e676973          	csrrsi	s2,0x6e6,14
 220:	7000                	ld	s0,32(s0)
 222:	7561                	lui	a0,0xffff8
 224:	6c506573          	csrrsi	a0,0x6c5,0
 228:	7961                	lui	s2,0xffff8
 22a:	6400                	ld	s0,8(s0)
 22c:	7461                	lui	s0,0xffff8
 22e:	0032                	0x32
 230:	665f 6f6c 6b63      	0x6b636f6c665f
 236:	745f 5f00 7473      	0x74735f00745f
 23c:	6564                	ld	s1,200(a0)
 23e:	7272                	ld	tp,312(sp)
 240:	5f00                	lw	s0,56(a4)
 242:	6942                	ld	s2,16(sp)
 244:	746e6967          	0x746e6967
 248:	5f00                	lw	s0,56(a4)
 24a:	6d6d6167          	0x6d6d6167
 24e:	5f61                	li	t5,-8
 250:	6e676973          	csrrsi	s2,0x6e6,14
 254:	006d6167          	0x6d6167
 258:	725f 6165 0064      	0x646165725f
 25e:	725f 7365 6c75      	0x6c757365725f
 264:	5f74                	lw	a3,124(a4)
 266:	5f5f006b          	0x5f5f006b
 26a:	6d74                	ld	a3,216(a0)
 26c:	5f00                	lw	s0,56(a4)
 26e:	775f 6863 0062      	0x626863775f
 274:	6155                	addi	sp,sp,304
 276:	7472                	ld	s0,312(sp)
 278:	7854                	ld	a3,176(s0)
 27a:	6552                	ld	a0,272(sp)
 27c:	6461                	lui	s0,0x18
 27e:	0079                	c.addi	zero,30
 280:	735f 6474 756f      	0x756f6474735f
 286:	0074                	addi	a3,sp,12
 288:	635f 7476 656c      	0x656c7476635f
 28e:	006e                	0x6e
 290:	665f 6c69 0065      	0x656c69665f
 296:	735f 6973 657a      	0x657a6973735f
 29c:	745f 5f00 696e      	0x696e5f00745f
 2a2:	0073626f          	jal	tp,36aa8 <_tbss_end+0x36aa4>
 2a6:	6572                	ld	a0,280(sp)
 2a8:	6461                	lui	s0,0x18
 2aa:	6441                	lui	s0,0x10
 2ac:	7264                	ld	s1,224(a2)
 2ae:	7365                	lui	t1,0xffff9
 2b0:	68730073          	0x68730073
 2b4:	2074726f          	jal	tp,47cba <_tbss_end+0x47cb6>
 2b8:	6e75                	lui	t3,0x1d
 2ba:	6e676973          	csrrsi	s2,0x6e6,14
 2be:	6465                	lui	s0,0x19
 2c0:	6920                	ld	s0,80(a0)
 2c2:	746e                	ld	s0,248(sp)
 2c4:	5300                	lw	s0,32(a4)
 2c6:	6f74                	ld	a3,216(a4)
 2c8:	5070                	lw	a2,100(s0)
 2ca:	616c                	ld	a1,192(a0)
 2cc:	0079                	c.addi	zero,30
 2ce:	615f 6574 6978      	0x69786574615f
 2d4:	3074                	fld	fa3,224(s0)
 2d6:	5f00                	lw	s0,56(a4)
 2d8:	6e676973          	csrrsi	s2,0x6e6,14
 2dc:	6c61                	lui	s8,0x18
 2de:	625f 6675 5f00      	0x5f006675625f
 2e4:	7361                	lui	t1,0xffff8
 2e6:	6d697463          	bleu	s6,s2,9ae <_tbss_end+0x9aa>
 2ea:	5f65                	li	t5,-7
 2ec:	7562                	ld	a0,56(sp)
 2ee:	0066                	0x66
 2f0:	725f 7365 6c75      	0x6c757365725f
 2f6:	0074                	addi	a3,sp,12
 2f8:	5f5f 6377 0068      	0x6863775f5f
 2fe:	6e65                	lui	t3,0x19
 300:	6976                	ld	s2,344(sp)
 302:	6f72                	ld	t5,280(sp)
 304:	006e                	0x6e
 306:	746e6977          	0x746e6977
 30a:	745f 5f00 6f6c      	0x6f6c5f00745f
 310:	55006b63          	bltu	zero,a6,866 <_tbss_end+0x862>
 314:	7261                	lui	tp,0xffff8
 316:	4374                	lw	a3,68(a4)
 318:	6568                	ld	a0,200(a0)
 31a:	65526b63          	bltu	tp,s5,970 <_tbss_end+0x96c>
 31e:	76696563          	bltu	s2,t1,a88 <_tbss_end+0xa84>
 322:	5265                	li	tp,-7
 324:	6165                	addi	sp,sp,112
 326:	7964                	ld	s1,240(a0)
 328:	5f00                	lw	s0,56(a4)
 32a:	6c66                	ld	s8,88(sp)
 32c:	6761                	lui	a4,0x18
 32e:	6f003273          	csrrc	tp,0x6f0,zero
 332:	7470                	ld	a2,232(s0)
 334:	6572                	ld	a0,280(sp)
 336:	00746573          	csrrsi	a0,0x7,8
 33a:	775f 6972 6574      	0x65746972775f
 340:	5f00                	lw	s0,56(a4)
 342:	745f 5f6d 6579      	0x65795f6d745f
 348:	7261                	lui	tp,0xffff8
 34a:	7400                	ld	s0,40(s0)
 34c:	5f78                	lw	a4,124(a4)
 34e:	6d65                	lui	s10,0x19
 350:	7470                	ld	a2,232(s0)
 352:	0079                	c.addi	zero,30
 354:	6e5f 616d 6c6c      	0x6c6c616d6e5f
 35a:	7700636f          	jal	t1,6aca <_tbss_end+0x6ac6>
 35e:	6972                	ld	s2,280(sp)
 360:	6574                	ld	a3,200(a0)
 362:	6144                	ld	s1,128(a0)
 364:	6174                	ld	a3,192(a0)
 366:	6f00                	ld	s0,24(a4)
 368:	7470                	ld	a2,232(s0)
 36a:	6e69                	lui	t3,0x1a
 36c:	0064                	addi	s1,sp,12
 36e:	6155                	addi	sp,sp,304
 370:	7472                	ld	s0,312(sp)
 372:	4930                	lw	a2,80(a0)
 374:	696e                	ld	s2,216(sp)
 376:	4274                	lw	a3,68(a2)
 378:	5f006d63          	bltu	zero,a6,972 <_tbss_end+0x96e>
 37c:	656e                	ld	a0,216(sp)
 37e:	7478                	ld	a4,232(s0)
 380:	0066                	0x66
 382:	6544                	ld	s1,136(a0)
 384:	616c                	ld	a1,192(a0)
 386:	0079                	c.addi	zero,30
 388:	5f5f 6d74 6d5f      	0x6d5f6d745f5f
 38e:	5f006e6f          	jal	t3,697e <_tbss_end+0x697a>
 392:	7461                	lui	s0,0xffff8
 394:	7865                	lui	a6,0xffff9
 396:	7469                	lui	s0,0xffffa
 398:	7300                	ld	s0,32(a4)
 39a:	6275                	lui	tp,0x1d
 39c:	6174706f          	j	481b2 <_tbss_end+0x481ae>
 3a0:	6772                	ld	a4,280(sp)
 3a2:	5f00                	lw	s0,56(a4)
 3a4:	735f 6964 6964      	0x69646964735f
 3aa:	696e                	ld	s2,216(sp)
 3ac:	0074                	addi	a3,sp,12
 3ae:	6f5f 6666 745f      	0x745f66666f5f
 3b4:	4300                	lw	s0,0(a4)
 3b6:	746e                	ld	s0,248(sp)
 3b8:	0032                	0x32
 3ba:	6155                	addi	sp,sp,304
 3bc:	7472                	ld	s0,312(sp)
 3be:	4931                	li	s2,12
 3c0:	696e                	ld	s2,216(sp)
 3c2:	0074                	addi	a3,sp,12
 3c4:	5366666f          	jal	a2,668fa <_tbss_end+0x668f6>
 3c8:	7465                	lui	s0,0xffff9
 3ca:	5f00                	lw	s0,56(a4)
 3cc:	7266                	ld	tp,120(sp)
 3ce:	6565                	lui	a0,0x19
 3d0:	696c                	ld	a1,208(a0)
 3d2:	5f007473          	csrrci	s0,0x5f0,0
 3d6:	4f4c                	lw	a1,28(a4)
 3d8:	525f4b43          	fmadd.d	fs6,ft10,ft5,fa0,rmm
 3dc:	4345                	li	t1,17
 3de:	5255                	li	tp,-11
 3e0:	45564953          	0x45564953
 3e4:	545f 7000 616c      	0x616c7000545f
 3ea:	0079                	c.addi	zero,30
 3ec:	2f2e                	fld	ft10,200(sp)
 3ee:	4155                	li	sp,21
 3f0:	5452                	lw	s0,52(sp)
 3f2:	2f31                	addiw	t5,t5,12
 3f4:	7261752f          	0x7261752f
 3f8:	3074                	fld	fa3,224(s0)
 3fa:	6362                	ld	t1,24(sp)
 3fc:	2e6d                	addiw	t3,t3,27
 3fe:	6e750063          	beq	a0,t2,ade <_tbss_end+0xada>
 402:	6e676973          	csrrsi	s2,0x6e6,14
 406:	6465                	lui	s0,0x19
 408:	6320                	ld	s0,64(a4)
 40a:	6168                	ld	a0,192(a0)
 40c:	0072                	0x72
 40e:	6e5f 7765 2f00      	0x2f0077656e5f
 414:	6f68                	ld	a0,216(a4)
 416:	656d                	lui	a0,0x1b
 418:	7369722f          	0x7369722f
 41c:	6365                	lui	t1,0x19
 41e:	6572                	ld	a0,280(sp)
 420:	6b65                	lui	s6,0x19
 422:	6573752f          	0x6573752f
 426:	7372                	ld	t1,312(sp)
 428:	746f6b2f          	0x746f6b2f
 42c:	6574                	ld	a3,200(a0)
 42e:	2f65                	addiw	t5,t5,25
 430:	5046                	0x5046
 432:	545f4147          	0x545f4147
 436:	7365                	lui	t1,0xffff9
 438:	7374                	ld	a3,224(a4)
 43a:	525f 7369 6365      	0x63657369525f
 440:	6572                	ld	a0,280(sp)
 442:	6b65                	lui	s6,0x19
 444:	525f 6d69 2f6f      	0x2f6f6d69525f
 44a:	6952                	ld	s2,272(sp)
 44c:	6f6d                	lui	t5,0x1b
 44e:	6d69722f          	0x6d69722f
 452:	7365546f          	jal	s0,55b88 <_tbss_end+0x55b84>
 456:	2f74                	fld	fa3,216(a4)
 458:	74666f73          	csrrsi	t5,0x746,12
 45c:	65726177          	0x65726177
 460:	5f00                	lw	s0,56(a4)
 462:	5f68                	lw	a0,124(a4)
 464:	7265                	lui	tp,0xffff9
 466:	6e72                	ld	t3,280(sp)
 468:	6873006f          	j	312ee <_tbss_end+0x312ea>
 46c:	2074726f          	jal	tp,47e72 <_tbss_end+0x47e6e>
 470:	6e69                	lui	t3,0x1a
 472:	0074                	addi	a3,sp,12
 474:	5f5f 6d74 795f      	0x795f6d745f5f
 47a:	6164                	ld	s1,192(a0)
 47c:	0079                	c.addi	zero,30
 47e:	5f5f 6273 6675      	0x667562735f5f
 484:	5f00                	lw	s0,56(a4)
 486:	6f69                	lui	t5,0x1a
 488:	7362                	ld	t1,56(sp)
 48a:	5f00                	lw	s0,56(a4)
 48c:	465f 4c49 0045      	0x454c49465f
 492:	6d5f 7362 6174      	0x617473626d5f
 498:	6574                	ld	a3,200(a0)
 49a:	745f 5f00 735f      	0x735f5f00745f
 4a0:	4946                	lw	s2,80(sp)
 4a2:	454c                	lw	a1,12(a0)
 4a4:	5f00                	lw	s0,56(a4)
 4a6:	626d                	lui	tp,0x1b
 4a8:	74617473          	csrrci	s0,0x746,2
 4ac:	0065                	c.addi	zero,25
 4ae:	725f 6e61 5f64      	0x5f646e61725f
 4b4:	656e                	ld	a0,216(sp)
 4b6:	7478                	ld	a4,232(s0)
 4b8:	5f00                	lw	s0,56(a4)
 4ba:	626d                	lui	tp,0x1b
 4bc:	656c                	ld	a1,200(a0)
 4be:	5f6e                	lw	t5,248(sp)
 4c0:	74617473          	csrrci	s0,0x746,2
 4c4:	0065                	c.addi	zero,25
 4c6:	695f 636e 5f00      	0x5f00636e695f
 4cc:	6e69                	lui	t3,0x1a
 4ce:	0064                	addi	s1,sp,12
 4d0:	6155                	addi	sp,sp,304
 4d2:	7472                	ld	s0,312(sp)
 4d4:	7254                	ld	a3,160(a2)
 4d6:	6e61                	lui	t3,0x18
 4d8:	74696d73          	csrrsi	s10,0x746,18
 4dc:	69727453          	0x69727453
 4e0:	676e                	ld	a4,216(sp)
 4e2:	5f00                	lw	s0,56(a4)
 4e4:	6f6c                	ld	a1,216(a4)
 4e6:	656c6163          	bltu	s8,s6,b28 <_tbss_end+0xb24>
 4ea:	5f00                	lw	s0,56(a4)
 4ec:	635f 656c 6e61      	0x6e61656c635f
 4f2:	7075                	0x7075
 4f4:	5f00                	lw	s0,56(a4)
 4f6:	6e75                	lui	t3,0x1d
 4f8:	63657073          	csrci	0x636,10
 4fc:	6669                	lui	a2,0x1a
 4fe:	6569                	lui	a0,0x1a
 500:	5f64                	lw	s1,124(a4)
 502:	6f6c                	ld	a1,216(a4)
 504:	656c6163          	bltu	s8,s6,b46 <_tbss_end+0xb42>
 508:	695f 666e 006f      	0x6f666e695f
 50e:	6d5f 7861 6477      	0x647778616d5f
 514:	725f0073          	0x725f0073
 518:	6565                	lui	a0,0x19
 51a:	746e                	ld	s0,248(sp)
 51c:	5f00                	lw	s0,56(a4)
 51e:	64656573          	csrrsi	a0,0x646,10
 522:	7500                	ld	s0,40(a0)
 524:	7261                	lui	tp,0xffff8
 526:	5374                	lw	a3,100(a4)
 528:	6c65                	lui	s8,0x19
 52a:	5f00                	lw	s0,56(a4)
 52c:	635f 756f 746e      	0x746e756f635f
 532:	5f00                	lw	s0,56(a4)
 534:	765f 6c61 6575      	0x65756c61765f
 53a:	5f00                	lw	s0,56(a4)
 53c:	6b656573          	csrrsi	a0,0x6b6,10
 540:	6200                	ld	s0,0(a2)
 542:	7561                	lui	a0,0xffff8
 544:	0064                	addi	s1,sp,12
 546:	646e6553          	0x646e6553
 54a:	625f 6675 5f00      	0x5f006675625f
 550:	7066                	0x7066
 552:	745f736f          	jal	t1,f8496 <_tbss_end+0xf8492>
 556:	7000                	ld	s0,32(s0)
 558:	616c                	ld	a1,192(a0)
 55a:	4e79                	li	t3,30
 55c:	7865                	lui	a6,0xffff9
 55e:	0074                	addi	a3,sp,12
 560:	5f5f 6d74 6d5f      	0x6d5f6d745f5f
 566:	6e69                	lui	t3,0x1a
 568:	5f00                	lw	s0,56(a4)
 56a:	755f 6e69 3174      	0x31746e69755f
 570:	5f36                	lw	t5,108(sp)
 572:	0074                	addi	a3,sp,12
 574:	6d6d6f63          	bltu	s10,s6,c52 <_tbss_end+0xc4e>
 578:	6e61                	lui	t3,0x18
 57a:	0064                	addi	s1,sp,12
 57c:	6572                	ld	a0,280(sp)
 57e:	6461                	lui	s0,0x18
 580:	6144                	ld	s1,128(a0)
 582:	6174                	ld	a3,192(a0)
 584:	6f00                	ld	s0,24(a4)
 586:	7470                	ld	a2,232(s0)
 588:	7265                	lui	tp,0xffff9
 58a:	0072                	0x72
 58c:	6d5f 6c75 0074      	0x746c756d5f
 592:	6155                	addi	sp,sp,304
 594:	7472                	ld	s0,312(sp)
 596:	7254                	ld	a3,160(a2)
 598:	6e61                	lui	t3,0x18
 59a:	74696d73          	csrrsi	s10,0x746,18
 59e:	72616843          	fmadd.d	fa6,ft2,ft6,fa4,unknown
 5a2:	6361                	lui	t1,0x18
 5a4:	6574                	ld	a3,200(a0)
 5a6:	0072                	0x72
 5a8:	735f 7274 6f74      	0x6f747274735f
 5ae:	616c5f6b          	0x616c5f6b
 5b2:	5f007473          	csrrci	s0,0x5f0,0
 5b6:	6e66                	ld	t3,88(sp)
 5b8:	7974                	ld	a3,240(a0)
 5ba:	6570                	ld	a2,200(a0)
 5bc:	72770073          	0x72770073
 5c0:	7469                	lui	s0,0xffffa
 5c2:	4165                	li	sp,25
 5c4:	6464                	ld	s1,200(s0)
 5c6:	6572                	ld	a0,280(sp)
 5c8:	5f007373          	csrrci	t1,0x5f0,0
 5cc:	6461                	lui	s0,0x18
 5ce:	0064                	addi	s1,sp,12
 5d0:	5f5f 4c55 6e6f      	0x6e6f4c555f5f
 5d6:	675f0067          	jr	1653(t5) # 1a675 <_tbss_end+0x1a671>
 5da:	7465                	lui	s0,0xffff9
 5dc:	6164                	ld	s1,192(a0)
 5de:	6574                	ld	a3,200(a0)
 5e0:	655f 7272 5f00      	0x5f007272655f
 5e6:	626f6c67          	0x626f6c67
 5ea:	6c61                	lui	s8,0x18
 5ec:	695f 706d 7275      	0x7275706d695f
 5f2:	5f65                	li	t5,-7
 5f4:	7470                	ld	a2,232(s0)
 5f6:	0072                	0x72
 5f8:	755f 756e 6573      	0x6573756e755f
 5fe:	5f64                	lw	s1,124(a4)
 600:	6172                	ld	sp,280(sp)
 602:	646e                	ld	s0,216(sp)
 604:	7300                	ld	s0,32(a4)
 606:	6174                	ld	a3,192(a0)
 608:	7574                	ld	a3,232(a0)
 60a:	775f0073          	0x775f0073
 60e:	7364                	ld	s1,224(a4)
 610:	5f00                	lw	s0,56(a4)
 612:	745f 5f6d 6477      	0x64775f6d745f
 618:	7961                	lui	s2,0xffff8
 61a:	5f00                	lw	s0,56(a4)
 61c:	65756c67          	0x65756c67
 620:	5f00                	lw	s0,56(a4)
 622:	69647473          	csrrci	s0,0x696,8
 626:	006e                	0x6e
 628:	6c5f 3436 5f61      	0x5f6134366c5f
 62e:	7562                	ld	a0,56(sp)
 630:	0066                	0x66
 632:	735f 6769 665f      	0x665f6769735f
 638:	6e75                	lui	t3,0x1d
 63a:	61640063          	beq	s0,s6,c3a <_tbss_end+0xc36>
 63e:	3174                	fld	fa3,224(a0)
 640:	5f00                	lw	s0,56(a4)
 642:	626e                	ld	tp,216(sp)
 644:	6675                	lui	a2,0x1d
 646:	5f00                	lw	s0,56(a4)
 648:	6e75                	lui	t3,0x1d
 64a:	7375                	lui	t1,0xffffd
 64c:	6465                	lui	s0,0x19
 64e:	7600                	ld	s0,40(a2)
 650:	6d756c6f          	jal	s8,57526 <_tbss_end+0x57522>
 654:	0065                	c.addi	zero,25
 656:	5f5f 6d74 695f      	0x695f6d745f5f
 65c:	74736473          	csrrsi	s0,0x747,6
 660:	5f00                	lw	s0,56(a4)
 662:	6f6c                	ld	a1,216(a4)
 664:	746c6163          	bltu	s8,t1,da6 <_tbss_end+0xda2>
 668:	6d69                	lui	s10,0x1a
 66a:	5f65                	li	t5,-7
 66c:	7562                	ld	a0,56(sp)
 66e:	0066                	0x66
 670:	635f 6f6c 6573      	0x65736f6c635f
 676:	5f00                	lw	s0,56(a4)
 678:	3472                	fld	fs0,312(sp)
 67a:	0038                	addi	a4,sp,8
 67c:	6f74706f          	j	48572 <_tbss_end+0x4856e>
 680:	7470                	ld	a2,232(s0)
 682:	5f00                	lw	s0,56(a4)
 684:	626d                	lui	tp,0x1b
 686:	6f74                	ld	a3,216(a4)
 688:	735f6377          	0x735f6377
 68c:	6174                	ld	a3,192(a0)
 68e:	6574                	ld	a3,200(a0)
 690:	5f00                	lw	s0,56(a4)
 692:	3570                	fld	fa2,232(a0)
 694:	616d0073          	0x616d0073
 698:	6e69                	lui	t3,0x1a
 69a:	6100                	ld	s0,0(a0)
 69c:	736e                	ld	t1,248(sp)
 69e:	7562                	ld	a0,56(sp)
 6a0:	0066                	0x66
 6a2:	5f5f 6d74 6d5f      	0x6d5f6d745f5f
 6a8:	6164                	ld	s1,192(a0)
 6aa:	0079                	c.addi	zero,30

Disassembly of section .comment:

0000000000000000 <.comment>:
   0:	3a434347          	fmsub.d	ft6,ft6,ft4,ft7,rmm
   4:	2820                	fld	fs0,80(s0)
   6:	29554e47          	fmsub.s	ft8,fa0,fs5,ft5,rmm
   a:	3720                	fld	fs0,104(a4)
   c:	322e                	fld	ft4,232(sp)
   e:	302e                	fld	ft0,232(sp)
	...

Disassembly of section .debug_frame:

0000000000000000 <.debug_frame>:
   0:	000c                	0xc
   2:	0000                	unimp
   4:	ffff                	0xffff
   6:	ffff                	0xffff
   8:	0001                	nop
   a:	7c01                	lui	s8,0xfffe0
   c:	0d01                	addi	s10,s10,0
   e:	0002                	0x2
  10:	0024                	addi	s1,sp,8
  12:	0000                	unimp
  14:	0000                	unimp
  16:	0000                	unimp
  18:	1048                	addi	a0,sp,36
  1a:	c000                	sw	s0,0(s0)
  1c:	0000                	unimp
  1e:	0000                	unimp
  20:	009c                	addi	a5,sp,64
  22:	0000                	unimp
  24:	0000                	unimp
  26:	0000                	unimp
  28:	0e44                	addi	s1,sp,788
  2a:	4430                	lw	a2,72(s0)
  2c:	0288                	addi	a0,sp,320
  2e:	0c44                	addi	s1,sp,532
  30:	0008                	0x8
  32:	8802                	jr	a6
  34:	44c8                	lw	a0,12(s1)
  36:	020d                	addi	tp,tp,3
  38:	0024                	addi	s1,sp,8
  3a:	0000                	unimp
  3c:	0000                	unimp
  3e:	0000                	unimp
  40:	10e4                	addi	s1,sp,108
  42:	c000                	sw	s0,0(s0)
  44:	0000                	unimp
  46:	0000                	unimp
  48:	008c                	addi	a1,sp,64
  4a:	0000                	unimp
  4c:	0000                	unimp
  4e:	0000                	unimp
  50:	0e44                	addi	s1,sp,788
  52:	4430                	lw	a2,72(s0)
  54:	0288                	addi	a0,sp,320
  56:	0c44                	addi	s1,sp,532
  58:	0008                	0x8
  5a:	7802                	ld	a6,32(sp)
  5c:	44c8                	lw	a0,12(s1)
  5e:	020d                	addi	tp,tp,3
  60:	002c                	addi	a1,sp,8
  62:	0000                	unimp
  64:	0000                	unimp
  66:	0000                	unimp
  68:	1170                	addi	a2,sp,172
  6a:	c000                	sw	s0,0(s0)
  6c:	0000                	unimp
  6e:	0000                	unimp
  70:	00d4                	addi	a3,sp,68
  72:	0000                	unimp
  74:	0000                	unimp
  76:	0000                	unimp
  78:	0e44                	addi	s1,sp,788
  7a:	4830                	lw	a2,80(s0)
  7c:	0281                	addi	t0,t0,0
  7e:	0488                	addi	a0,sp,576
  80:	0c44                	addi	s1,sp,532
  82:	0008                	0x8
  84:	b802                	fsd	ft0,48(sp)
  86:	44c1                	li	s1,16
  88:	44c8                	lw	a0,12(s1)
  8a:	020d                	addi	tp,tp,3
  8c:	0000                	unimp
  8e:	0000                	unimp
  90:	002c                	addi	a1,sp,8
  92:	0000                	unimp
  94:	0000                	unimp
  96:	0000                	unimp
  98:	1244                	addi	s1,sp,292
  9a:	c000                	sw	s0,0(s0)
  9c:	0000                	unimp
  9e:	0000                	unimp
  a0:	0040                	addi	s0,sp,4
  a2:	0000                	unimp
  a4:	0000                	unimp
  a6:	0000                	unimp
  a8:	0e44                	addi	s1,sp,788
  aa:	4820                	lw	s0,80(s0)
  ac:	0281                	addi	t0,t0,0
  ae:	0488                	addi	a0,sp,576
  b0:	0c44                	addi	s1,sp,532
  b2:	0008                	0x8
  b4:	c164                	sw	s1,68(a0)
  b6:	c844                	sw	s1,20(s0)
  b8:	0d44                	addi	s1,sp,660
  ba:	0002                	0x2
  bc:	0000                	unimp
  be:	0000                	unimp
  c0:	002c                	addi	a1,sp,8
  c2:	0000                	unimp
  c4:	0000                	unimp
  c6:	0000                	unimp
  c8:	1284                	addi	s1,sp,352
  ca:	c000                	sw	s0,0(s0)
  cc:	0000                	unimp
  ce:	0000                	unimp
  d0:	0064                	addi	s1,sp,12
  d2:	0000                	unimp
  d4:	0000                	unimp
  d6:	0000                	unimp
  d8:	0e44                	addi	s1,sp,788
  da:	4830                	lw	a2,80(s0)
  dc:	0281                	addi	t0,t0,0
  de:	0488                	addi	a0,sp,576
  e0:	0c44                	addi	s1,sp,532
  e2:	0008                	0x8
  e4:	4802                	lw	a6,0(sp)
  e6:	44c1                	li	s1,16
  e8:	44c8                	lw	a0,12(s1)
  ea:	020d                	addi	tp,tp,3
  ec:	0000                	unimp
  ee:	0000                	unimp
  f0:	002c                	addi	a1,sp,8
  f2:	0000                	unimp
  f4:	0000                	unimp
  f6:	0000                	unimp
  f8:	12e8                	addi	a0,sp,364
  fa:	c000                	sw	s0,0(s0)
  fc:	0000                	unimp
  fe:	0000                	unimp
 100:	0054                	addi	a3,sp,4
 102:	0000                	unimp
 104:	0000                	unimp
 106:	0000                	unimp
 108:	0e44                	addi	s1,sp,788
 10a:	4820                	lw	s0,80(s0)
 10c:	0281                	addi	t0,t0,0
 10e:	0488                	addi	a0,sp,576
 110:	0c44                	addi	s1,sp,532
 112:	0008                	0x8
 114:	c178                	sw	a4,68(a0)
 116:	c844                	sw	s1,20(s0)
 118:	0d44                	addi	s1,sp,660
 11a:	0002                	0x2
 11c:	0000                	unimp
 11e:	0000                	unimp
 120:	002c                	addi	a1,sp,8
 122:	0000                	unimp
 124:	0000                	unimp
 126:	0000                	unimp
 128:	133c                	addi	a5,sp,424
 12a:	c000                	sw	s0,0(s0)
 12c:	0000                	unimp
 12e:	0000                	unimp
 130:	0048                	addi	a0,sp,4
 132:	0000                	unimp
 134:	0000                	unimp
 136:	0000                	unimp
 138:	0e44                	addi	s1,sp,788
 13a:	4820                	lw	s0,80(s0)
 13c:	0281                	addi	t0,t0,0
 13e:	0488                	addi	a0,sp,576
 140:	0c44                	addi	s1,sp,532
 142:	0008                	0x8
 144:	c16c                	sw	a1,68(a0)
 146:	c844                	sw	s1,20(s0)
 148:	0d44                	addi	s1,sp,660
 14a:	0002                	0x2
 14c:	0000                	unimp
 14e:	0000                	unimp
 150:	002c                	addi	a1,sp,8
 152:	0000                	unimp
 154:	0000                	unimp
 156:	0000                	unimp
 158:	1384                	addi	s1,sp,480
 15a:	c000                	sw	s0,0(s0)
 15c:	0000                	unimp
 15e:	0000                	unimp
 160:	0044                	addi	s1,sp,4
 162:	0000                	unimp
 164:	0000                	unimp
 166:	0000                	unimp
 168:	0e44                	addi	s1,sp,788
 16a:	4810                	lw	a2,16(s0)
 16c:	0281                	addi	t0,t0,0
 16e:	0488                	addi	a0,sp,576
 170:	0c44                	addi	s1,sp,532
 172:	0008                	0x8
 174:	c168                	sw	a0,68(a0)
 176:	c844                	sw	s1,20(s0)
 178:	0d44                	addi	s1,sp,660
 17a:	0002                	0x2
 17c:	0000                	unimp
 17e:	0000                	unimp
 180:	002c                	addi	a1,sp,8
 182:	0000                	unimp
 184:	0000                	unimp
 186:	0000                	unimp
 188:	13c8                	addi	a0,sp,484
 18a:	c000                	sw	s0,0(s0)
 18c:	0000                	unimp
 18e:	0000                	unimp
 190:	011c                	addi	a5,sp,128
 192:	0000                	unimp
 194:	0000                	unimp
 196:	0000                	unimp
 198:	0e44                	addi	s1,sp,788
 19a:	4830                	lw	a2,80(s0)
 19c:	0281                	addi	t0,t0,0
 19e:	0488                	addi	a0,sp,576
 1a0:	0c44                	addi	s1,sp,532
 1a2:	0008                	0x8
 1a4:	c1010003          	lb	zero,-1008(sp) # 50afd5e <_tbss_end+0x50afd5a>
 1a8:	c844                	sw	s1,20(s0)
 1aa:	0d44                	addi	s1,sp,660
 1ac:	0002                	0x2
 1ae:	0000                	unimp
 1b0:	0024                	addi	s1,sp,8
 1b2:	0000                	unimp
 1b4:	0000                	unimp
 1b6:	0000                	unimp
 1b8:	14e4                	addi	s1,sp,620
 1ba:	c000                	sw	s0,0(s0)
 1bc:	0000                	unimp
 1be:	0000                	unimp
 1c0:	0088                	addi	a0,sp,64
 1c2:	0000                	unimp
 1c4:	0000                	unimp
 1c6:	0000                	unimp
 1c8:	0e44                	addi	s1,sp,788
 1ca:	4430                	lw	a2,72(s0)
 1cc:	0288                	addi	a0,sp,320
 1ce:	0c44                	addi	s1,sp,532
 1d0:	0008                	0x8
 1d2:	7402                	ld	s0,32(sp)
 1d4:	44c8                	lw	a0,12(s1)
 1d6:	020d                	addi	tp,tp,3
 1d8:	002c                	addi	a1,sp,8
 1da:	0000                	unimp
 1dc:	0000                	unimp
 1de:	0000                	unimp
 1e0:	156c                	addi	a1,sp,684
 1e2:	c000                	sw	s0,0(s0)
 1e4:	0000                	unimp
 1e6:	0000                	unimp
 1e8:	0040                	addi	s0,sp,4
 1ea:	0000                	unimp
 1ec:	0000                	unimp
 1ee:	0000                	unimp
 1f0:	0e44                	addi	s1,sp,788
 1f2:	4810                	lw	a2,16(s0)
 1f4:	0281                	addi	t0,t0,0
 1f6:	0488                	addi	a0,sp,576
 1f8:	0c44                	addi	s1,sp,532
 1fa:	0008                	0x8
 1fc:	c164                	sw	s1,68(a0)
 1fe:	c844                	sw	s1,20(s0)
 200:	0d44                	addi	s1,sp,660
 202:	0002                	0x2
 204:	0000                	unimp
 206:	0000                	unimp
 208:	002c                	addi	a1,sp,8
 20a:	0000                	unimp
 20c:	0000                	unimp
 20e:	0000                	unimp
 210:	15ac                	addi	a1,sp,744
 212:	c000                	sw	s0,0(s0)
 214:	0000                	unimp
 216:	0000                	unimp
 218:	0040                	addi	s0,sp,4
 21a:	0000                	unimp
 21c:	0000                	unimp
 21e:	0000                	unimp
 220:	0e44                	addi	s1,sp,788
 222:	4810                	lw	a2,16(s0)
 224:	0281                	addi	t0,t0,0
 226:	0488                	addi	a0,sp,576
 228:	0c44                	addi	s1,sp,532
 22a:	0008                	0x8
 22c:	c164                	sw	s1,68(a0)
 22e:	c844                	sw	s1,20(s0)
 230:	0d44                	addi	s1,sp,660
 232:	0002                	0x2
 234:	0000                	unimp
 236:	0000                	unimp
 238:	002c                	addi	a1,sp,8
 23a:	0000                	unimp
 23c:	0000                	unimp
 23e:	0000                	unimp
 240:	15ec                	addi	a1,sp,748
 242:	c000                	sw	s0,0(s0)
 244:	0000                	unimp
 246:	0000                	unimp
 248:	0040                	addi	s0,sp,4
 24a:	0000                	unimp
 24c:	0000                	unimp
 24e:	0000                	unimp
 250:	0e44                	addi	s1,sp,788
 252:	4810                	lw	a2,16(s0)
 254:	0281                	addi	t0,t0,0
 256:	0488                	addi	a0,sp,576
 258:	0c44                	addi	s1,sp,532
 25a:	0008                	0x8
 25c:	c164                	sw	s1,68(a0)
 25e:	c844                	sw	s1,20(s0)
 260:	0d44                	addi	s1,sp,660
 262:	0002                	0x2
 264:	0000                	unimp
 266:	0000                	unimp
 268:	002c                	addi	a1,sp,8
 26a:	0000                	unimp
 26c:	0000                	unimp
 26e:	0000                	unimp
 270:	162c                	addi	a1,sp,808
 272:	c000                	sw	s0,0(s0)
 274:	0000                	unimp
 276:	0000                	unimp
 278:	0040                	addi	s0,sp,4
 27a:	0000                	unimp
 27c:	0000                	unimp
 27e:	0000                	unimp
 280:	0e44                	addi	s1,sp,788
 282:	4810                	lw	a2,16(s0)
 284:	0281                	addi	t0,t0,0
 286:	0488                	addi	a0,sp,576
 288:	0c44                	addi	s1,sp,532
 28a:	0008                	0x8
 28c:	c164                	sw	s1,68(a0)
 28e:	c844                	sw	s1,20(s0)
 290:	0d44                	addi	s1,sp,660
 292:	0002                	0x2
 294:	0000                	unimp
 296:	0000                	unimp
 298:	002c                	addi	a1,sp,8
 29a:	0000                	unimp
 29c:	0000                	unimp
 29e:	0000                	unimp
 2a0:	166c                	addi	a1,sp,812
 2a2:	c000                	sw	s0,0(s0)
 2a4:	0000                	unimp
 2a6:	0000                	unimp
 2a8:	0050                	addi	a2,sp,4
 2aa:	0000                	unimp
 2ac:	0000                	unimp
 2ae:	0000                	unimp
 2b0:	0e44                	addi	s1,sp,788
 2b2:	4820                	lw	s0,80(s0)
 2b4:	0281                	addi	t0,t0,0
 2b6:	0488                	addi	a0,sp,576
 2b8:	0c44                	addi	s1,sp,532
 2ba:	0008                	0x8
 2bc:	c174                	sw	a3,68(a0)
 2be:	c844                	sw	s1,20(s0)
 2c0:	0d44                	addi	s1,sp,660
 2c2:	0002                	0x2
 2c4:	0000                	unimp
 2c6:	0000                	unimp
 2c8:	002c                	addi	a1,sp,8
 2ca:	0000                	unimp
 2cc:	0000                	unimp
 2ce:	0000                	unimp
 2d0:	16bc                	addi	a5,sp,872
 2d2:	c000                	sw	s0,0(s0)
 2d4:	0000                	unimp
 2d6:	0000                	unimp
 2d8:	0088                	addi	a0,sp,64
 2da:	0000                	unimp
 2dc:	0000                	unimp
 2de:	0000                	unimp
 2e0:	0e44                	addi	s1,sp,788
 2e2:	4810                	lw	a2,16(s0)
 2e4:	0281                	addi	t0,t0,0
 2e6:	0488                	addi	a0,sp,576
 2e8:	0c44                	addi	s1,sp,532
 2ea:	0008                	0x8
 2ec:	6c02                	ld	s8,0(sp)
 2ee:	44c1                	li	s1,16
 2f0:	44c8                	lw	a0,12(s1)
 2f2:	020d                	addi	tp,tp,3
 2f4:	0000                	unimp
 2f6:	0000                	unimp
 2f8:	002c                	addi	a1,sp,8
 2fa:	0000                	unimp
 2fc:	0000                	unimp
 2fe:	0000                	unimp
 300:	1744                	addi	s1,sp,932
 302:	c000                	sw	s0,0(s0)
 304:	0000                	unimp
 306:	0000                	unimp
 308:	0040                	addi	s0,sp,4
 30a:	0000                	unimp
 30c:	0000                	unimp
 30e:	0000                	unimp
 310:	0e44                	addi	s1,sp,788
 312:	4810                	lw	a2,16(s0)
 314:	0281                	addi	t0,t0,0
 316:	0488                	addi	a0,sp,576
 318:	0c44                	addi	s1,sp,532
 31a:	0008                	0x8
 31c:	c164                	sw	s1,68(a0)
 31e:	c844                	sw	s1,20(s0)
 320:	0d44                	addi	s1,sp,660
 322:	0002                	0x2
 324:	0000                	unimp
 326:	0000                	unimp
 328:	0024                	addi	s1,sp,8
 32a:	0000                	unimp
 32c:	0000                	unimp
 32e:	0000                	unimp
 330:	1784                	addi	s1,sp,992
 332:	c000                	sw	s0,0(s0)
 334:	0000                	unimp
 336:	0000                	unimp
 338:	0054                	addi	a3,sp,4
 33a:	0000                	unimp
 33c:	0000                	unimp
 33e:	0000                	unimp
 340:	0e44                	addi	s1,sp,788
 342:	4410                	lw	a2,8(s0)
 344:	0288                	addi	a0,sp,320
 346:	0c44                	addi	s1,sp,532
 348:	0008                	0x8
 34a:	4002                	0x4002
 34c:	44c8                	lw	a0,12(s1)
 34e:	020d                	addi	tp,tp,3
 350:	0024                	addi	s1,sp,8
 352:	0000                	unimp
 354:	0000                	unimp
 356:	0000                	unimp
 358:	17d8                	addi	a4,sp,996
 35a:	c000                	sw	s0,0(s0)
 35c:	0000                	unimp
 35e:	0000                	unimp
 360:	0058                	addi	a4,sp,4
 362:	0000                	unimp
 364:	0000                	unimp
 366:	0000                	unimp
 368:	0e44                	addi	s1,sp,788
 36a:	4430                	lw	a2,72(s0)
 36c:	0288                	addi	a0,sp,320
 36e:	0c44                	addi	s1,sp,532
 370:	0008                	0x8
 372:	4402                	lw	s0,0(sp)
 374:	44c8                	lw	a0,12(s1)
 376:	020d                	addi	tp,tp,3
 378:	002c                	addi	a1,sp,8
 37a:	0000                	unimp
 37c:	0000                	unimp
 37e:	0000                	unimp
 380:	1830                	addi	a2,sp,56
 382:	c000                	sw	s0,0(s0)
 384:	0000                	unimp
 386:	0000                	unimp
 388:	00bc                	addi	a5,sp,72
 38a:	0000                	unimp
 38c:	0000                	unimp
 38e:	0000                	unimp
 390:	0e44                	addi	s1,sp,788
 392:	4810                	lw	a2,16(s0)
 394:	0281                	addi	t0,t0,0
 396:	0488                	addi	a0,sp,576
 398:	0c44                	addi	s1,sp,532
 39a:	0008                	0x8
 39c:	a002                	fsd	ft0,0(sp)
 39e:	44c1                	li	s1,16
 3a0:	44c8                	lw	a0,12(s1)
 3a2:	020d                	addi	tp,tp,3
 3a4:	0000                	unimp
	...
