
./UART1/outputs//uart0bcm.shakti:     file format elf64-littleriscv


Disassembly of section .text.init:

00000000c0000000 <_start>:
    c0000000:	00000093          	li	ra,0
    c0000004:	00000113          	li	sp,0
    c0000008:	00000193          	li	gp,0
    c000000c:	00000213          	li	tp,0
    c0000010:	00000293          	li	t0,0
    c0000014:	00000313          	li	t1,0
    c0000018:	00000393          	li	t2,0
    c000001c:	00000413          	li	s0,0
    c0000020:	00000493          	li	s1,0
    c0000024:	00000513          	li	a0,0
    c0000028:	00000593          	li	a1,0
    c000002c:	00000613          	li	a2,0
    c0000030:	00000693          	li	a3,0
    c0000034:	00000713          	li	a4,0
    c0000038:	00000793          	li	a5,0
    c000003c:	00000813          	li	a6,0
    c0000040:	00000893          	li	a7,0
    c0000044:	00000913          	li	s2,0
    c0000048:	00000993          	li	s3,0
    c000004c:	00000a13          	li	s4,0
    c0000050:	00000a93          	li	s5,0
    c0000054:	00000b13          	li	s6,0
    c0000058:	00000b93          	li	s7,0
    c000005c:	00000c13          	li	s8,0
    c0000060:	00000c93          	li	s9,0
    c0000064:	00000d13          	li	s10,0
    c0000068:	00000d93          	li	s11,0
    c000006c:	00000e13          	li	t3,0
    c0000070:	00000e93          	li	t4,0
    c0000074:	00000f13          	li	t5,0
    c0000078:	00000f93          	li	t6,0
    c000007c:	0001e2b7          	lui	t0,0x1e
    c0000080:	3002a073          	csrs	mstatus,t0
    c0000084:	00100293          	li	t0,1
    c0000088:	01f29293          	slli	t0,t0,0x1f
    c000008c:	0002da63          	bgez	t0,c00000a0 <_start+0xa0>
    c0000090:	00100513          	li	a0,1
    c0000094:	00001297          	auipc	t0,0x1
    c0000098:	f6a2a623          	sw	a0,-148(t0) # c0001000 <tohost>
    c000009c:	ff5ff06f          	j	c0000090 <_start+0x90>
    c00000a0:	00000297          	auipc	t0,0x0
    c00000a4:	09028293          	addi	t0,t0,144 # c0000130 <_start+0x130>
    c00000a8:	30529073          	csrw	mtvec,t0
    c00000ac:	00301073          	fssr	zero
    c00000b0:	f0000053          	fmv.w.x	ft0,zero
    c00000b4:	f00000d3          	fmv.w.x	ft1,zero
    c00000b8:	f0000153          	fmv.w.x	ft2,zero
    c00000bc:	f00001d3          	fmv.w.x	ft3,zero
    c00000c0:	f0000253          	fmv.w.x	ft4,zero
    c00000c4:	f00002d3          	fmv.w.x	ft5,zero
    c00000c8:	f0000353          	fmv.w.x	ft6,zero
    c00000cc:	f00003d3          	fmv.w.x	ft7,zero
    c00000d0:	f0000453          	fmv.w.x	fs0,zero
    c00000d4:	f00004d3          	fmv.w.x	fs1,zero
    c00000d8:	f0000553          	fmv.w.x	fa0,zero
    c00000dc:	f00005d3          	fmv.w.x	fa1,zero
    c00000e0:	f0000653          	fmv.w.x	fa2,zero
    c00000e4:	f00006d3          	fmv.w.x	fa3,zero
    c00000e8:	f0000753          	fmv.w.x	fa4,zero
    c00000ec:	f00007d3          	fmv.w.x	fa5,zero
    c00000f0:	f0000853          	fmv.w.x	fa6,zero
    c00000f4:	f00008d3          	fmv.w.x	fa7,zero
    c00000f8:	f0000953          	fmv.w.x	fs2,zero
    c00000fc:	f00009d3          	fmv.w.x	fs3,zero
    c0000100:	f0000a53          	fmv.w.x	fs4,zero
    c0000104:	f0000ad3          	fmv.w.x	fs5,zero
    c0000108:	f0000b53          	fmv.w.x	fs6,zero
    c000010c:	f0000bd3          	fmv.w.x	fs7,zero
    c0000110:	f0000c53          	fmv.w.x	fs8,zero
    c0000114:	f0000cd3          	fmv.w.x	fs9,zero
    c0000118:	f0000d53          	fmv.w.x	fs10,zero
    c000011c:	f0000dd3          	fmv.w.x	fs11,zero
    c0000120:	f0000e53          	fmv.w.x	ft8,zero
    c0000124:	f0000ed3          	fmv.w.x	ft9,zero
    c0000128:	f0000f53          	fmv.w.x	ft10,zero
    c000012c:	f0000fd3          	fmv.w.x	ft11,zero
    c0000130:	00000297          	auipc	t0,0x0
    c0000134:	04028293          	addi	t0,t0,64 # c0000170 <trap_entry>
    c0000138:	30529073          	csrw	mtvec,t0
    c000013c:	00003197          	auipc	gp,0x3
    c0000140:	67418193          	addi	gp,gp,1652 # c00037b0 <__global_pointer$>
    c0000144:	87f18213          	addi	tp,gp,-1921 # c000302f <_end+0x3f>
    c0000148:	fc027213          	andi	tp,tp,-64
    c000014c:	f1402573          	csrr	a0,mhartid
    c0000150:	00100593          	li	a1,1
    c0000154:	00b57063          	bleu	a1,a0,c0000154 <_start+0x154>
    c0000158:	00c51613          	slli	a2,a0,0xc
    c000015c:	00c20233          	add	tp,tp,a2
    c0000160:	00150113          	addi	sp,a0,1
    c0000164:	00c11113          	slli	sp,sp,0xc
    c0000168:	00410133          	add	sp,sp,tp
    c000016c:	7a10106f          	j	c000210c <_init>

00000000c0000170 <trap_entry>:
    c0000170:	ef010113          	addi	sp,sp,-272
    c0000174:	00113423          	sd	ra,8(sp)
    c0000178:	00213823          	sd	sp,16(sp)
    c000017c:	00313c23          	sd	gp,24(sp)
    c0000180:	02413023          	sd	tp,32(sp)
    c0000184:	02513423          	sd	t0,40(sp)
    c0000188:	02613823          	sd	t1,48(sp)
    c000018c:	02713c23          	sd	t2,56(sp)
    c0000190:	04813023          	sd	s0,64(sp)
    c0000194:	04913423          	sd	s1,72(sp)
    c0000198:	04a13823          	sd	a0,80(sp)
    c000019c:	04b13c23          	sd	a1,88(sp)
    c00001a0:	06c13023          	sd	a2,96(sp)
    c00001a4:	06d13423          	sd	a3,104(sp)
    c00001a8:	06e13823          	sd	a4,112(sp)
    c00001ac:	06f13c23          	sd	a5,120(sp)
    c00001b0:	09013023          	sd	a6,128(sp)
    c00001b4:	09113423          	sd	a7,136(sp)
    c00001b8:	09213823          	sd	s2,144(sp)
    c00001bc:	09313c23          	sd	s3,152(sp)
    c00001c0:	0b413023          	sd	s4,160(sp)
    c00001c4:	0b513423          	sd	s5,168(sp)
    c00001c8:	0b613823          	sd	s6,176(sp)
    c00001cc:	0b713c23          	sd	s7,184(sp)
    c00001d0:	0d813023          	sd	s8,192(sp)
    c00001d4:	0d913423          	sd	s9,200(sp)
    c00001d8:	0da13823          	sd	s10,208(sp)
    c00001dc:	0db13c23          	sd	s11,216(sp)
    c00001e0:	0fc13023          	sd	t3,224(sp)
    c00001e4:	0fd13423          	sd	t4,232(sp)
    c00001e8:	0fe13823          	sd	t5,240(sp)
    c00001ec:	0ff13c23          	sd	t6,248(sp)
    c00001f0:	34202573          	csrr	a0,mcause
    c00001f4:	341025f3          	csrr	a1,mepc
    c00001f8:	00010613          	mv	a2,sp
    c00001fc:	541010ef          	jal	ra,c0001f3c <handle_trap>
    c0000200:	34151073          	csrw	mepc,a0
    c0000204:	000022b7          	lui	t0,0x2
    c0000208:	8002829b          	addiw	t0,t0,-2048
    c000020c:	3002a073          	csrs	mstatus,t0
    c0000210:	00813083          	ld	ra,8(sp)
    c0000214:	01013103          	ld	sp,16(sp)
    c0000218:	01813183          	ld	gp,24(sp)
    c000021c:	02013203          	ld	tp,32(sp)
    c0000220:	02813283          	ld	t0,40(sp)
    c0000224:	03013303          	ld	t1,48(sp)
    c0000228:	03813383          	ld	t2,56(sp)
    c000022c:	04013403          	ld	s0,64(sp)
    c0000230:	04813483          	ld	s1,72(sp)
    c0000234:	05013503          	ld	a0,80(sp)
    c0000238:	05813583          	ld	a1,88(sp)
    c000023c:	06013603          	ld	a2,96(sp)
    c0000240:	06813683          	ld	a3,104(sp)
    c0000244:	07013703          	ld	a4,112(sp)
    c0000248:	07813783          	ld	a5,120(sp)
    c000024c:	08013803          	ld	a6,128(sp)
    c0000250:	08813883          	ld	a7,136(sp)
    c0000254:	09013903          	ld	s2,144(sp)
    c0000258:	09813983          	ld	s3,152(sp)
    c000025c:	0a013a03          	ld	s4,160(sp)
    c0000260:	0a813a83          	ld	s5,168(sp)
    c0000264:	0b013b03          	ld	s6,176(sp)
    c0000268:	0b813b83          	ld	s7,184(sp)
    c000026c:	0c013c03          	ld	s8,192(sp)
    c0000270:	0c813c83          	ld	s9,200(sp)
    c0000274:	0d013d03          	ld	s10,208(sp)
    c0000278:	0d813d83          	ld	s11,216(sp)
    c000027c:	0e013e03          	ld	t3,224(sp)
    c0000280:	0e813e83          	ld	t4,232(sp)
    c0000284:	0f013f03          	ld	t5,240(sp)
    c0000288:	0f813f83          	ld	t6,248(sp)
    c000028c:	11010113          	addi	sp,sp,272
    c0000290:	30200073          	mret

Disassembly of section .tohost:

00000000c0001000 <tohost>:
	...

00000000c0001040 <fromhost>:
	...

Disassembly of section .text:

00000000c0001048 <WriteIntoUart>:
    c0001048:	fd010113          	addi	sp,sp,-48
    c000104c:	02813423          	sd	s0,40(sp)
    c0001050:	03010413          	addi	s0,sp,48
    c0001054:	00050793          	mv	a5,a0
    c0001058:	00058693          	mv	a3,a1
    c000105c:	00060713          	mv	a4,a2
    c0001060:	fcf40fa3          	sb	a5,-33(s0)
    c0001064:	00068793          	mv	a5,a3
    c0001068:	fcf40f23          	sb	a5,-34(s0)
    c000106c:	00070793          	mv	a5,a4
    c0001070:	fcf40ea3          	sb	a5,-35(s0)
    c0001074:	fe043423          	sd	zero,-24(s0)
    c0001078:	fde44783          	lbu	a5,-34(s0)
    c000107c:	0ff7f713          	andi	a4,a5,255
    c0001080:	00100793          	li	a5,1
    c0001084:	02f71263          	bne	a4,a5,c00010a8 <WriteIntoUart+0x60>
    c0001088:	fdf44783          	lbu	a5,-33(s0)
    c000108c:	0007871b          	sext.w	a4,a5
    c0001090:	000117b7          	lui	a5,0x11
    c0001094:	3007879b          	addiw	a5,a5,768
    c0001098:	00f707bb          	addw	a5,a4,a5
    c000109c:	0007879b          	sext.w	a5,a5
    c00010a0:	fef43423          	sd	a5,-24(s0)
    c00010a4:	0200006f          	j	c00010c4 <WriteIntoUart+0x7c>
    c00010a8:	fdf44783          	lbu	a5,-33(s0)
    c00010ac:	0007871b          	sext.w	a4,a5
    c00010b0:	000117b7          	lui	a5,0x11
    c00010b4:	2007879b          	addiw	a5,a5,512
    c00010b8:	00f707bb          	addw	a5,a4,a5
    c00010bc:	0007879b          	sext.w	a5,a5
    c00010c0:	fef43423          	sd	a5,-24(s0)
    c00010c4:	fdd44783          	lbu	a5,-35(s0)
    c00010c8:	0007871b          	sext.w	a4,a5
    c00010cc:	fe843783          	ld	a5,-24(s0)
    c00010d0:	00e7a023          	sw	a4,0(a5) # 11000 <_tbss_end+0x10ffc>
    c00010d4:	00000013          	nop
    c00010d8:	02813403          	ld	s0,40(sp)
    c00010dc:	03010113          	addi	sp,sp,48
    c00010e0:	00008067          	ret

00000000c00010e4 <ReadFromUart>:
    c00010e4:	fd010113          	addi	sp,sp,-48
    c00010e8:	02813423          	sd	s0,40(sp)
    c00010ec:	03010413          	addi	s0,sp,48
    c00010f0:	00050793          	mv	a5,a0
    c00010f4:	00058713          	mv	a4,a1
    c00010f8:	fcf40fa3          	sb	a5,-33(s0)
    c00010fc:	00070793          	mv	a5,a4
    c0001100:	fcf40f23          	sb	a5,-34(s0)
    c0001104:	fe043423          	sd	zero,-24(s0)
    c0001108:	fde44783          	lbu	a5,-34(s0)
    c000110c:	0ff7f713          	andi	a4,a5,255
    c0001110:	00100793          	li	a5,1
    c0001114:	02f71263          	bne	a4,a5,c0001138 <ReadFromUart+0x54>
    c0001118:	fdf44783          	lbu	a5,-33(s0)
    c000111c:	0007871b          	sext.w	a4,a5
    c0001120:	000117b7          	lui	a5,0x11
    c0001124:	3007879b          	addiw	a5,a5,768
    c0001128:	00f707bb          	addw	a5,a4,a5
    c000112c:	0007879b          	sext.w	a5,a5
    c0001130:	fef43423          	sd	a5,-24(s0)
    c0001134:	0200006f          	j	c0001154 <ReadFromUart+0x70>
    c0001138:	fdf44783          	lbu	a5,-33(s0)
    c000113c:	0007871b          	sext.w	a4,a5
    c0001140:	000117b7          	lui	a5,0x11
    c0001144:	2007879b          	addiw	a5,a5,512
    c0001148:	00f707bb          	addw	a5,a4,a5
    c000114c:	0007879b          	sext.w	a5,a5
    c0001150:	fef43423          	sd	a5,-24(s0)
    c0001154:	fe843783          	ld	a5,-24(s0)
    c0001158:	0007a783          	lw	a5,0(a5) # 11000 <_tbss_end+0x10ffc>
    c000115c:	0ff7f793          	andi	a5,a5,255
    c0001160:	00078513          	mv	a0,a5
    c0001164:	02813403          	ld	s0,40(sp)
    c0001168:	03010113          	addi	sp,sp,48
    c000116c:	00008067          	ret

00000000c0001170 <Uart1Init>:
    c0001170:	fd010113          	addi	sp,sp,-48
    c0001174:	02113423          	sd	ra,40(sp)
    c0001178:	02813023          	sd	s0,32(sp)
    c000117c:	03010413          	addi	s0,sp,48
    c0001180:	00050793          	mv	a5,a0
    c0001184:	fcf42e23          	sw	a5,-36(s0)
    c0001188:	fdc42783          	lw	a5,-36(s0)
    c000118c:	0047979b          	slliw	a5,a5,0x4
    c0001190:	0007879b          	sext.w	a5,a5
    c0001194:	01313737          	lui	a4,0x1313
    c0001198:	d007071b          	addiw	a4,a4,-768
    c000119c:	02f747bb          	divw	a5,a4,a5
    c00011a0:	fef42623          	sw	a5,-20(s0)
    c00011a4:	fec42783          	lw	a5,-20(s0)
    c00011a8:	00078593          	mv	a1,a5
    c00011ac:	00002517          	auipc	a0,0x2
    c00011b0:	bf450513          	addi	a0,a0,-1036 # c0002da0 <atol+0x110>
    c00011b4:	798010ef          	jal	ra,c000294c <printf>
    c00011b8:	08300613          	li	a2,131
    c00011bc:	00100593          	li	a1,1
    c00011c0:	00300513          	li	a0,3
    c00011c4:	e85ff0ef          	jal	ra,c0001048 <WriteIntoUart>
    c00011c8:	fec42783          	lw	a5,-20(s0)
    c00011cc:	4087d79b          	sraiw	a5,a5,0x8
    c00011d0:	0007879b          	sext.w	a5,a5
    c00011d4:	0ff7f793          	andi	a5,a5,255
    c00011d8:	00078613          	mv	a2,a5
    c00011dc:	00100593          	li	a1,1
    c00011e0:	00100513          	li	a0,1
    c00011e4:	e65ff0ef          	jal	ra,c0001048 <WriteIntoUart>
    c00011e8:	fec42783          	lw	a5,-20(s0)
    c00011ec:	0ff7f793          	andi	a5,a5,255
    c00011f0:	00078613          	mv	a2,a5
    c00011f4:	00100593          	li	a1,1
    c00011f8:	00000513          	li	a0,0
    c00011fc:	e4dff0ef          	jal	ra,c0001048 <WriteIntoUart>
    c0001200:	00300613          	li	a2,3
    c0001204:	00100593          	li	a1,1
    c0001208:	00300513          	li	a0,3
    c000120c:	e3dff0ef          	jal	ra,c0001048 <WriteIntoUart>
    c0001210:	00600613          	li	a2,6
    c0001214:	00100593          	li	a1,1
    c0001218:	00200513          	li	a0,2
    c000121c:	e2dff0ef          	jal	ra,c0001048 <WriteIntoUart>
    c0001220:	00000613          	li	a2,0
    c0001224:	00100593          	li	a1,1
    c0001228:	00100513          	li	a0,1
    c000122c:	e1dff0ef          	jal	ra,c0001048 <WriteIntoUart>
    c0001230:	00000013          	nop
    c0001234:	02813083          	ld	ra,40(sp)
    c0001238:	02013403          	ld	s0,32(sp)
    c000123c:	03010113          	addi	sp,sp,48
    c0001240:	00008067          	ret

00000000c0001244 <UartTxReady>:
    c0001244:	fe010113          	addi	sp,sp,-32
    c0001248:	00113c23          	sd	ra,24(sp)
    c000124c:	00813823          	sd	s0,16(sp)
    c0001250:	02010413          	addi	s0,sp,32
    c0001254:	fe042623          	sw	zero,-20(s0)
    c0001258:	00100593          	li	a1,1
    c000125c:	00500513          	li	a0,5
    c0001260:	e85ff0ef          	jal	ra,c00010e4 <ReadFromUart>
    c0001264:	00050793          	mv	a5,a0
    c0001268:	fef42623          	sw	a5,-20(s0)
    c000126c:	fec42783          	lw	a5,-20(s0)
    c0001270:	00078513          	mv	a0,a5
    c0001274:	01813083          	ld	ra,24(sp)
    c0001278:	01013403          	ld	s0,16(sp)
    c000127c:	02010113          	addi	sp,sp,32
    c0001280:	00008067          	ret

00000000c0001284 <UartTransmitCharacter>:
    c0001284:	fd010113          	addi	sp,sp,-48
    c0001288:	02113423          	sd	ra,40(sp)
    c000128c:	02813023          	sd	s0,32(sp)
    c0001290:	03010413          	addi	s0,sp,48
    c0001294:	00050793          	mv	a5,a0
    c0001298:	fcf40fa3          	sb	a5,-33(s0)
    c000129c:	fa9ff0ef          	jal	ra,c0001244 <UartTxReady>
    c00012a0:	00050793          	mv	a5,a0
    c00012a4:	fef42623          	sw	a5,-20(s0)
    c00012a8:	fec42783          	lw	a5,-20(s0)
    c00012ac:	0207f793          	andi	a5,a5,32
    c00012b0:	0007879b          	sext.w	a5,a5
    c00012b4:	00079463          	bnez	a5,c00012bc <UartTransmitCharacter+0x38>
    c00012b8:	fe5ff06f          	j	c000129c <UartTransmitCharacter+0x18>
    c00012bc:	00000013          	nop
    c00012c0:	fdf44783          	lbu	a5,-33(s0)
    c00012c4:	00078613          	mv	a2,a5
    c00012c8:	00100593          	li	a1,1
    c00012cc:	00000513          	li	a0,0
    c00012d0:	d79ff0ef          	jal	ra,c0001048 <WriteIntoUart>
    c00012d4:	00000013          	nop
    c00012d8:	02813083          	ld	ra,40(sp)
    c00012dc:	02013403          	ld	s0,32(sp)
    c00012e0:	03010113          	addi	sp,sp,48
    c00012e4:	00008067          	ret

00000000c00012e8 <UartTransmitString>:
    c00012e8:	fe010113          	addi	sp,sp,-32
    c00012ec:	00113c23          	sd	ra,24(sp)
    c00012f0:	00813823          	sd	s0,16(sp)
    c00012f4:	02010413          	addi	s0,sp,32
    c00012f8:	fea43423          	sd	a0,-24(s0)
    c00012fc:	0200006f          	j	c000131c <UartTransmitString+0x34>
    c0001300:	fe843783          	ld	a5,-24(s0)
    c0001304:	0007c783          	lbu	a5,0(a5)
    c0001308:	00078513          	mv	a0,a5
    c000130c:	f79ff0ef          	jal	ra,c0001284 <UartTransmitCharacter>
    c0001310:	fe843783          	ld	a5,-24(s0)
    c0001314:	00178793          	addi	a5,a5,1
    c0001318:	fef43423          	sd	a5,-24(s0)
    c000131c:	fe843783          	ld	a5,-24(s0)
    c0001320:	0007c783          	lbu	a5,0(a5)
    c0001324:	fc079ee3          	bnez	a5,c0001300 <UartTransmitString+0x18>
    c0001328:	00000013          	nop
    c000132c:	01813083          	ld	ra,24(sp)
    c0001330:	01013403          	ld	s0,16(sp)
    c0001334:	02010113          	addi	sp,sp,32
    c0001338:	00008067          	ret

00000000c000133c <UartCheckReceiveReady>:
    c000133c:	fe010113          	addi	sp,sp,-32
    c0001340:	00113c23          	sd	ra,24(sp)
    c0001344:	00813823          	sd	s0,16(sp)
    c0001348:	02010413          	addi	s0,sp,32
    c000134c:	fe042623          	sw	zero,-20(s0)
    c0001350:	00100593          	li	a1,1
    c0001354:	00500513          	li	a0,5
    c0001358:	d8dff0ef          	jal	ra,c00010e4 <ReadFromUart>
    c000135c:	00050793          	mv	a5,a0
    c0001360:	fef42623          	sw	a5,-20(s0)
    c0001364:	fec42783          	lw	a5,-20(s0)
    c0001368:	0017f793          	andi	a5,a5,1
    c000136c:	0007879b          	sext.w	a5,a5
    c0001370:	00078513          	mv	a0,a5
    c0001374:	01813083          	ld	ra,24(sp)
    c0001378:	01013403          	ld	s0,16(sp)
    c000137c:	02010113          	addi	sp,sp,32
    c0001380:	00008067          	ret

00000000c0001384 <UartReceiveCharacter>:
    c0001384:	ff010113          	addi	sp,sp,-16
    c0001388:	00113423          	sd	ra,8(sp)
    c000138c:	00813023          	sd	s0,0(sp)
    c0001390:	01010413          	addi	s0,sp,16
    c0001394:	00000013          	nop
    c0001398:	fa5ff0ef          	jal	ra,c000133c <UartCheckReceiveReady>
    c000139c:	00050793          	mv	a5,a0
    c00013a0:	fe078ce3          	beqz	a5,c0001398 <UartReceiveCharacter+0x14>
    c00013a4:	00100593          	li	a1,1
    c00013a8:	00000513          	li	a0,0
    c00013ac:	d39ff0ef          	jal	ra,c00010e4 <ReadFromUart>
    c00013b0:	00050793          	mv	a5,a0
    c00013b4:	00078513          	mv	a0,a5
    c00013b8:	00813083          	ld	ra,8(sp)
    c00013bc:	00013403          	ld	s0,0(sp)
    c00013c0:	01010113          	addi	sp,sp,16
    c00013c4:	00008067          	ret

00000000c00013c8 <sendCommand>:
    c00013c8:	fd010113          	addi	sp,sp,-48
    c00013cc:	02113423          	sd	ra,40(sp)
    c00013d0:	02813023          	sd	s0,32(sp)
    c00013d4:	03010413          	addi	s0,sp,48
    c00013d8:	00050793          	mv	a5,a0
    c00013dc:	00058693          	mv	a3,a1
    c00013e0:	00060713          	mv	a4,a2
    c00013e4:	fcf40fa3          	sb	a5,-33(s0)
    c00013e8:	00068793          	mv	a5,a3
    c00013ec:	fcf40f23          	sb	a5,-34(s0)
    c00013f0:	00070793          	mv	a5,a4
    c00013f4:	fcf40ea3          	sb	a5,-35(s0)
    c00013f8:	00002797          	auipc	a5,0x2
    c00013fc:	bb878793          	addi	a5,a5,-1096 # c0002fb0 <Send_buf>
    c0001400:	07e00713          	li	a4,126
    c0001404:	00e78023          	sb	a4,0(a5)
    c0001408:	00002797          	auipc	a5,0x2
    c000140c:	ba878793          	addi	a5,a5,-1112 # c0002fb0 <Send_buf>
    c0001410:	fff00713          	li	a4,-1
    c0001414:	00e780a3          	sb	a4,1(a5)
    c0001418:	00002797          	auipc	a5,0x2
    c000141c:	b9878793          	addi	a5,a5,-1128 # c0002fb0 <Send_buf>
    c0001420:	00600713          	li	a4,6
    c0001424:	00e78123          	sb	a4,2(a5)
    c0001428:	00002797          	auipc	a5,0x2
    c000142c:	b8878793          	addi	a5,a5,-1144 # c0002fb0 <Send_buf>
    c0001430:	fdf44703          	lbu	a4,-33(s0)
    c0001434:	00e781a3          	sb	a4,3(a5)
    c0001438:	00002797          	auipc	a5,0x2
    c000143c:	b7878793          	addi	a5,a5,-1160 # c0002fb0 <Send_buf>
    c0001440:	00100713          	li	a4,1
    c0001444:	00e78223          	sb	a4,4(a5)
    c0001448:	00002797          	auipc	a5,0x2
    c000144c:	b6878793          	addi	a5,a5,-1176 # c0002fb0 <Send_buf>
    c0001450:	fde44703          	lbu	a4,-34(s0)
    c0001454:	00e782a3          	sb	a4,5(a5)
    c0001458:	00002797          	auipc	a5,0x2
    c000145c:	b5878793          	addi	a5,a5,-1192 # c0002fb0 <Send_buf>
    c0001460:	fdd44703          	lbu	a4,-35(s0)
    c0001464:	00e78323          	sb	a4,6(a5)
    c0001468:	00002797          	auipc	a5,0x2
    c000146c:	b4878793          	addi	a5,a5,-1208 # c0002fb0 <Send_buf>
    c0001470:	fef00713          	li	a4,-17
    c0001474:	00e783a3          	sb	a4,7(a5)
    c0001478:	00002517          	auipc	a0,0x2
    c000147c:	94050513          	addi	a0,a0,-1728 # c0002db8 <atol+0x128>
    c0001480:	4cc010ef          	jal	ra,c000294c <printf>
    c0001484:	fe0407a3          	sb	zero,-17(s0)
    c0001488:	0380006f          	j	c00014c0 <sendCommand+0xf8>
    c000148c:	fef44783          	lbu	a5,-17(s0)
    c0001490:	0007879b          	sext.w	a5,a5
    c0001494:	00002717          	auipc	a4,0x2
    c0001498:	b1c70713          	addi	a4,a4,-1252 # c0002fb0 <Send_buf>
    c000149c:	00f707b3          	add	a5,a4,a5
    c00014a0:	0007c783          	lbu	a5,0(a5)
    c00014a4:	00078613          	mv	a2,a5
    c00014a8:	00100593          	li	a1,1
    c00014ac:	00000513          	li	a0,0
    c00014b0:	b99ff0ef          	jal	ra,c0001048 <WriteIntoUart>
    c00014b4:	fef44783          	lbu	a5,-17(s0)
    c00014b8:	0017879b          	addiw	a5,a5,1
    c00014bc:	fef407a3          	sb	a5,-17(s0)
    c00014c0:	fef44783          	lbu	a5,-17(s0)
    c00014c4:	0ff7f713          	andi	a4,a5,255
    c00014c8:	00700793          	li	a5,7
    c00014cc:	fce7f0e3          	bleu	a4,a5,c000148c <sendCommand+0xc4>
    c00014d0:	00000013          	nop
    c00014d4:	02813083          	ld	ra,40(sp)
    c00014d8:	02013403          	ld	s0,32(sp)
    c00014dc:	03010113          	addi	sp,sp,48
    c00014e0:	00008067          	ret

00000000c00014e4 <Delay>:
    c00014e4:	fd010113          	addi	sp,sp,-48
    c00014e8:	02813423          	sd	s0,40(sp)
    c00014ec:	03010413          	addi	s0,sp,48
    c00014f0:	00050793          	mv	a5,a0
    c00014f4:	00058713          	mv	a4,a1
    c00014f8:	fcf41f23          	sh	a5,-34(s0)
    c00014fc:	00070793          	mv	a5,a4
    c0001500:	fcf41e23          	sh	a5,-36(s0)
    c0001504:	fe041723          	sh	zero,-18(s0)
    c0001508:	fe041623          	sh	zero,-20(s0)
    c000150c:	fe041723          	sh	zero,-18(s0)
    c0001510:	0380006f          	j	c0001548 <Delay+0x64>
    c0001514:	fe041623          	sh	zero,-20(s0)
    c0001518:	0100006f          	j	c0001528 <Delay+0x44>
    c000151c:	fec45783          	lhu	a5,-20(s0)
    c0001520:	0017879b          	addiw	a5,a5,1
    c0001524:	fef41623          	sh	a5,-20(s0)
    c0001528:	fec45703          	lhu	a4,-20(s0)
    c000152c:	fdc45783          	lhu	a5,-36(s0)
    c0001530:	0007071b          	sext.w	a4,a4
    c0001534:	0007879b          	sext.w	a5,a5
    c0001538:	fef762e3          	bltu	a4,a5,c000151c <Delay+0x38>
    c000153c:	fee45783          	lhu	a5,-18(s0)
    c0001540:	0017879b          	addiw	a5,a5,1
    c0001544:	fef41723          	sh	a5,-18(s0)
    c0001548:	fee45703          	lhu	a4,-18(s0)
    c000154c:	fde45783          	lhu	a5,-34(s0)
    c0001550:	0007071b          	sext.w	a4,a4
    c0001554:	0007879b          	sext.w	a5,a5
    c0001558:	faf76ee3          	bltu	a4,a5,c0001514 <Delay+0x30>
    c000155c:	00000013          	nop
    c0001560:	02813403          	ld	s0,40(sp)
    c0001564:	03010113          	addi	sp,sp,48
    c0001568:	00008067          	ret

00000000c000156c <pausePlay>:
    c000156c:	ff010113          	addi	sp,sp,-16
    c0001570:	00113423          	sd	ra,8(sp)
    c0001574:	00813023          	sd	s0,0(sp)
    c0001578:	01010413          	addi	s0,sp,16
    c000157c:	00000613          	li	a2,0
    c0001580:	00000593          	li	a1,0
    c0001584:	00e00513          	li	a0,14
    c0001588:	e41ff0ef          	jal	ra,c00013c8 <sendCommand>
    c000158c:	7d000593          	li	a1,2000
    c0001590:	3e800513          	li	a0,1000
    c0001594:	f51ff0ef          	jal	ra,c00014e4 <Delay>
    c0001598:	00000013          	nop
    c000159c:	00813083          	ld	ra,8(sp)
    c00015a0:	00013403          	ld	s0,0(sp)
    c00015a4:	01010113          	addi	sp,sp,16
    c00015a8:	00008067          	ret

00000000c00015ac <play>:
    c00015ac:	ff010113          	addi	sp,sp,-16
    c00015b0:	00113423          	sd	ra,8(sp)
    c00015b4:	00813023          	sd	s0,0(sp)
    c00015b8:	01010413          	addi	s0,sp,16
    c00015bc:	00100613          	li	a2,1
    c00015c0:	00000593          	li	a1,0
    c00015c4:	00d00513          	li	a0,13
    c00015c8:	e01ff0ef          	jal	ra,c00013c8 <sendCommand>
    c00015cc:	7d000593          	li	a1,2000
    c00015d0:	3e800513          	li	a0,1000
    c00015d4:	f11ff0ef          	jal	ra,c00014e4 <Delay>
    c00015d8:	00000013          	nop
    c00015dc:	00813083          	ld	ra,8(sp)
    c00015e0:	00013403          	ld	s0,0(sp)
    c00015e4:	01010113          	addi	sp,sp,16
    c00015e8:	00008067          	ret

00000000c00015ec <playNext>:
    c00015ec:	ff010113          	addi	sp,sp,-16
    c00015f0:	00113423          	sd	ra,8(sp)
    c00015f4:	00813023          	sd	s0,0(sp)
    c00015f8:	01010413          	addi	s0,sp,16
    c00015fc:	00100613          	li	a2,1
    c0001600:	00000593          	li	a1,0
    c0001604:	00100513          	li	a0,1
    c0001608:	dc1ff0ef          	jal	ra,c00013c8 <sendCommand>
    c000160c:	7d000593          	li	a1,2000
    c0001610:	3e800513          	li	a0,1000
    c0001614:	ed1ff0ef          	jal	ra,c00014e4 <Delay>
    c0001618:	00000013          	nop
    c000161c:	00813083          	ld	ra,8(sp)
    c0001620:	00013403          	ld	s0,0(sp)
    c0001624:	01010113          	addi	sp,sp,16
    c0001628:	00008067          	ret

00000000c000162c <playPrevious>:
    c000162c:	ff010113          	addi	sp,sp,-16
    c0001630:	00113423          	sd	ra,8(sp)
    c0001634:	00813023          	sd	s0,0(sp)
    c0001638:	01010413          	addi	s0,sp,16
    c000163c:	00100613          	li	a2,1
    c0001640:	00000593          	li	a1,0
    c0001644:	00200513          	li	a0,2
    c0001648:	d81ff0ef          	jal	ra,c00013c8 <sendCommand>
    c000164c:	7d000593          	li	a1,2000
    c0001650:	3e800513          	li	a0,1000
    c0001654:	e91ff0ef          	jal	ra,c00014e4 <Delay>
    c0001658:	00000013          	nop
    c000165c:	00813083          	ld	ra,8(sp)
    c0001660:	00013403          	ld	s0,0(sp)
    c0001664:	01010113          	addi	sp,sp,16
    c0001668:	00008067          	ret

00000000c000166c <setVolume>:
    c000166c:	fe010113          	addi	sp,sp,-32
    c0001670:	00113c23          	sd	ra,24(sp)
    c0001674:	00813823          	sd	s0,16(sp)
    c0001678:	02010413          	addi	s0,sp,32
    c000167c:	00050793          	mv	a5,a0
    c0001680:	fef42623          	sw	a5,-20(s0)
    c0001684:	fec42783          	lw	a5,-20(s0)
    c0001688:	0ff7f793          	andi	a5,a5,255
    c000168c:	00078613          	mv	a2,a5
    c0001690:	00000593          	li	a1,0
    c0001694:	00600513          	li	a0,6
    c0001698:	d31ff0ef          	jal	ra,c00013c8 <sendCommand>
    c000169c:	7d000593          	li	a1,2000
    c00016a0:	3e800513          	li	a0,1000
    c00016a4:	e41ff0ef          	jal	ra,c00014e4 <Delay>
    c00016a8:	00000013          	nop
    c00016ac:	01813083          	ld	ra,24(sp)
    c00016b0:	01013403          	ld	s0,16(sp)
    c00016b4:	02010113          	addi	sp,sp,32
    c00016b8:	00008067          	ret

00000000c00016bc <playFirst>:
    c00016bc:	ff010113          	addi	sp,sp,-16
    c00016c0:	00113423          	sd	ra,8(sp)
    c00016c4:	00813023          	sd	s0,0(sp)
    c00016c8:	01010413          	addi	s0,sp,16
    c00016cc:	00001517          	auipc	a0,0x1
    c00016d0:	6fc50513          	addi	a0,a0,1788 # c0002dc8 <atol+0x138>
    c00016d4:	278010ef          	jal	ra,c000294c <printf>
    c00016d8:	00000613          	li	a2,0
    c00016dc:	00000593          	li	a1,0
    c00016e0:	03f00513          	li	a0,63
    c00016e4:	ce5ff0ef          	jal	ra,c00013c8 <sendCommand>
    c00016e8:	7d000593          	li	a1,2000
    c00016ec:	3e800513          	li	a0,1000
    c00016f0:	df5ff0ef          	jal	ra,c00014e4 <Delay>
    c00016f4:	01e00513          	li	a0,30
    c00016f8:	f75ff0ef          	jal	ra,c000166c <setVolume>
    c00016fc:	7d000593          	li	a1,2000
    c0001700:	3e800513          	li	a0,1000
    c0001704:	de1ff0ef          	jal	ra,c00014e4 <Delay>
    c0001708:	00100613          	li	a2,1
    c000170c:	00000593          	li	a1,0
    c0001710:	01100513          	li	a0,17
    c0001714:	cb5ff0ef          	jal	ra,c00013c8 <sendCommand>
    c0001718:	7d000593          	li	a1,2000
    c000171c:	3e800513          	li	a0,1000
    c0001720:	dc5ff0ef          	jal	ra,c00014e4 <Delay>
    c0001724:	00001517          	auipc	a0,0x1
    c0001728:	6c450513          	addi	a0,a0,1732 # c0002de8 <atol+0x158>
    c000172c:	220010ef          	jal	ra,c000294c <printf>
    c0001730:	00000013          	nop
    c0001734:	00813083          	ld	ra,8(sp)
    c0001738:	00013403          	ld	s0,0(sp)
    c000173c:	01010113          	addi	sp,sp,16
    c0001740:	00008067          	ret

00000000c0001744 <StopPlay>:
    c0001744:	ff010113          	addi	sp,sp,-16
    c0001748:	00113423          	sd	ra,8(sp)
    c000174c:	00813023          	sd	s0,0(sp)
    c0001750:	01010413          	addi	s0,sp,16
    c0001754:	00000613          	li	a2,0
    c0001758:	00000593          	li	a1,0
    c000175c:	01600513          	li	a0,22
    c0001760:	c69ff0ef          	jal	ra,c00013c8 <sendCommand>
    c0001764:	7d000593          	li	a1,2000
    c0001768:	3e800513          	li	a0,1000
    c000176c:	d79ff0ef          	jal	ra,c00014e4 <Delay>
    c0001770:	00000013          	nop
    c0001774:	00813083          	ld	ra,8(sp)
    c0001778:	00013403          	ld	s0,0(sp)
    c000177c:	01010113          	addi	sp,sp,16
    c0001780:	00008067          	ret

00000000c0001784 <Uart0InitBcm>:
    c0001784:	ff010113          	addi	sp,sp,-16
    c0001788:	00813423          	sd	s0,8(sp)
    c000178c:	01010413          	addi	s0,sp,16
    c0001790:	00011337          	lui	t1,0x11
    c0001794:	2003031b          	addiw	t1,t1,512
    c0001798:	08300393          	li	t2,131
    c000179c:	00730c23          	sb	t2,24(t1) # 11018 <_tbss_end+0x11014>
    c00017a0:	00000393          	li	t2,0
    c00017a4:	00030423          	sb	zero,8(t1)
    c00017a8:	00b00393          	li	t2,11
    c00017ac:	00730023          	sb	t2,0(t1)
    c00017b0:	00300393          	li	t2,3
    c00017b4:	00730c23          	sb	t2,24(t1)
    c00017b8:	00600393          	li	t2,6
    c00017bc:	00730823          	sb	t2,16(t1)
    c00017c0:	00030423          	sb	zero,8(t1)
    c00017c4:	00000793          	li	a5,0
    c00017c8:	00078513          	mv	a0,a5
    c00017cc:	00813403          	ld	s0,8(sp)
    c00017d0:	01010113          	addi	sp,sp,16
    c00017d4:	00008067          	ret

00000000c00017d8 <delay>:
    c00017d8:	fd010113          	addi	sp,sp,-48
    c00017dc:	02813423          	sd	s0,40(sp)
    c00017e0:	03010413          	addi	s0,sp,48
    c00017e4:	fca43c23          	sd	a0,-40(s0)
    c00017e8:	fcb43823          	sd	a1,-48(s0)
    c00017ec:	fe043423          	sd	zero,-24(s0)
    c00017f0:	0200006f          	j	c0001810 <delay+0x38>
    c00017f4:	fd043783          	ld	a5,-48(s0)
    c00017f8:	fef43423          	sd	a5,-24(s0)
    c00017fc:	00000013          	nop
    c0001800:	fe843783          	ld	a5,-24(s0)
    c0001804:	fff78713          	addi	a4,a5,-1
    c0001808:	fee43423          	sd	a4,-24(s0)
    c000180c:	fe079ae3          	bnez	a5,c0001800 <delay+0x28>
    c0001810:	fd843783          	ld	a5,-40(s0)
    c0001814:	fff78713          	addi	a4,a5,-1
    c0001818:	fce43c23          	sd	a4,-40(s0)
    c000181c:	fc079ce3          	bnez	a5,c00017f4 <delay+0x1c>
    c0001820:	00000013          	nop
    c0001824:	02813403          	ld	s0,40(sp)
    c0001828:	03010113          	addi	sp,sp,48
    c000182c:	00008067          	ret

00000000c0001830 <main>:
    c0001830:	ff010113          	addi	sp,sp,-16
    c0001834:	00113423          	sd	ra,8(sp)
    c0001838:	00813023          	sd	s0,0(sp)
    c000183c:	01010413          	addi	s0,sp,16
    c0001840:	0001c7b7          	lui	a5,0x1c
    c0001844:	20078513          	addi	a0,a5,512 # 1c200 <_tbss_end+0x1c1fc>
    c0001848:	f3dff0ef          	jal	ra,c0001784 <Uart0InitBcm>
    c000184c:	04700613          	li	a2,71
    c0001850:	00000593          	li	a1,0
    c0001854:	00000513          	li	a0,0
    c0001858:	ff0ff0ef          	jal	ra,c0001048 <WriteIntoUart>
    c000185c:	3e800593          	li	a1,1000
    c0001860:	00a00513          	li	a0,10
    c0001864:	f75ff0ef          	jal	ra,c00017d8 <delay>
    c0001868:	03200613          	li	a2,50
    c000186c:	00000593          	li	a1,0
    c0001870:	00000513          	li	a0,0
    c0001874:	fd4ff0ef          	jal	ra,c0001048 <WriteIntoUart>
    c0001878:	3e800593          	li	a1,1000
    c000187c:	00a00513          	li	a0,10
    c0001880:	f59ff0ef          	jal	ra,c00017d8 <delay>
    c0001884:	03800613          	li	a2,56
    c0001888:	00000593          	li	a1,0
    c000188c:	00000513          	li	a0,0
    c0001890:	fb8ff0ef          	jal	ra,c0001048 <WriteIntoUart>
    c0001894:	3e800593          	li	a1,1000
    c0001898:	00a00513          	li	a0,10
    c000189c:	f3dff0ef          	jal	ra,c00017d8 <delay>
    c00018a0:	02000613          	li	a2,32
    c00018a4:	00000593          	li	a1,0
    c00018a8:	00000513          	li	a0,0
    c00018ac:	f9cff0ef          	jal	ra,c0001048 <WriteIntoUart>
    c00018b0:	3e800593          	li	a1,1000
    c00018b4:	00a00513          	li	a0,10
    c00018b8:	f21ff0ef          	jal	ra,c00017d8 <delay>
    c00018bc:	05800613          	li	a2,88
    c00018c0:	00000593          	li	a1,0
    c00018c4:	00000513          	li	a0,0
    c00018c8:	f80ff0ef          	jal	ra,c0001048 <WriteIntoUart>
    c00018cc:	3e800593          	li	a1,1000
    c00018d0:	00a00513          	li	a0,10
    c00018d4:	f05ff0ef          	jal	ra,c00017d8 <delay>
    c00018d8:	00000013          	nop
    c00018dc:	00813083          	ld	ra,8(sp)
    c00018e0:	00013403          	ld	s0,0(sp)
    c00018e4:	01010113          	addi	sp,sp,16
    c00018e8:	00008067          	ret

00000000c00018ec <printArray>:
    c00018ec:	fd010113          	addi	sp,sp,-48
    c00018f0:	02813423          	sd	s0,40(sp)
    c00018f4:	03010413          	addi	s0,sp,48
    c00018f8:	fea43423          	sd	a0,-24(s0)
    c00018fc:	00058793          	mv	a5,a1
    c0001900:	fcc43c23          	sd	a2,-40(s0)
    c0001904:	fef42223          	sw	a5,-28(s0)
    c0001908:	00000013          	nop
    c000190c:	02813403          	ld	s0,40(sp)
    c0001910:	03010113          	addi	sp,sp,48
    c0001914:	00008067          	ret

00000000c0001918 <printDoubleArray>:
    c0001918:	fd010113          	addi	sp,sp,-48
    c000191c:	02813423          	sd	s0,40(sp)
    c0001920:	03010413          	addi	s0,sp,48
    c0001924:	fea43423          	sd	a0,-24(s0)
    c0001928:	00058793          	mv	a5,a1
    c000192c:	fcc43c23          	sd	a2,-40(s0)
    c0001930:	fef42223          	sw	a5,-28(s0)
    c0001934:	00000013          	nop
    c0001938:	02813403          	ld	s0,40(sp)
    c000193c:	03010113          	addi	sp,sp,48
    c0001940:	00008067          	ret

00000000c0001944 <verify>:
    c0001944:	fb010113          	addi	sp,sp,-80
    c0001948:	04813423          	sd	s0,72(sp)
    c000194c:	05010413          	addi	s0,sp,80
    c0001950:	00050793          	mv	a5,a0
    c0001954:	fcb43023          	sd	a1,-64(s0)
    c0001958:	fac43c23          	sd	a2,-72(s0)
    c000195c:	fcf42623          	sw	a5,-52(s0)
    c0001960:	fe042623          	sw	zero,-20(s0)
    c0001964:	0c00006f          	j	c0001a24 <verify+0xe0>
    c0001968:	fec42783          	lw	a5,-20(s0)
    c000196c:	00279793          	slli	a5,a5,0x2
    c0001970:	fc043703          	ld	a4,-64(s0)
    c0001974:	00f707b3          	add	a5,a4,a5
    c0001978:	0007a783          	lw	a5,0(a5)
    c000197c:	fef42423          	sw	a5,-24(s0)
    c0001980:	fec42783          	lw	a5,-20(s0)
    c0001984:	00178793          	addi	a5,a5,1
    c0001988:	00279793          	slli	a5,a5,0x2
    c000198c:	fc043703          	ld	a4,-64(s0)
    c0001990:	00f707b3          	add	a5,a4,a5
    c0001994:	0007a783          	lw	a5,0(a5)
    c0001998:	fef42223          	sw	a5,-28(s0)
    c000199c:	fec42783          	lw	a5,-20(s0)
    c00019a0:	00279793          	slli	a5,a5,0x2
    c00019a4:	fb843703          	ld	a4,-72(s0)
    c00019a8:	00f707b3          	add	a5,a4,a5
    c00019ac:	0007a783          	lw	a5,0(a5)
    c00019b0:	fef42023          	sw	a5,-32(s0)
    c00019b4:	fec42783          	lw	a5,-20(s0)
    c00019b8:	00178793          	addi	a5,a5,1
    c00019bc:	00279793          	slli	a5,a5,0x2
    c00019c0:	fb843703          	ld	a4,-72(s0)
    c00019c4:	00f707b3          	add	a5,a4,a5
    c00019c8:	0007a783          	lw	a5,0(a5)
    c00019cc:	fcf42e23          	sw	a5,-36(s0)
    c00019d0:	fe842703          	lw	a4,-24(s0)
    c00019d4:	fe042783          	lw	a5,-32(s0)
    c00019d8:	0007071b          	sext.w	a4,a4
    c00019dc:	0007879b          	sext.w	a5,a5
    c00019e0:	00f70a63          	beq	a4,a5,c00019f4 <verify+0xb0>
    c00019e4:	fec42783          	lw	a5,-20(s0)
    c00019e8:	0017879b          	addiw	a5,a5,1
    c00019ec:	0007879b          	sext.w	a5,a5
    c00019f0:	0b40006f          	j	c0001aa4 <verify+0x160>
    c00019f4:	fe442703          	lw	a4,-28(s0)
    c00019f8:	fdc42783          	lw	a5,-36(s0)
    c00019fc:	0007071b          	sext.w	a4,a4
    c0001a00:	0007879b          	sext.w	a5,a5
    c0001a04:	00f70a63          	beq	a4,a5,c0001a18 <verify+0xd4>
    c0001a08:	fec42783          	lw	a5,-20(s0)
    c0001a0c:	0027879b          	addiw	a5,a5,2
    c0001a10:	0007879b          	sext.w	a5,a5
    c0001a14:	0900006f          	j	c0001aa4 <verify+0x160>
    c0001a18:	fec42783          	lw	a5,-20(s0)
    c0001a1c:	0027879b          	addiw	a5,a5,2
    c0001a20:	fef42623          	sw	a5,-20(s0)
    c0001a24:	fcc42783          	lw	a5,-52(s0)
    c0001a28:	01f7d71b          	srliw	a4,a5,0x1f
    c0001a2c:	00f707bb          	addw	a5,a4,a5
    c0001a30:	4017d79b          	sraiw	a5,a5,0x1
    c0001a34:	0007879b          	sext.w	a5,a5
    c0001a38:	0017979b          	slliw	a5,a5,0x1
    c0001a3c:	0007871b          	sext.w	a4,a5
    c0001a40:	fec42783          	lw	a5,-20(s0)
    c0001a44:	0007879b          	sext.w	a5,a5
    c0001a48:	f2e7c0e3          	blt	a5,a4,c0001968 <verify+0x24>
    c0001a4c:	fcc42783          	lw	a5,-52(s0)
    c0001a50:	0017f793          	andi	a5,a5,1
    c0001a54:	0007879b          	sext.w	a5,a5
    c0001a58:	04078463          	beqz	a5,c0001aa0 <verify+0x15c>
    c0001a5c:	fcc42783          	lw	a5,-52(s0)
    c0001a60:	00279793          	slli	a5,a5,0x2
    c0001a64:	ffc78793          	addi	a5,a5,-4
    c0001a68:	fc043703          	ld	a4,-64(s0)
    c0001a6c:	00f707b3          	add	a5,a4,a5
    c0001a70:	0007a783          	lw	a5,0(a5)
    c0001a74:	0007869b          	sext.w	a3,a5
    c0001a78:	fcc42783          	lw	a5,-52(s0)
    c0001a7c:	00279793          	slli	a5,a5,0x2
    c0001a80:	ffc78793          	addi	a5,a5,-4
    c0001a84:	fb843703          	ld	a4,-72(s0)
    c0001a88:	00f707b3          	add	a5,a4,a5
    c0001a8c:	0007a783          	lw	a5,0(a5)
    c0001a90:	00068713          	mv	a4,a3
    c0001a94:	00f70663          	beq	a4,a5,c0001aa0 <verify+0x15c>
    c0001a98:	fcc42783          	lw	a5,-52(s0)
    c0001a9c:	0080006f          	j	c0001aa4 <verify+0x160>
    c0001aa0:	00000793          	li	a5,0
    c0001aa4:	00078513          	mv	a0,a5
    c0001aa8:	04813403          	ld	s0,72(sp)
    c0001aac:	05010113          	addi	sp,sp,80
    c0001ab0:	00008067          	ret

00000000c0001ab4 <verifyDouble>:
    c0001ab4:	fa010113          	addi	sp,sp,-96
    c0001ab8:	04813c23          	sd	s0,88(sp)
    c0001abc:	06010413          	addi	s0,sp,96
    c0001ac0:	00050793          	mv	a5,a0
    c0001ac4:	fab43823          	sd	a1,-80(s0)
    c0001ac8:	fac43423          	sd	a2,-88(s0)
    c0001acc:	faf42e23          	sw	a5,-68(s0)
    c0001ad0:	fe042623          	sw	zero,-20(s0)
    c0001ad4:	0d80006f          	j	c0001bac <verifyDouble+0xf8>
    c0001ad8:	fec42783          	lw	a5,-20(s0)
    c0001adc:	00379793          	slli	a5,a5,0x3
    c0001ae0:	fb043703          	ld	a4,-80(s0)
    c0001ae4:	00f707b3          	add	a5,a4,a5
    c0001ae8:	0007b787          	fld	fa5,0(a5)
    c0001aec:	fef43027          	fsd	fa5,-32(s0)
    c0001af0:	fec42783          	lw	a5,-20(s0)
    c0001af4:	00178793          	addi	a5,a5,1
    c0001af8:	00379793          	slli	a5,a5,0x3
    c0001afc:	fb043703          	ld	a4,-80(s0)
    c0001b00:	00f707b3          	add	a5,a4,a5
    c0001b04:	0007b787          	fld	fa5,0(a5)
    c0001b08:	fcf43c27          	fsd	fa5,-40(s0)
    c0001b0c:	fec42783          	lw	a5,-20(s0)
    c0001b10:	00379793          	slli	a5,a5,0x3
    c0001b14:	fa843703          	ld	a4,-88(s0)
    c0001b18:	00f707b3          	add	a5,a4,a5
    c0001b1c:	0007b787          	fld	fa5,0(a5)
    c0001b20:	fcf43827          	fsd	fa5,-48(s0)
    c0001b24:	fec42783          	lw	a5,-20(s0)
    c0001b28:	00178793          	addi	a5,a5,1
    c0001b2c:	00379793          	slli	a5,a5,0x3
    c0001b30:	fa843703          	ld	a4,-88(s0)
    c0001b34:	00f707b3          	add	a5,a4,a5
    c0001b38:	0007b787          	fld	fa5,0(a5)
    c0001b3c:	fcf43427          	fsd	fa5,-56(s0)
    c0001b40:	fe043707          	fld	fa4,-32(s0)
    c0001b44:	fd043787          	fld	fa5,-48(s0)
    c0001b48:	a2f727d3          	feq.d	a5,fa4,fa5
    c0001b4c:	00f037b3          	snez	a5,a5
    c0001b50:	0ff7f793          	andi	a5,a5,255
    c0001b54:	fcf42223          	sw	a5,-60(s0)
    c0001b58:	fd843707          	fld	fa4,-40(s0)
    c0001b5c:	fc843787          	fld	fa5,-56(s0)
    c0001b60:	a2f727d3          	feq.d	a5,fa4,fa5
    c0001b64:	00f037b3          	snez	a5,a5
    c0001b68:	0ff7f793          	andi	a5,a5,255
    c0001b6c:	fcf42023          	sw	a5,-64(s0)
    c0001b70:	fc442703          	lw	a4,-60(s0)
    c0001b74:	fc042783          	lw	a5,-64(s0)
    c0001b78:	00f777b3          	and	a5,a4,a5
    c0001b7c:	0007879b          	sext.w	a5,a5
    c0001b80:	02079063          	bnez	a5,c0001ba0 <verifyDouble+0xec>
    c0001b84:	fec42783          	lw	a5,-20(s0)
    c0001b88:	0017879b          	addiw	a5,a5,1
    c0001b8c:	0007879b          	sext.w	a5,a5
    c0001b90:	fc442703          	lw	a4,-60(s0)
    c0001b94:	00f707bb          	addw	a5,a4,a5
    c0001b98:	0007879b          	sext.w	a5,a5
    c0001b9c:	08c0006f          	j	c0001c28 <verifyDouble+0x174>
    c0001ba0:	fec42783          	lw	a5,-20(s0)
    c0001ba4:	0027879b          	addiw	a5,a5,2
    c0001ba8:	fef42623          	sw	a5,-20(s0)
    c0001bac:	fbc42783          	lw	a5,-68(s0)
    c0001bb0:	01f7d71b          	srliw	a4,a5,0x1f
    c0001bb4:	00f707bb          	addw	a5,a4,a5
    c0001bb8:	4017d79b          	sraiw	a5,a5,0x1
    c0001bbc:	0007879b          	sext.w	a5,a5
    c0001bc0:	0017979b          	slliw	a5,a5,0x1
    c0001bc4:	0007871b          	sext.w	a4,a5
    c0001bc8:	fec42783          	lw	a5,-20(s0)
    c0001bcc:	0007879b          	sext.w	a5,a5
    c0001bd0:	f0e7c4e3          	blt	a5,a4,c0001ad8 <verifyDouble+0x24>
    c0001bd4:	fbc42783          	lw	a5,-68(s0)
    c0001bd8:	0017f793          	andi	a5,a5,1
    c0001bdc:	0007879b          	sext.w	a5,a5
    c0001be0:	04078263          	beqz	a5,c0001c24 <verifyDouble+0x170>
    c0001be4:	fbc42783          	lw	a5,-68(s0)
    c0001be8:	00379793          	slli	a5,a5,0x3
    c0001bec:	ff878793          	addi	a5,a5,-8
    c0001bf0:	fb043703          	ld	a4,-80(s0)
    c0001bf4:	00f707b3          	add	a5,a4,a5
    c0001bf8:	0007b707          	fld	fa4,0(a5)
    c0001bfc:	fbc42783          	lw	a5,-68(s0)
    c0001c00:	00379793          	slli	a5,a5,0x3
    c0001c04:	ff878793          	addi	a5,a5,-8
    c0001c08:	fa843703          	ld	a4,-88(s0)
    c0001c0c:	00f707b3          	add	a5,a4,a5
    c0001c10:	0007b787          	fld	fa5,0(a5)
    c0001c14:	a2f727d3          	feq.d	a5,fa4,fa5
    c0001c18:	00079663          	bnez	a5,c0001c24 <verifyDouble+0x170>
    c0001c1c:	fbc42783          	lw	a5,-68(s0)
    c0001c20:	0080006f          	j	c0001c28 <verifyDouble+0x174>
    c0001c24:	00000793          	li	a5,0
    c0001c28:	00078513          	mv	a0,a5
    c0001c2c:	05813403          	ld	s0,88(sp)
    c0001c30:	06010113          	addi	sp,sp,96
    c0001c34:	00008067          	ret

00000000c0001c38 <barrier>:
    c0001c38:	fe010113          	addi	sp,sp,-32
    c0001c3c:	00813c23          	sd	s0,24(sp)
    c0001c40:	02010413          	addi	s0,sp,32
    c0001c44:	00050793          	mv	a5,a0
    c0001c48:	fef42623          	sw	a5,-20(s0)
    c0001c4c:	00022783          	lw	a5,0(tp) # 0 <_tdata_begin>
    c0001c50:	0017b793          	seqz	a5,a5
    c0001c54:	0ff7f793          	andi	a5,a5,255
    c0001c58:	0007871b          	sext.w	a4,a5
    c0001c5c:	00e22023          	sw	a4,0(tp) # 0 <_tdata_begin>
    c0001c60:	00001797          	auipc	a5,0x1
    c0001c64:	38878793          	addi	a5,a5,904 # c0002fe8 <count.2750>
    c0001c68:	00100713          	li	a4,1
    c0001c6c:	0f50000f          	fence	iorw,ow
    c0001c70:	04e7a6af          	amoadd.w.aq	a3,a4,(a5)
    c0001c74:	0006879b          	sext.w	a5,a3
    c0001c78:	0007871b          	sext.w	a4,a5
    c0001c7c:	fec42783          	lw	a5,-20(s0)
    c0001c80:	fff7879b          	addiw	a5,a5,-1
    c0001c84:	0007879b          	sext.w	a5,a5
    c0001c88:	02f71263          	bne	a4,a5,c0001cac <barrier+0x74>
    c0001c8c:	00001797          	auipc	a5,0x1
    c0001c90:	35c78793          	addi	a5,a5,860 # c0002fe8 <count.2750>
    c0001c94:	0007a023          	sw	zero,0(a5)
    c0001c98:	00022703          	lw	a4,0(tp) # 0 <_tdata_begin>
    c0001c9c:	00001797          	auipc	a5,0x1
    c0001ca0:	35078793          	addi	a5,a5,848 # c0002fec <sense.2749>
    c0001ca4:	00e7a023          	sw	a4,0(a5)
    c0001ca8:	0200006f          	j	c0001cc8 <barrier+0x90>
    c0001cac:	00000013          	nop
    c0001cb0:	00001797          	auipc	a5,0x1
    c0001cb4:	33c78793          	addi	a5,a5,828 # c0002fec <sense.2749>
    c0001cb8:	0007a783          	lw	a5,0(a5)
    c0001cbc:	0007871b          	sext.w	a4,a5
    c0001cc0:	00022783          	lw	a5,0(tp) # 0 <_tdata_begin>
    c0001cc4:	fef716e3          	bne	a4,a5,c0001cb0 <barrier+0x78>
    c0001cc8:	00000013          	nop
    c0001ccc:	01813403          	ld	s0,24(sp)
    c0001cd0:	02010113          	addi	sp,sp,32
    c0001cd4:	00008067          	ret

00000000c0001cd8 <lfsr>:
    c0001cd8:	fd010113          	addi	sp,sp,-48
    c0001cdc:	02813423          	sd	s0,40(sp)
    c0001ce0:	03010413          	addi	s0,sp,48
    c0001ce4:	fca43c23          	sd	a0,-40(s0)
    c0001ce8:	fd843783          	ld	a5,-40(s0)
    c0001cec:	0017d713          	srli	a4,a5,0x1
    c0001cf0:	fd843783          	ld	a5,-40(s0)
    c0001cf4:	00f747b3          	xor	a5,a4,a5
    c0001cf8:	0017f793          	andi	a5,a5,1
    c0001cfc:	fef43423          	sd	a5,-24(s0)
    c0001d00:	fd843783          	ld	a5,-40(s0)
    c0001d04:	0017d713          	srli	a4,a5,0x1
    c0001d08:	fe843783          	ld	a5,-24(s0)
    c0001d0c:	03e79793          	slli	a5,a5,0x3e
    c0001d10:	00f767b3          	or	a5,a4,a5
    c0001d14:	00078513          	mv	a0,a5
    c0001d18:	02813403          	ld	s0,40(sp)
    c0001d1c:	03010113          	addi	sp,sp,48
    c0001d20:	00008067          	ret

00000000c0001d24 <syscall>:
    c0001d24:	f5010113          	addi	sp,sp,-176
    c0001d28:	0a813423          	sd	s0,168(sp)
    c0001d2c:	0b010413          	addi	s0,sp,176
    c0001d30:	f6a43423          	sd	a0,-152(s0)
    c0001d34:	f6b43023          	sd	a1,-160(s0)
    c0001d38:	f4c43c23          	sd	a2,-168(s0)
    c0001d3c:	f4d43823          	sd	a3,-176(s0)
    c0001d40:	ff040793          	addi	a5,s0,-16
    c0001d44:	f8078793          	addi	a5,a5,-128
    c0001d48:	03f78793          	addi	a5,a5,63
    c0001d4c:	0067d793          	srli	a5,a5,0x6
    c0001d50:	00679793          	slli	a5,a5,0x6
    c0001d54:	f6843703          	ld	a4,-152(s0)
    c0001d58:	00e7b023          	sd	a4,0(a5)
    c0001d5c:	f6043703          	ld	a4,-160(s0)
    c0001d60:	00e7b423          	sd	a4,8(a5)
    c0001d64:	f5843703          	ld	a4,-168(s0)
    c0001d68:	00e7b823          	sd	a4,16(a5)
    c0001d6c:	f5043703          	ld	a4,-176(s0)
    c0001d70:	00e7bc23          	sd	a4,24(a5)
    c0001d74:	00078693          	mv	a3,a5
    c0001d78:	fffff717          	auipc	a4,0xfffff
    c0001d7c:	28870713          	addi	a4,a4,648 # c0001000 <tohost>
    c0001d80:	00d73023          	sd	a3,0(a4)
    c0001d84:	00000013          	nop
    c0001d88:	fffff717          	auipc	a4,0xfffff
    c0001d8c:	2b870713          	addi	a4,a4,696 # c0001040 <fromhost>
    c0001d90:	00073703          	ld	a4,0(a4)
    c0001d94:	fe070ae3          	beqz	a4,c0001d88 <syscall+0x64>
    c0001d98:	0007b783          	ld	a5,0(a5)
    c0001d9c:	00078513          	mv	a0,a5
    c0001da0:	0a813403          	ld	s0,168(sp)
    c0001da4:	0b010113          	addi	sp,sp,176
    c0001da8:	00008067          	ret

00000000c0001dac <setStats>:
    c0001dac:	fb010113          	addi	sp,sp,-80
    c0001db0:	04813423          	sd	s0,72(sp)
    c0001db4:	05010413          	addi	s0,sp,80
    c0001db8:	00050793          	mv	a5,a0
    c0001dbc:	faf42e23          	sw	a5,-68(s0)
    c0001dc0:	fc042e23          	sw	zero,-36(s0)
    c0001dc4:	fdc42783          	lw	a5,-36(s0)
    c0001dc8:	0007871b          	sext.w	a4,a5
    c0001dcc:	00100793          	li	a5,1
    c0001dd0:	fee7cae3          	blt	a5,a4,c0001dc4 <setStats+0x18>
    c0001dd4:	b00027f3          	csrr	a5,mcycle
    c0001dd8:	fcf43823          	sd	a5,-48(s0)
    c0001ddc:	fd043783          	ld	a5,-48(s0)
    c0001de0:	fef43423          	sd	a5,-24(s0)
    c0001de4:	fbc42783          	lw	a5,-68(s0)
    c0001de8:	0007879b          	sext.w	a5,a5
    c0001dec:	04079463          	bnez	a5,c0001e34 <setStats+0x88>
    c0001df0:	00001717          	auipc	a4,0x1
    c0001df4:	1d870713          	addi	a4,a4,472 # c0002fc8 <counters>
    c0001df8:	fdc42783          	lw	a5,-36(s0)
    c0001dfc:	00379793          	slli	a5,a5,0x3
    c0001e00:	00f707b3          	add	a5,a4,a5
    c0001e04:	0007b783          	ld	a5,0(a5)
    c0001e08:	fe843703          	ld	a4,-24(s0)
    c0001e0c:	40f707b3          	sub	a5,a4,a5
    c0001e10:	fef43423          	sd	a5,-24(s0)
    c0001e14:	00001717          	auipc	a4,0x1
    c0001e18:	1c470713          	addi	a4,a4,452 # c0002fd8 <counter_names>
    c0001e1c:	fdc42783          	lw	a5,-36(s0)
    c0001e20:	00379793          	slli	a5,a5,0x3
    c0001e24:	00f707b3          	add	a5,a4,a5
    c0001e28:	00001717          	auipc	a4,0x1
    c0001e2c:	fe870713          	addi	a4,a4,-24 # c0002e10 <atol+0x180>
    c0001e30:	00e7b023          	sd	a4,0(a5)
    c0001e34:	fdc42783          	lw	a5,-36(s0)
    c0001e38:	0017871b          	addiw	a4,a5,1
    c0001e3c:	fce42e23          	sw	a4,-36(s0)
    c0001e40:	00001717          	auipc	a4,0x1
    c0001e44:	18870713          	addi	a4,a4,392 # c0002fc8 <counters>
    c0001e48:	00379793          	slli	a5,a5,0x3
    c0001e4c:	00f707b3          	add	a5,a4,a5
    c0001e50:	fe843703          	ld	a4,-24(s0)
    c0001e54:	00e7b023          	sd	a4,0(a5)
    c0001e58:	fdc42783          	lw	a5,-36(s0)
    c0001e5c:	0007871b          	sext.w	a4,a5
    c0001e60:	00100793          	li	a5,1
    c0001e64:	fee7cae3          	blt	a5,a4,c0001e58 <setStats+0xac>
    c0001e68:	b02027f3          	csrr	a5,minstret
    c0001e6c:	fcf43423          	sd	a5,-56(s0)
    c0001e70:	fc843783          	ld	a5,-56(s0)
    c0001e74:	fef43023          	sd	a5,-32(s0)
    c0001e78:	fbc42783          	lw	a5,-68(s0)
    c0001e7c:	0007879b          	sext.w	a5,a5
    c0001e80:	04079463          	bnez	a5,c0001ec8 <setStats+0x11c>
    c0001e84:	00001717          	auipc	a4,0x1
    c0001e88:	14470713          	addi	a4,a4,324 # c0002fc8 <counters>
    c0001e8c:	fdc42783          	lw	a5,-36(s0)
    c0001e90:	00379793          	slli	a5,a5,0x3
    c0001e94:	00f707b3          	add	a5,a4,a5
    c0001e98:	0007b783          	ld	a5,0(a5)
    c0001e9c:	fe043703          	ld	a4,-32(s0)
    c0001ea0:	40f707b3          	sub	a5,a4,a5
    c0001ea4:	fef43023          	sd	a5,-32(s0)
    c0001ea8:	00001717          	auipc	a4,0x1
    c0001eac:	13070713          	addi	a4,a4,304 # c0002fd8 <counter_names>
    c0001eb0:	fdc42783          	lw	a5,-36(s0)
    c0001eb4:	00379793          	slli	a5,a5,0x3
    c0001eb8:	00f707b3          	add	a5,a4,a5
    c0001ebc:	00001717          	auipc	a4,0x1
    c0001ec0:	f5c70713          	addi	a4,a4,-164 # c0002e18 <atol+0x188>
    c0001ec4:	00e7b023          	sd	a4,0(a5)
    c0001ec8:	fdc42783          	lw	a5,-36(s0)
    c0001ecc:	0017871b          	addiw	a4,a5,1
    c0001ed0:	fce42e23          	sw	a4,-36(s0)
    c0001ed4:	00001717          	auipc	a4,0x1
    c0001ed8:	0f470713          	addi	a4,a4,244 # c0002fc8 <counters>
    c0001edc:	00379793          	slli	a5,a5,0x3
    c0001ee0:	00f707b3          	add	a5,a4,a5
    c0001ee4:	fe043703          	ld	a4,-32(s0)
    c0001ee8:	00e7b023          	sd	a4,0(a5)
    c0001eec:	00000013          	nop
    c0001ef0:	04813403          	ld	s0,72(sp)
    c0001ef4:	05010113          	addi	sp,sp,80
    c0001ef8:	00008067          	ret

00000000c0001efc <tohost_exit>:
    c0001efc:	fe010113          	addi	sp,sp,-32
    c0001f00:	00813c23          	sd	s0,24(sp)
    c0001f04:	02010413          	addi	s0,sp,32
    c0001f08:	fea43423          	sd	a0,-24(s0)
    c0001f0c:	00011337          	lui	t1,0x11
    c0001f10:	2003031b          	addiw	t1,t1,512

00000000c0001f14 <uart1_status>:
    c0001f14:	00830383          	lb	t2,8(t1) # 11008 <_tbss_end+0x11004>
    c0001f18:	0013f393          	andi	t2,t2,1
    c0001f1c:	fe038ce3          	beqz	t2,c0001f14 <uart1_status>
    c0001f20:	fe843783          	ld	a5,-24(s0)
    c0001f24:	00179793          	slli	a5,a5,0x1
    c0001f28:	0017e713          	ori	a4,a5,1
    c0001f2c:	fffff797          	auipc	a5,0xfffff
    c0001f30:	0d478793          	addi	a5,a5,212 # c0001000 <tohost>
    c0001f34:	00e7b023          	sd	a4,0(a5)
    c0001f38:	0000006f          	j	c0001f38 <uart1_status+0x24>

00000000c0001f3c <handle_trap>:
    c0001f3c:	fd010113          	addi	sp,sp,-48
    c0001f40:	02113423          	sd	ra,40(sp)
    c0001f44:	02813023          	sd	s0,32(sp)
    c0001f48:	03010413          	addi	s0,sp,48
    c0001f4c:	fea43423          	sd	a0,-24(s0)
    c0001f50:	feb43023          	sd	a1,-32(s0)
    c0001f54:	fcc43c23          	sd	a2,-40(s0)
    c0001f58:	53900513          	li	a0,1337
    c0001f5c:	fa1ff0ef          	jal	ra,c0001efc <tohost_exit>

00000000c0001f60 <exit>:
    c0001f60:	fe010113          	addi	sp,sp,-32
    c0001f64:	00113c23          	sd	ra,24(sp)
    c0001f68:	00813823          	sd	s0,16(sp)
    c0001f6c:	02010413          	addi	s0,sp,32
    c0001f70:	00050793          	mv	a5,a0
    c0001f74:	fef42623          	sw	a5,-20(s0)
    c0001f78:	fec42783          	lw	a5,-20(s0)
    c0001f7c:	00078513          	mv	a0,a5
    c0001f80:	f7dff0ef          	jal	ra,c0001efc <tohost_exit>

00000000c0001f84 <abort>:
    c0001f84:	ff010113          	addi	sp,sp,-16
    c0001f88:	00113423          	sd	ra,8(sp)
    c0001f8c:	00813023          	sd	s0,0(sp)
    c0001f90:	01010413          	addi	s0,sp,16
    c0001f94:	08600513          	li	a0,134
    c0001f98:	fc9ff0ef          	jal	ra,c0001f60 <exit>

00000000c0001f9c <printstr>:
    c0001f9c:	fd010113          	addi	sp,sp,-48
    c0001fa0:	02113423          	sd	ra,40(sp)
    c0001fa4:	02813023          	sd	s0,32(sp)
    c0001fa8:	00913c23          	sd	s1,24(sp)
    c0001fac:	03010413          	addi	s0,sp,48
    c0001fb0:	fca43c23          	sd	a0,-40(s0)
    c0001fb4:	fd843483          	ld	s1,-40(s0)
    c0001fb8:	fd843503          	ld	a0,-40(s0)
    c0001fbc:	341000ef          	jal	ra,c0002afc <strlen>
    c0001fc0:	00050793          	mv	a5,a0
    c0001fc4:	00078693          	mv	a3,a5
    c0001fc8:	00048613          	mv	a2,s1
    c0001fcc:	00100593          	li	a1,1
    c0001fd0:	04000513          	li	a0,64
    c0001fd4:	d51ff0ef          	jal	ra,c0001d24 <syscall>
    c0001fd8:	00000013          	nop
    c0001fdc:	02813083          	ld	ra,40(sp)
    c0001fe0:	02013403          	ld	s0,32(sp)
    c0001fe4:	01813483          	ld	s1,24(sp)
    c0001fe8:	03010113          	addi	sp,sp,48
    c0001fec:	00008067          	ret
    c0001ff0:	fe010113          	addi	sp,sp,-32
    c0001ff4:	00113c23          	sd	ra,24(sp)
    c0001ff8:	00813823          	sd	s0,16(sp)
    c0001ffc:	02010413          	addi	s0,sp,32
    c0002000:	00050793          	mv	a5,a0
    c0002004:	feb43023          	sd	a1,-32(s0)
    c0002008:	fef42623          	sw	a5,-20(s0)
    c000200c:	00001517          	auipc	a0,0x1
    c0002010:	e1c50513          	addi	a0,a0,-484 # c0002e28 <atol+0x198>
    c0002014:	f89ff0ef          	jal	ra,c0001f9c <printstr>
    c0002018:	fff00793          	li	a5,-1
    c000201c:	00078513          	mv	a0,a5
    c0002020:	01813083          	ld	ra,24(sp)
    c0002024:	01013403          	ld	s0,16(sp)
    c0002028:	02010113          	addi	sp,sp,32
    c000202c:	00008067          	ret

00000000c0002030 <getchar>:
    c0002030:	ff010113          	addi	sp,sp,-16
    c0002034:	00813423          	sd	s0,8(sp)
    c0002038:	01010413          	addi	s0,sp,16
    c000203c:	00011337          	lui	t1,0x11
    c0002040:	2003031b          	addiw	t1,t1,512

00000000c0002044 <uart_statusr>:
    c0002044:	02830383          	lb	t2,40(t1) # 11028 <_tbss_end+0x11024>
    c0002048:	0013f393          	andi	t2,t2,1
    c000204c:	fe038ce3          	beqz	t2,c0002044 <uart_statusr>
    c0002050:	00030503          	lb	a0,0(t1)
    c0002054:	0ff57793          	andi	a5,a0,255
    c0002058:	0007879b          	sext.w	a5,a5
    c000205c:	00078513          	mv	a0,a5
    c0002060:	00813403          	ld	s0,8(sp)
    c0002064:	01010113          	addi	sp,sp,16
    c0002068:	00008067          	ret

00000000c000206c <Uart0Init>:
    c000206c:	ff010113          	addi	sp,sp,-16
    c0002070:	00813423          	sd	s0,8(sp)
    c0002074:	01010413          	addi	s0,sp,16
    c0002078:	00011337          	lui	t1,0x11
    c000207c:	2003031b          	addiw	t1,t1,512
    c0002080:	08300393          	li	t2,131
    c0002084:	00730c23          	sb	t2,24(t1) # 11018 <_tbss_end+0x11014>
    c0002088:	00000393          	li	t2,0
    c000208c:	00030423          	sb	zero,8(t1)
    c0002090:	08200393          	li	t2,130
    c0002094:	00730023          	sb	t2,0(t1)
    c0002098:	00300393          	li	t2,3
    c000209c:	00730c23          	sb	t2,24(t1)
    c00020a0:	00600393          	li	t2,6
    c00020a4:	00730823          	sb	t2,16(t1)
    c00020a8:	00030423          	sb	zero,8(t1)
    c00020ac:	00000793          	li	a5,0
    c00020b0:	00078513          	mv	a0,a5
    c00020b4:	00813403          	ld	s0,8(sp)
    c00020b8:	01010113          	addi	sp,sp,16
    c00020bc:	00008067          	ret

00000000c00020c0 <putchar>:
    c00020c0:	fe010113          	addi	sp,sp,-32
    c00020c4:	00813c23          	sd	s0,24(sp)
    c00020c8:	02010413          	addi	s0,sp,32
    c00020cc:	00050793          	mv	a5,a0
    c00020d0:	fef42623          	sw	a5,-20(s0)
    c00020d4:	fec42783          	lw	a5,-20(s0)
    c00020d8:	0ff7f793          	andi	a5,a5,255
    c00020dc:	00078513          	mv	a0,a5
    c00020e0:	00011337          	lui	t1,0x11
    c00020e4:	2003031b          	addiw	t1,t1,512

00000000c00020e8 <uart_status>:
    c00020e8:	02830383          	lb	t2,40(t1) # 11028 <_tbss_end+0x11024>
    c00020ec:	0203f393          	andi	t2,t2,32
    c00020f0:	fe038ce3          	beqz	t2,c00020e8 <uart_status>
    c00020f4:	00a30023          	sb	a0,0(t1)
    c00020f8:	00000793          	li	a5,0
    c00020fc:	00078513          	mv	a0,a5
    c0002100:	01813403          	ld	s0,24(sp)
    c0002104:	02010113          	addi	sp,sp,32
    c0002108:	00008067          	ret

00000000c000210c <_init>:
    c000210c:	f4010113          	addi	sp,sp,-192
    c0002110:	0a113c23          	sd	ra,184(sp)
    c0002114:	0a813823          	sd	s0,176(sp)
    c0002118:	0a913423          	sd	s1,168(sp)
    c000211c:	0c010413          	addi	s0,sp,192
    c0002120:	00050793          	mv	a5,a0
    c0002124:	00058713          	mv	a4,a1
    c0002128:	f4f42623          	sw	a5,-180(s0)
    c000212c:	00070793          	mv	a5,a4
    c0002130:	f4f42423          	sw	a5,-184(s0)
    c0002134:	fe040793          	addi	a5,s0,-32
    c0002138:	f7078793          	addi	a5,a5,-144
    c000213c:	03f78793          	addi	a5,a5,63
    c0002140:	0067d793          	srli	a5,a5,0x6
    c0002144:	00679493          	slli	s1,a5,0x6
    c0002148:	00000593          	li	a1,0
    c000214c:	00000513          	li	a0,0
    c0002150:	ee0ff0ef          	jal	ra,c0001830 <main>
    c0002154:	00050793          	mv	a5,a0
    c0002158:	fcf42c23          	sw	a5,-40(s0)
    c000215c:	fc943823          	sd	s1,-48(s0)
    c0002160:	fc042e23          	sw	zero,-36(s0)
    c0002164:	0700006f          	j	c00021d4 <_init+0xc8>
    c0002168:	00001717          	auipc	a4,0x1
    c000216c:	e6070713          	addi	a4,a4,-416 # c0002fc8 <counters>
    c0002170:	fdc42783          	lw	a5,-36(s0)
    c0002174:	00379793          	slli	a5,a5,0x3
    c0002178:	00f707b3          	add	a5,a4,a5
    c000217c:	0007b783          	ld	a5,0(a5)
    c0002180:	04078463          	beqz	a5,c00021c8 <_init+0xbc>
    c0002184:	00001717          	auipc	a4,0x1
    c0002188:	e5470713          	addi	a4,a4,-428 # c0002fd8 <counter_names>
    c000218c:	fdc42783          	lw	a5,-36(s0)
    c0002190:	00379793          	slli	a5,a5,0x3
    c0002194:	00f707b3          	add	a5,a4,a5
    c0002198:	0007b683          	ld	a3,0(a5)
    c000219c:	00001717          	auipc	a4,0x1
    c00021a0:	e2c70713          	addi	a4,a4,-468 # c0002fc8 <counters>
    c00021a4:	fdc42783          	lw	a5,-36(s0)
    c00021a8:	00379793          	slli	a5,a5,0x3
    c00021ac:	00f707b3          	add	a5,a4,a5
    c00021b0:	0007b783          	ld	a5,0(a5)
    c00021b4:	00078613          	mv	a2,a5
    c00021b8:	00068593          	mv	a1,a3
    c00021bc:	00001517          	auipc	a0,0x1
    c00021c0:	c8450513          	addi	a0,a0,-892 # c0002e40 <atol+0x1b0>
    c00021c4:	788000ef          	jal	ra,c000294c <printf>
    c00021c8:	fdc42783          	lw	a5,-36(s0)
    c00021cc:	0017879b          	addiw	a5,a5,1
    c00021d0:	fcf42e23          	sw	a5,-36(s0)
    c00021d4:	fdc42783          	lw	a5,-36(s0)
    c00021d8:	0007871b          	sext.w	a4,a5
    c00021dc:	00100793          	li	a5,1
    c00021e0:	f8e7d4e3          	ble	a4,a5,c0002168 <_init+0x5c>
    c00021e4:	fd842783          	lw	a5,-40(s0)
    c00021e8:	00078513          	mv	a0,a5
    c00021ec:	d75ff0ef          	jal	ra,c0001f60 <exit>

00000000c00021f0 <printhex>:
    c00021f0:	fc010113          	addi	sp,sp,-64
    c00021f4:	02113c23          	sd	ra,56(sp)
    c00021f8:	02813823          	sd	s0,48(sp)
    c00021fc:	04010413          	addi	s0,sp,64
    c0002200:	fca43423          	sd	a0,-56(s0)
    c0002204:	fe042623          	sw	zero,-20(s0)
    c0002208:	06c0006f          	j	c0002274 <printhex+0x84>
    c000220c:	fc843783          	ld	a5,-56(s0)
    c0002210:	0ff7f793          	andi	a5,a5,255
    c0002214:	00f7f793          	andi	a5,a5,15
    c0002218:	0ff7f713          	andi	a4,a5,255
    c000221c:	fc843783          	ld	a5,-56(s0)
    c0002220:	00f7f693          	andi	a3,a5,15
    c0002224:	00900793          	li	a5,9
    c0002228:	00d7e663          	bltu	a5,a3,c0002234 <printhex+0x44>
    c000222c:	03000793          	li	a5,48
    c0002230:	0080006f          	j	c0002238 <printhex+0x48>
    c0002234:	05700793          	li	a5,87
    c0002238:	00f00613          	li	a2,15
    c000223c:	fec42683          	lw	a3,-20(s0)
    c0002240:	40d606bb          	subw	a3,a2,a3
    c0002244:	0006869b          	sext.w	a3,a3
    c0002248:	00e787bb          	addw	a5,a5,a4
    c000224c:	0ff7f713          	andi	a4,a5,255
    c0002250:	ff040793          	addi	a5,s0,-16
    c0002254:	00d787b3          	add	a5,a5,a3
    c0002258:	fee78423          	sb	a4,-24(a5)
    c000225c:	fc843783          	ld	a5,-56(s0)
    c0002260:	0047d793          	srli	a5,a5,0x4
    c0002264:	fcf43423          	sd	a5,-56(s0)
    c0002268:	fec42783          	lw	a5,-20(s0)
    c000226c:	0017879b          	addiw	a5,a5,1
    c0002270:	fef42623          	sw	a5,-20(s0)
    c0002274:	fec42783          	lw	a5,-20(s0)
    c0002278:	0007871b          	sext.w	a4,a5
    c000227c:	00f00793          	li	a5,15
    c0002280:	f8e7d6e3          	ble	a4,a5,c000220c <printhex+0x1c>
    c0002284:	fe040423          	sb	zero,-24(s0)
    c0002288:	fd840793          	addi	a5,s0,-40
    c000228c:	00078513          	mv	a0,a5
    c0002290:	d0dff0ef          	jal	ra,c0001f9c <printstr>
    c0002294:	00000013          	nop
    c0002298:	03813083          	ld	ra,56(sp)
    c000229c:	03013403          	ld	s0,48(sp)
    c00022a0:	04010113          	addi	sp,sp,64
    c00022a4:	00008067          	ret

00000000c00022a8 <printnum>:
    c00022a8:	eb010113          	addi	sp,sp,-336
    c00022ac:	14113423          	sd	ra,328(sp)
    c00022b0:	14813023          	sd	s0,320(sp)
    c00022b4:	15010413          	addi	s0,sp,336
    c00022b8:	eca43c23          	sd	a0,-296(s0)
    c00022bc:	ecb43823          	sd	a1,-304(s0)
    c00022c0:	ecc43423          	sd	a2,-312(s0)
    c00022c4:	00068613          	mv	a2,a3
    c00022c8:	00070693          	mv	a3,a4
    c00022cc:	00078713          	mv	a4,a5
    c00022d0:	00060793          	mv	a5,a2
    c00022d4:	ecf42223          	sw	a5,-316(s0)
    c00022d8:	00068793          	mv	a5,a3
    c00022dc:	ecf42023          	sw	a5,-320(s0)
    c00022e0:	00070793          	mv	a5,a4
    c00022e4:	eaf42e23          	sw	a5,-324(s0)
    c00022e8:	fe042623          	sw	zero,-20(s0)
    c00022ec:	ec446783          	lwu	a5,-316(s0)
    c00022f0:	ec843703          	ld	a4,-312(s0)
    c00022f4:	02f776b3          	remu	a3,a4,a5
    c00022f8:	fec42783          	lw	a5,-20(s0)
    c00022fc:	0017871b          	addiw	a4,a5,1
    c0002300:	fee42623          	sw	a4,-20(s0)
    c0002304:	0006871b          	sext.w	a4,a3
    c0002308:	00279793          	slli	a5,a5,0x2
    c000230c:	ff040693          	addi	a3,s0,-16
    c0002310:	00f687b3          	add	a5,a3,a5
    c0002314:	eee7ac23          	sw	a4,-264(a5)
    c0002318:	ec446783          	lwu	a5,-316(s0)
    c000231c:	ec843703          	ld	a4,-312(s0)
    c0002320:	00f76c63          	bltu	a4,a5,c0002338 <printnum+0x90>
    c0002324:	ec446783          	lwu	a5,-316(s0)
    c0002328:	ec843703          	ld	a4,-312(s0)
    c000232c:	02f757b3          	divu	a5,a4,a5
    c0002330:	ecf43423          	sd	a5,-312(s0)
    c0002334:	fb9ff06f          	j	c00022ec <printnum+0x44>
    c0002338:	00000013          	nop
    c000233c:	0180006f          	j	c0002354 <printnum+0xac>
    c0002340:	ebc42783          	lw	a5,-324(s0)
    c0002344:	ed843703          	ld	a4,-296(s0)
    c0002348:	ed043583          	ld	a1,-304(s0)
    c000234c:	00078513          	mv	a0,a5
    c0002350:	000700e7          	jalr	a4
    c0002354:	ec042783          	lw	a5,-320(s0)
    c0002358:	fff7871b          	addiw	a4,a5,-1
    c000235c:	ece42023          	sw	a4,-320(s0)
    c0002360:	fec42703          	lw	a4,-20(s0)
    c0002364:	0007071b          	sext.w	a4,a4
    c0002368:	fcf74ce3          	blt	a4,a5,c0002340 <printnum+0x98>
    c000236c:	0600006f          	j	c00023cc <printnum+0x124>
    c0002370:	fec42783          	lw	a5,-20(s0)
    c0002374:	00279793          	slli	a5,a5,0x2
    c0002378:	ff040713          	addi	a4,s0,-16
    c000237c:	00f707b3          	add	a5,a4,a5
    c0002380:	ef87a703          	lw	a4,-264(a5)
    c0002384:	fec42783          	lw	a5,-20(s0)
    c0002388:	00279793          	slli	a5,a5,0x2
    c000238c:	ff040693          	addi	a3,s0,-16
    c0002390:	00f687b3          	add	a5,a3,a5
    c0002394:	ef87a783          	lw	a5,-264(a5)
    c0002398:	00078693          	mv	a3,a5
    c000239c:	00900793          	li	a5,9
    c00023a0:	00d7f663          	bleu	a3,a5,c00023ac <printnum+0x104>
    c00023a4:	05700793          	li	a5,87
    c00023a8:	0080006f          	j	c00023b0 <printnum+0x108>
    c00023ac:	03000793          	li	a5,48
    c00023b0:	00e787bb          	addw	a5,a5,a4
    c00023b4:	0007879b          	sext.w	a5,a5
    c00023b8:	0007879b          	sext.w	a5,a5
    c00023bc:	ed843703          	ld	a4,-296(s0)
    c00023c0:	ed043583          	ld	a1,-304(s0)
    c00023c4:	00078513          	mv	a0,a5
    c00023c8:	000700e7          	jalr	a4
    c00023cc:	fec42783          	lw	a5,-20(s0)
    c00023d0:	fff7871b          	addiw	a4,a5,-1
    c00023d4:	fee42623          	sw	a4,-20(s0)
    c00023d8:	f8f04ce3          	bgtz	a5,c0002370 <printnum+0xc8>
    c00023dc:	00000013          	nop
    c00023e0:	14813083          	ld	ra,328(sp)
    c00023e4:	14013403          	ld	s0,320(sp)
    c00023e8:	15010113          	addi	sp,sp,336
    c00023ec:	00008067          	ret

00000000c00023f0 <getuint>:
    c00023f0:	fe010113          	addi	sp,sp,-32
    c00023f4:	00813c23          	sd	s0,24(sp)
    c00023f8:	02010413          	addi	s0,sp,32
    c00023fc:	fea43423          	sd	a0,-24(s0)
    c0002400:	00058793          	mv	a5,a1
    c0002404:	fef42223          	sw	a5,-28(s0)
    c0002408:	fe442783          	lw	a5,-28(s0)
    c000240c:	0007871b          	sext.w	a4,a5
    c0002410:	00100793          	li	a5,1
    c0002414:	02e7d063          	ble	a4,a5,c0002434 <getuint+0x44>
    c0002418:	fe843783          	ld	a5,-24(s0)
    c000241c:	0007b783          	ld	a5,0(a5)
    c0002420:	00878693          	addi	a3,a5,8
    c0002424:	fe843703          	ld	a4,-24(s0)
    c0002428:	00d73023          	sd	a3,0(a4)
    c000242c:	0007b783          	ld	a5,0(a5)
    c0002430:	04c0006f          	j	c000247c <getuint+0x8c>
    c0002434:	fe442783          	lw	a5,-28(s0)
    c0002438:	0007879b          	sext.w	a5,a5
    c000243c:	02078063          	beqz	a5,c000245c <getuint+0x6c>
    c0002440:	fe843783          	ld	a5,-24(s0)
    c0002444:	0007b783          	ld	a5,0(a5)
    c0002448:	00878693          	addi	a3,a5,8
    c000244c:	fe843703          	ld	a4,-24(s0)
    c0002450:	00d73023          	sd	a3,0(a4)
    c0002454:	0007b783          	ld	a5,0(a5)
    c0002458:	0240006f          	j	c000247c <getuint+0x8c>
    c000245c:	fe843783          	ld	a5,-24(s0)
    c0002460:	0007b783          	ld	a5,0(a5)
    c0002464:	00878693          	addi	a3,a5,8
    c0002468:	fe843703          	ld	a4,-24(s0)
    c000246c:	00d73023          	sd	a3,0(a4)
    c0002470:	0007a783          	lw	a5,0(a5)
    c0002474:	02079793          	slli	a5,a5,0x20
    c0002478:	0207d793          	srli	a5,a5,0x20
    c000247c:	00078513          	mv	a0,a5
    c0002480:	01813403          	ld	s0,24(sp)
    c0002484:	02010113          	addi	sp,sp,32
    c0002488:	00008067          	ret

00000000c000248c <getint>:
    c000248c:	fe010113          	addi	sp,sp,-32
    c0002490:	00813c23          	sd	s0,24(sp)
    c0002494:	02010413          	addi	s0,sp,32
    c0002498:	fea43423          	sd	a0,-24(s0)
    c000249c:	00058793          	mv	a5,a1
    c00024a0:	fef42223          	sw	a5,-28(s0)
    c00024a4:	fe442783          	lw	a5,-28(s0)
    c00024a8:	0007871b          	sext.w	a4,a5
    c00024ac:	00100793          	li	a5,1
    c00024b0:	02e7d063          	ble	a4,a5,c00024d0 <getint+0x44>
    c00024b4:	fe843783          	ld	a5,-24(s0)
    c00024b8:	0007b783          	ld	a5,0(a5)
    c00024bc:	00878693          	addi	a3,a5,8
    c00024c0:	fe843703          	ld	a4,-24(s0)
    c00024c4:	00d73023          	sd	a3,0(a4)
    c00024c8:	0007b783          	ld	a5,0(a5)
    c00024cc:	0440006f          	j	c0002510 <getint+0x84>
    c00024d0:	fe442783          	lw	a5,-28(s0)
    c00024d4:	0007879b          	sext.w	a5,a5
    c00024d8:	02078063          	beqz	a5,c00024f8 <getint+0x6c>
    c00024dc:	fe843783          	ld	a5,-24(s0)
    c00024e0:	0007b783          	ld	a5,0(a5)
    c00024e4:	00878693          	addi	a3,a5,8
    c00024e8:	fe843703          	ld	a4,-24(s0)
    c00024ec:	00d73023          	sd	a3,0(a4)
    c00024f0:	0007b783          	ld	a5,0(a5)
    c00024f4:	01c0006f          	j	c0002510 <getint+0x84>
    c00024f8:	fe843783          	ld	a5,-24(s0)
    c00024fc:	0007b783          	ld	a5,0(a5)
    c0002500:	00878693          	addi	a3,a5,8
    c0002504:	fe843703          	ld	a4,-24(s0)
    c0002508:	00d73023          	sd	a3,0(a4)
    c000250c:	0007a783          	lw	a5,0(a5)
    c0002510:	00078513          	mv	a0,a5
    c0002514:	01813403          	ld	s0,24(sp)
    c0002518:	02010113          	addi	sp,sp,32
    c000251c:	00008067          	ret

00000000c0002520 <vprintfmt>:
    c0002520:	f9010113          	addi	sp,sp,-112
    c0002524:	06113423          	sd	ra,104(sp)
    c0002528:	06813023          	sd	s0,96(sp)
    c000252c:	04913c23          	sd	s1,88(sp)
    c0002530:	05213823          	sd	s2,80(sp)
    c0002534:	07010413          	addi	s0,sp,112
    c0002538:	faa43423          	sd	a0,-88(s0)
    c000253c:	fab43023          	sd	a1,-96(s0)
    c0002540:	f8c43c23          	sd	a2,-104(s0)
    c0002544:	f8d43823          	sd	a3,-112(s0)
    c0002548:	0240006f          	j	c000256c <vprintfmt+0x4c>
    c000254c:	3e048263          	beqz	s1,c0002930 <vprintfmt+0x410>
    c0002550:	f9843783          	ld	a5,-104(s0)
    c0002554:	00178793          	addi	a5,a5,1
    c0002558:	f8f43c23          	sd	a5,-104(s0)
    c000255c:	fa843783          	ld	a5,-88(s0)
    c0002560:	fa043583          	ld	a1,-96(s0)
    c0002564:	00048513          	mv	a0,s1
    c0002568:	000780e7          	jalr	a5
    c000256c:	f9843783          	ld	a5,-104(s0)
    c0002570:	0007c783          	lbu	a5,0(a5)
    c0002574:	0007849b          	sext.w	s1,a5
    c0002578:	00048713          	mv	a4,s1
    c000257c:	02500793          	li	a5,37
    c0002580:	fcf716e3          	bne	a4,a5,c000254c <vprintfmt+0x2c>
    c0002584:	f9843783          	ld	a5,-104(s0)
    c0002588:	00178793          	addi	a5,a5,1
    c000258c:	f8f43c23          	sd	a5,-104(s0)
    c0002590:	f9843783          	ld	a5,-104(s0)
    c0002594:	faf43c23          	sd	a5,-72(s0)
    c0002598:	02000793          	li	a5,32
    c000259c:	fcf403a3          	sb	a5,-57(s0)
    c00025a0:	fff00793          	li	a5,-1
    c00025a4:	fcf42623          	sw	a5,-52(s0)
    c00025a8:	fff00793          	li	a5,-1
    c00025ac:	fcf42423          	sw	a5,-56(s0)
    c00025b0:	fc042823          	sw	zero,-48(s0)
    c00025b4:	fa042a23          	sw	zero,-76(s0)
    c00025b8:	f9843783          	ld	a5,-104(s0)
    c00025bc:	00178713          	addi	a4,a5,1
    c00025c0:	f8e43c23          	sd	a4,-104(s0)
    c00025c4:	0007c783          	lbu	a5,0(a5)
    c00025c8:	0007849b          	sext.w	s1,a5
    c00025cc:	fdd4869b          	addiw	a3,s1,-35
    c00025d0:	0006871b          	sext.w	a4,a3
    c00025d4:	05500793          	li	a5,85
    c00025d8:	32e7ec63          	bltu	a5,a4,c0002910 <vprintfmt+0x3f0>
    c00025dc:	02069793          	slli	a5,a3,0x20
    c00025e0:	0207d793          	srli	a5,a5,0x20
    c00025e4:	00279713          	slli	a4,a5,0x2
    c00025e8:	00001797          	auipc	a5,0x1
    c00025ec:	87078793          	addi	a5,a5,-1936 # c0002e58 <atol+0x1c8>
    c00025f0:	00f707b3          	add	a5,a4,a5
    c00025f4:	0007a783          	lw	a5,0(a5)
    c00025f8:	0007871b          	sext.w	a4,a5
    c00025fc:	00001797          	auipc	a5,0x1
    c0002600:	85c78793          	addi	a5,a5,-1956 # c0002e58 <atol+0x1c8>
    c0002604:	00f707b3          	add	a5,a4,a5
    c0002608:	00078067          	jr	a5
    c000260c:	02d00793          	li	a5,45
    c0002610:	fcf403a3          	sb	a5,-57(s0)
    c0002614:	fa5ff06f          	j	c00025b8 <vprintfmt+0x98>
    c0002618:	03000793          	li	a5,48
    c000261c:	fcf403a3          	sb	a5,-57(s0)
    c0002620:	f99ff06f          	j	c00025b8 <vprintfmt+0x98>
    c0002624:	fc042423          	sw	zero,-56(s0)
    c0002628:	fc842703          	lw	a4,-56(s0)
    c000262c:	00070793          	mv	a5,a4
    c0002630:	0027979b          	slliw	a5,a5,0x2
    c0002634:	00e787bb          	addw	a5,a5,a4
    c0002638:	0017979b          	slliw	a5,a5,0x1
    c000263c:	0007879b          	sext.w	a5,a5
    c0002640:	00f487bb          	addw	a5,s1,a5
    c0002644:	0007879b          	sext.w	a5,a5
    c0002648:	fd07879b          	addiw	a5,a5,-48
    c000264c:	fcf42423          	sw	a5,-56(s0)
    c0002650:	f9843783          	ld	a5,-104(s0)
    c0002654:	0007c783          	lbu	a5,0(a5)
    c0002658:	0007849b          	sext.w	s1,a5
    c000265c:	00048713          	mv	a4,s1
    c0002660:	02f00793          	li	a5,47
    c0002664:	04e7dc63          	ble	a4,a5,c00026bc <vprintfmt+0x19c>
    c0002668:	00048713          	mv	a4,s1
    c000266c:	03900793          	li	a5,57
    c0002670:	04e7c663          	blt	a5,a4,c00026bc <vprintfmt+0x19c>
    c0002674:	f9843783          	ld	a5,-104(s0)
    c0002678:	00178793          	addi	a5,a5,1
    c000267c:	f8f43c23          	sd	a5,-104(s0)
    c0002680:	fa9ff06f          	j	c0002628 <vprintfmt+0x108>
    c0002684:	f9043783          	ld	a5,-112(s0)
    c0002688:	00878713          	addi	a4,a5,8
    c000268c:	f8e43823          	sd	a4,-112(s0)
    c0002690:	0007a783          	lw	a5,0(a5)
    c0002694:	fcf42423          	sw	a5,-56(s0)
    c0002698:	0280006f          	j	c00026c0 <vprintfmt+0x1a0>
    c000269c:	fcc42783          	lw	a5,-52(s0)
    c00026a0:	0007879b          	sext.w	a5,a5
    c00026a4:	f007dae3          	bgez	a5,c00025b8 <vprintfmt+0x98>
    c00026a8:	fc042623          	sw	zero,-52(s0)
    c00026ac:	f0dff06f          	j	c00025b8 <vprintfmt+0x98>
    c00026b0:	00100793          	li	a5,1
    c00026b4:	faf42a23          	sw	a5,-76(s0)
    c00026b8:	f01ff06f          	j	c00025b8 <vprintfmt+0x98>
    c00026bc:	00000013          	nop
    c00026c0:	fcc42783          	lw	a5,-52(s0)
    c00026c4:	0007879b          	sext.w	a5,a5
    c00026c8:	ee07d8e3          	bgez	a5,c00025b8 <vprintfmt+0x98>
    c00026cc:	fc842783          	lw	a5,-56(s0)
    c00026d0:	fcf42623          	sw	a5,-52(s0)
    c00026d4:	fff00793          	li	a5,-1
    c00026d8:	fcf42423          	sw	a5,-56(s0)
    c00026dc:	eddff06f          	j	c00025b8 <vprintfmt+0x98>
    c00026e0:	fd042783          	lw	a5,-48(s0)
    c00026e4:	0017879b          	addiw	a5,a5,1
    c00026e8:	fcf42823          	sw	a5,-48(s0)
    c00026ec:	ecdff06f          	j	c00025b8 <vprintfmt+0x98>
    c00026f0:	f9043783          	ld	a5,-112(s0)
    c00026f4:	00878713          	addi	a4,a5,8
    c00026f8:	f8e43823          	sd	a4,-112(s0)
    c00026fc:	0007a783          	lw	a5,0(a5)
    c0002700:	fa843703          	ld	a4,-88(s0)
    c0002704:	fa043583          	ld	a1,-96(s0)
    c0002708:	00078513          	mv	a0,a5
    c000270c:	000700e7          	jalr	a4
    c0002710:	21c0006f          	j	c000292c <vprintfmt+0x40c>
    c0002714:	f9043783          	ld	a5,-112(s0)
    c0002718:	00878713          	addi	a4,a5,8
    c000271c:	f8e43823          	sd	a4,-112(s0)
    c0002720:	0007b903          	ld	s2,0(a5)
    c0002724:	00091663          	bnez	s2,c0002730 <vprintfmt+0x210>
    c0002728:	00000917          	auipc	s2,0x0
    c000272c:	72890913          	addi	s2,s2,1832 # c0002e50 <atol+0x1c0>
    c0002730:	fcc42783          	lw	a5,-52(s0)
    c0002734:	0007879b          	sext.w	a5,a5
    c0002738:	08f05a63          	blez	a5,c00027cc <vprintfmt+0x2ac>
    c000273c:	fc744783          	lbu	a5,-57(s0)
    c0002740:	0ff7f713          	andi	a4,a5,255
    c0002744:	02d00793          	li	a5,45
    c0002748:	08f70263          	beq	a4,a5,c00027cc <vprintfmt+0x2ac>
    c000274c:	fc842783          	lw	a5,-56(s0)
    c0002750:	00078593          	mv	a1,a5
    c0002754:	00090513          	mv	a0,s2
    c0002758:	3f4000ef          	jal	ra,c0002b4c <strnlen>
    c000275c:	00050793          	mv	a5,a0
    c0002760:	fcc42703          	lw	a4,-52(s0)
    c0002764:	0007879b          	sext.w	a5,a5
    c0002768:	40f707bb          	subw	a5,a4,a5
    c000276c:	0007879b          	sext.w	a5,a5
    c0002770:	fcf42623          	sw	a5,-52(s0)
    c0002774:	0280006f          	j	c000279c <vprintfmt+0x27c>
    c0002778:	fc744783          	lbu	a5,-57(s0)
    c000277c:	0007879b          	sext.w	a5,a5
    c0002780:	fa843703          	ld	a4,-88(s0)
    c0002784:	fa043583          	ld	a1,-96(s0)
    c0002788:	00078513          	mv	a0,a5
    c000278c:	000700e7          	jalr	a4
    c0002790:	fcc42783          	lw	a5,-52(s0)
    c0002794:	fff7879b          	addiw	a5,a5,-1
    c0002798:	fcf42623          	sw	a5,-52(s0)
    c000279c:	fcc42783          	lw	a5,-52(s0)
    c00027a0:	0007879b          	sext.w	a5,a5
    c00027a4:	fcf04ae3          	bgtz	a5,c0002778 <vprintfmt+0x258>
    c00027a8:	0240006f          	j	c00027cc <vprintfmt+0x2ac>
    c00027ac:	fa843783          	ld	a5,-88(s0)
    c00027b0:	fa043583          	ld	a1,-96(s0)
    c00027b4:	00048513          	mv	a0,s1
    c00027b8:	000780e7          	jalr	a5
    c00027bc:	00190913          	addi	s2,s2,1
    c00027c0:	fcc42783          	lw	a5,-52(s0)
    c00027c4:	fff7879b          	addiw	a5,a5,-1
    c00027c8:	fcf42623          	sw	a5,-52(s0)
    c00027cc:	00094783          	lbu	a5,0(s2)
    c00027d0:	0007849b          	sext.w	s1,a5
    c00027d4:	04048463          	beqz	s1,c000281c <vprintfmt+0x2fc>
    c00027d8:	fc842783          	lw	a5,-56(s0)
    c00027dc:	0007879b          	sext.w	a5,a5
    c00027e0:	fc07c6e3          	bltz	a5,c00027ac <vprintfmt+0x28c>
    c00027e4:	fc842783          	lw	a5,-56(s0)
    c00027e8:	fff7879b          	addiw	a5,a5,-1
    c00027ec:	fcf42423          	sw	a5,-56(s0)
    c00027f0:	fc842783          	lw	a5,-56(s0)
    c00027f4:	0007879b          	sext.w	a5,a5
    c00027f8:	fa07dae3          	bgez	a5,c00027ac <vprintfmt+0x28c>
    c00027fc:	0200006f          	j	c000281c <vprintfmt+0x2fc>
    c0002800:	fa843783          	ld	a5,-88(s0)
    c0002804:	fa043583          	ld	a1,-96(s0)
    c0002808:	02000513          	li	a0,32
    c000280c:	000780e7          	jalr	a5
    c0002810:	fcc42783          	lw	a5,-52(s0)
    c0002814:	fff7879b          	addiw	a5,a5,-1
    c0002818:	fcf42623          	sw	a5,-52(s0)
    c000281c:	fcc42783          	lw	a5,-52(s0)
    c0002820:	0007879b          	sext.w	a5,a5
    c0002824:	fcf04ee3          	bgtz	a5,c0002800 <vprintfmt+0x2e0>
    c0002828:	1040006f          	j	c000292c <vprintfmt+0x40c>
    c000282c:	fd042703          	lw	a4,-48(s0)
    c0002830:	f9040793          	addi	a5,s0,-112
    c0002834:	00070593          	mv	a1,a4
    c0002838:	00078513          	mv	a0,a5
    c000283c:	c51ff0ef          	jal	ra,c000248c <getint>
    c0002840:	00050793          	mv	a5,a0
    c0002844:	fcf43c23          	sd	a5,-40(s0)
    c0002848:	fd843783          	ld	a5,-40(s0)
    c000284c:	0207d063          	bgez	a5,c000286c <vprintfmt+0x34c>
    c0002850:	fa843783          	ld	a5,-88(s0)
    c0002854:	fa043583          	ld	a1,-96(s0)
    c0002858:	02d00513          	li	a0,45
    c000285c:	000780e7          	jalr	a5
    c0002860:	fd843783          	ld	a5,-40(s0)
    c0002864:	40f007b3          	neg	a5,a5
    c0002868:	fcf43c23          	sd	a5,-40(s0)
    c000286c:	00a00793          	li	a5,10
    c0002870:	fcf42a23          	sw	a5,-44(s0)
    c0002874:	0640006f          	j	c00028d8 <vprintfmt+0x3b8>
    c0002878:	00a00793          	li	a5,10
    c000287c:	fcf42a23          	sw	a5,-44(s0)
    c0002880:	0400006f          	j	c00028c0 <vprintfmt+0x3a0>
    c0002884:	00800793          	li	a5,8
    c0002888:	fcf42a23          	sw	a5,-44(s0)
    c000288c:	0340006f          	j	c00028c0 <vprintfmt+0x3a0>
    c0002890:	00100793          	li	a5,1
    c0002894:	fcf42823          	sw	a5,-48(s0)
    c0002898:	fa843783          	ld	a5,-88(s0)
    c000289c:	fa043583          	ld	a1,-96(s0)
    c00028a0:	03000513          	li	a0,48
    c00028a4:	000780e7          	jalr	a5
    c00028a8:	fa843783          	ld	a5,-88(s0)
    c00028ac:	fa043583          	ld	a1,-96(s0)
    c00028b0:	07800513          	li	a0,120
    c00028b4:	000780e7          	jalr	a5
    c00028b8:	01000793          	li	a5,16
    c00028bc:	fcf42a23          	sw	a5,-44(s0)
    c00028c0:	fd042703          	lw	a4,-48(s0)
    c00028c4:	f9040793          	addi	a5,s0,-112
    c00028c8:	00070593          	mv	a1,a4
    c00028cc:	00078513          	mv	a0,a5
    c00028d0:	b21ff0ef          	jal	ra,c00023f0 <getuint>
    c00028d4:	fca43c23          	sd	a0,-40(s0)
    c00028d8:	fd442683          	lw	a3,-44(s0)
    c00028dc:	fc744783          	lbu	a5,-57(s0)
    c00028e0:	0007879b          	sext.w	a5,a5
    c00028e4:	fcc42703          	lw	a4,-52(s0)
    c00028e8:	fd843603          	ld	a2,-40(s0)
    c00028ec:	fa043583          	ld	a1,-96(s0)
    c00028f0:	fa843503          	ld	a0,-88(s0)
    c00028f4:	9b5ff0ef          	jal	ra,c00022a8 <printnum>
    c00028f8:	0340006f          	j	c000292c <vprintfmt+0x40c>
    c00028fc:	fa843783          	ld	a5,-88(s0)
    c0002900:	fa043583          	ld	a1,-96(s0)
    c0002904:	00048513          	mv	a0,s1
    c0002908:	000780e7          	jalr	a5
    c000290c:	0200006f          	j	c000292c <vprintfmt+0x40c>
    c0002910:	fa843783          	ld	a5,-88(s0)
    c0002914:	fa043583          	ld	a1,-96(s0)
    c0002918:	02500513          	li	a0,37
    c000291c:	000780e7          	jalr	a5
    c0002920:	fb843783          	ld	a5,-72(s0)
    c0002924:	f8f43c23          	sd	a5,-104(s0)
    c0002928:	00000013          	nop
    c000292c:	c41ff06f          	j	c000256c <vprintfmt+0x4c>
    c0002930:	00000013          	nop
    c0002934:	06813083          	ld	ra,104(sp)
    c0002938:	06013403          	ld	s0,96(sp)
    c000293c:	05813483          	ld	s1,88(sp)
    c0002940:	05013903          	ld	s2,80(sp)
    c0002944:	07010113          	addi	sp,sp,112
    c0002948:	00008067          	ret

00000000c000294c <printf>:
    c000294c:	f9010113          	addi	sp,sp,-112
    c0002950:	02113423          	sd	ra,40(sp)
    c0002954:	02813023          	sd	s0,32(sp)
    c0002958:	03010413          	addi	s0,sp,48
    c000295c:	fca43c23          	sd	a0,-40(s0)
    c0002960:	00b43423          	sd	a1,8(s0)
    c0002964:	00c43823          	sd	a2,16(s0)
    c0002968:	00d43c23          	sd	a3,24(s0)
    c000296c:	02e43023          	sd	a4,32(s0)
    c0002970:	02f43423          	sd	a5,40(s0)
    c0002974:	03043823          	sd	a6,48(s0)
    c0002978:	03143c23          	sd	a7,56(s0)
    c000297c:	04040793          	addi	a5,s0,64
    c0002980:	fc878793          	addi	a5,a5,-56
    c0002984:	fef43423          	sd	a5,-24(s0)
    c0002988:	fe843783          	ld	a5,-24(s0)
    c000298c:	00078693          	mv	a3,a5
    c0002990:	fd843603          	ld	a2,-40(s0)
    c0002994:	00000593          	li	a1,0
    c0002998:	fffff517          	auipc	a0,0xfffff
    c000299c:	72850513          	addi	a0,a0,1832 # c00020c0 <putchar>
    c00029a0:	b81ff0ef          	jal	ra,c0002520 <vprintfmt>
    c00029a4:	00000793          	li	a5,0
    c00029a8:	00078513          	mv	a0,a5
    c00029ac:	02813083          	ld	ra,40(sp)
    c00029b0:	02013403          	ld	s0,32(sp)
    c00029b4:	07010113          	addi	sp,sp,112
    c00029b8:	00008067          	ret

00000000c00029bc <sprintf_putch.2943>:
    c00029bc:	fc010113          	addi	sp,sp,-64
    c00029c0:	02813c23          	sd	s0,56(sp)
    c00029c4:	04010413          	addi	s0,sp,64
    c00029c8:	00050793          	mv	a5,a0
    c00029cc:	fcb43823          	sd	a1,-48(s0)
    c00029d0:	fcf42e23          	sw	a5,-36(s0)
    c00029d4:	fc743423          	sd	t2,-56(s0)
    c00029d8:	fd043783          	ld	a5,-48(s0)
    c00029dc:	fef43423          	sd	a5,-24(s0)
    c00029e0:	fe843783          	ld	a5,-24(s0)
    c00029e4:	0007b783          	ld	a5,0(a5)
    c00029e8:	fdc42703          	lw	a4,-36(s0)
    c00029ec:	0ff77713          	andi	a4,a4,255
    c00029f0:	00e78023          	sb	a4,0(a5)
    c00029f4:	fe843783          	ld	a5,-24(s0)
    c00029f8:	0007b783          	ld	a5,0(a5)
    c00029fc:	00178713          	addi	a4,a5,1
    c0002a00:	fe843783          	ld	a5,-24(s0)
    c0002a04:	00e7b023          	sd	a4,0(a5)
    c0002a08:	00000013          	nop
    c0002a0c:	03813403          	ld	s0,56(sp)
    c0002a10:	04010113          	addi	sp,sp,64
    c0002a14:	00008067          	ret

00000000c0002a18 <sprintf>:
    c0002a18:	f0010113          	addi	sp,sp,-256
    c0002a1c:	0c113423          	sd	ra,200(sp)
    c0002a20:	0c813023          	sd	s0,192(sp)
    c0002a24:	0d010413          	addi	s0,sp,208
    c0002a28:	f2a43c23          	sd	a0,-200(s0)
    c0002a2c:	f2b43823          	sd	a1,-208(s0)
    c0002a30:	00c43023          	sd	a2,0(s0)
    c0002a34:	00d43423          	sd	a3,8(s0)
    c0002a38:	00e43823          	sd	a4,16(s0)
    c0002a3c:	00f43c23          	sd	a5,24(s0)
    c0002a40:	03043023          	sd	a6,32(s0)
    c0002a44:	03143423          	sd	a7,40(s0)
    c0002a48:	03040793          	addi	a5,s0,48
    c0002a4c:	fcf43c23          	sd	a5,-40(s0)
    c0002a50:	f4840793          	addi	a5,s0,-184
    c0002a54:	f4840713          	addi	a4,s0,-184
    c0002a58:	39700693          	li	a3,919
    c0002a5c:	00d7a023          	sw	a3,0(a5)
    c0002a60:	0183b6b7          	lui	a3,0x183b
    c0002a64:	3036869b          	addiw	a3,a3,771
    c0002a68:	00d7a223          	sw	a3,4(a5)
    c0002a6c:	0103b6b7          	lui	a3,0x103b
    c0002a70:	3836869b          	addiw	a3,a3,899
    c0002a74:	00d7a423          	sw	a3,8(a5)
    c0002a78:	000306b7          	lui	a3,0x30
    c0002a7c:	0676869b          	addiw	a3,a3,103
    c0002a80:	00d7a623          	sw	a3,12(a5)
    c0002a84:	00e7b823          	sd	a4,16(a5)
    c0002a88:	00000717          	auipc	a4,0x0
    c0002a8c:	f3470713          	addi	a4,a4,-204 # c00029bc <sprintf_putch.2943>
    c0002a90:	00e7bc23          	sd	a4,24(a5)
    c0002a94:	0000100f          	fence.i
    c0002a98:	f3843783          	ld	a5,-200(s0)
    c0002a9c:	fef43423          	sd	a5,-24(s0)
    c0002aa0:	03040793          	addi	a5,s0,48
    c0002aa4:	fd078793          	addi	a5,a5,-48
    c0002aa8:	fef43023          	sd	a5,-32(s0)
    c0002aac:	fe043703          	ld	a4,-32(s0)
    c0002ab0:	f4840793          	addi	a5,s0,-184
    c0002ab4:	00078513          	mv	a0,a5
    c0002ab8:	f3840793          	addi	a5,s0,-200
    c0002abc:	00070693          	mv	a3,a4
    c0002ac0:	f3043603          	ld	a2,-208(s0)
    c0002ac4:	00078593          	mv	a1,a5
    c0002ac8:	a59ff0ef          	jal	ra,c0002520 <vprintfmt>
    c0002acc:	f3843783          	ld	a5,-200(s0)
    c0002ad0:	00078023          	sb	zero,0(a5)
    c0002ad4:	f3843783          	ld	a5,-200(s0)
    c0002ad8:	00078713          	mv	a4,a5
    c0002adc:	fe843783          	ld	a5,-24(s0)
    c0002ae0:	40f707b3          	sub	a5,a4,a5
    c0002ae4:	0007879b          	sext.w	a5,a5
    c0002ae8:	00078513          	mv	a0,a5
    c0002aec:	0c813083          	ld	ra,200(sp)
    c0002af0:	0c013403          	ld	s0,192(sp)
    c0002af4:	10010113          	addi	sp,sp,256
    c0002af8:	00008067          	ret

00000000c0002afc <strlen>:
    c0002afc:	fd010113          	addi	sp,sp,-48
    c0002b00:	02813423          	sd	s0,40(sp)
    c0002b04:	03010413          	addi	s0,sp,48
    c0002b08:	fca43c23          	sd	a0,-40(s0)
    c0002b0c:	fd843783          	ld	a5,-40(s0)
    c0002b10:	fef43423          	sd	a5,-24(s0)
    c0002b14:	0100006f          	j	c0002b24 <strlen+0x28>
    c0002b18:	fe843783          	ld	a5,-24(s0)
    c0002b1c:	00178793          	addi	a5,a5,1
    c0002b20:	fef43423          	sd	a5,-24(s0)
    c0002b24:	fe843783          	ld	a5,-24(s0)
    c0002b28:	0007c783          	lbu	a5,0(a5)
    c0002b2c:	fe0796e3          	bnez	a5,c0002b18 <strlen+0x1c>
    c0002b30:	fe843703          	ld	a4,-24(s0)
    c0002b34:	fd843783          	ld	a5,-40(s0)
    c0002b38:	40f707b3          	sub	a5,a4,a5
    c0002b3c:	00078513          	mv	a0,a5
    c0002b40:	02813403          	ld	s0,40(sp)
    c0002b44:	03010113          	addi	sp,sp,48
    c0002b48:	00008067          	ret

00000000c0002b4c <strnlen>:
    c0002b4c:	fd010113          	addi	sp,sp,-48
    c0002b50:	02813423          	sd	s0,40(sp)
    c0002b54:	03010413          	addi	s0,sp,48
    c0002b58:	fca43c23          	sd	a0,-40(s0)
    c0002b5c:	fcb43823          	sd	a1,-48(s0)
    c0002b60:	fd843783          	ld	a5,-40(s0)
    c0002b64:	fef43423          	sd	a5,-24(s0)
    c0002b68:	0100006f          	j	c0002b78 <strnlen+0x2c>
    c0002b6c:	fe843783          	ld	a5,-24(s0)
    c0002b70:	00178793          	addi	a5,a5,1
    c0002b74:	fef43423          	sd	a5,-24(s0)
    c0002b78:	fd043783          	ld	a5,-48(s0)
    c0002b7c:	fff78713          	addi	a4,a5,-1
    c0002b80:	fce43823          	sd	a4,-48(s0)
    c0002b84:	00078863          	beqz	a5,c0002b94 <strnlen+0x48>
    c0002b88:	fe843783          	ld	a5,-24(s0)
    c0002b8c:	0007c783          	lbu	a5,0(a5)
    c0002b90:	fc079ee3          	bnez	a5,c0002b6c <strnlen+0x20>
    c0002b94:	fe843703          	ld	a4,-24(s0)
    c0002b98:	fd843783          	ld	a5,-40(s0)
    c0002b9c:	40f707b3          	sub	a5,a4,a5
    c0002ba0:	00078513          	mv	a0,a5
    c0002ba4:	02813403          	ld	s0,40(sp)
    c0002ba8:	03010113          	addi	sp,sp,48
    c0002bac:	00008067          	ret

00000000c0002bb0 <strcmp>:
    c0002bb0:	fd010113          	addi	sp,sp,-48
    c0002bb4:	02813423          	sd	s0,40(sp)
    c0002bb8:	03010413          	addi	s0,sp,48
    c0002bbc:	fca43c23          	sd	a0,-40(s0)
    c0002bc0:	fcb43823          	sd	a1,-48(s0)
    c0002bc4:	fd843783          	ld	a5,-40(s0)
    c0002bc8:	00178713          	addi	a4,a5,1
    c0002bcc:	fce43c23          	sd	a4,-40(s0)
    c0002bd0:	0007c783          	lbu	a5,0(a5)
    c0002bd4:	fef407a3          	sb	a5,-17(s0)
    c0002bd8:	fd043783          	ld	a5,-48(s0)
    c0002bdc:	00178713          	addi	a4,a5,1
    c0002be0:	fce43823          	sd	a4,-48(s0)
    c0002be4:	0007c783          	lbu	a5,0(a5)
    c0002be8:	fef40723          	sb	a5,-18(s0)
    c0002bec:	fef44783          	lbu	a5,-17(s0)
    c0002bf0:	0ff7f793          	andi	a5,a5,255
    c0002bf4:	00078c63          	beqz	a5,c0002c0c <strcmp+0x5c>
    c0002bf8:	fef44703          	lbu	a4,-17(s0)
    c0002bfc:	fee44783          	lbu	a5,-18(s0)
    c0002c00:	0ff77713          	andi	a4,a4,255
    c0002c04:	0ff7f793          	andi	a5,a5,255
    c0002c08:	faf70ee3          	beq	a4,a5,c0002bc4 <strcmp+0x14>
    c0002c0c:	fef44783          	lbu	a5,-17(s0)
    c0002c10:	0007871b          	sext.w	a4,a5
    c0002c14:	fee44783          	lbu	a5,-18(s0)
    c0002c18:	0007879b          	sext.w	a5,a5
    c0002c1c:	40f707bb          	subw	a5,a4,a5
    c0002c20:	0007879b          	sext.w	a5,a5
    c0002c24:	00078513          	mv	a0,a5
    c0002c28:	02813403          	ld	s0,40(sp)
    c0002c2c:	03010113          	addi	sp,sp,48
    c0002c30:	00008067          	ret

00000000c0002c34 <strcpy>:
    c0002c34:	fd010113          	addi	sp,sp,-48
    c0002c38:	02813423          	sd	s0,40(sp)
    c0002c3c:	03010413          	addi	s0,sp,48
    c0002c40:	fca43c23          	sd	a0,-40(s0)
    c0002c44:	fcb43823          	sd	a1,-48(s0)
    c0002c48:	fd843783          	ld	a5,-40(s0)
    c0002c4c:	fef43423          	sd	a5,-24(s0)
    c0002c50:	00000013          	nop
    c0002c54:	fd043703          	ld	a4,-48(s0)
    c0002c58:	00170793          	addi	a5,a4,1
    c0002c5c:	fcf43823          	sd	a5,-48(s0)
    c0002c60:	fe843783          	ld	a5,-24(s0)
    c0002c64:	00178693          	addi	a3,a5,1
    c0002c68:	fed43423          	sd	a3,-24(s0)
    c0002c6c:	00074703          	lbu	a4,0(a4)
    c0002c70:	00e78023          	sb	a4,0(a5)
    c0002c74:	0007c783          	lbu	a5,0(a5)
    c0002c78:	fc079ee3          	bnez	a5,c0002c54 <strcpy+0x20>
    c0002c7c:	fd843783          	ld	a5,-40(s0)
    c0002c80:	00078513          	mv	a0,a5
    c0002c84:	02813403          	ld	s0,40(sp)
    c0002c88:	03010113          	addi	sp,sp,48
    c0002c8c:	00008067          	ret

00000000c0002c90 <atol>:
    c0002c90:	fd010113          	addi	sp,sp,-48
    c0002c94:	02813423          	sd	s0,40(sp)
    c0002c98:	03010413          	addi	s0,sp,48
    c0002c9c:	fca43c23          	sd	a0,-40(s0)
    c0002ca0:	fe043423          	sd	zero,-24(s0)
    c0002ca4:	fe042223          	sw	zero,-28(s0)
    c0002ca8:	0100006f          	j	c0002cb8 <atol+0x28>
    c0002cac:	fd843783          	ld	a5,-40(s0)
    c0002cb0:	00178793          	addi	a5,a5,1
    c0002cb4:	fcf43c23          	sd	a5,-40(s0)
    c0002cb8:	fd843783          	ld	a5,-40(s0)
    c0002cbc:	0007c783          	lbu	a5,0(a5)
    c0002cc0:	00078713          	mv	a4,a5
    c0002cc4:	02000793          	li	a5,32
    c0002cc8:	fef702e3          	beq	a4,a5,c0002cac <atol+0x1c>
    c0002ccc:	fd843783          	ld	a5,-40(s0)
    c0002cd0:	0007c783          	lbu	a5,0(a5)
    c0002cd4:	00078713          	mv	a4,a5
    c0002cd8:	02d00793          	li	a5,45
    c0002cdc:	00f70c63          	beq	a4,a5,c0002cf4 <atol+0x64>
    c0002ce0:	fd843783          	ld	a5,-40(s0)
    c0002ce4:	0007c783          	lbu	a5,0(a5)
    c0002ce8:	00078713          	mv	a4,a5
    c0002cec:	02b00793          	li	a5,43
    c0002cf0:	06f71c63          	bne	a4,a5,c0002d68 <atol+0xd8>
    c0002cf4:	fd843783          	ld	a5,-40(s0)
    c0002cf8:	0007c783          	lbu	a5,0(a5)
    c0002cfc:	0007871b          	sext.w	a4,a5
    c0002d00:	02d00793          	li	a5,45
    c0002d04:	40f707b3          	sub	a5,a4,a5
    c0002d08:	0017b793          	seqz	a5,a5
    c0002d0c:	0ff7f793          	andi	a5,a5,255
    c0002d10:	fef42223          	sw	a5,-28(s0)
    c0002d14:	fd843783          	ld	a5,-40(s0)
    c0002d18:	00178793          	addi	a5,a5,1
    c0002d1c:	fcf43c23          	sd	a5,-40(s0)
    c0002d20:	0480006f          	j	c0002d68 <atol+0xd8>
    c0002d24:	fe843703          	ld	a4,-24(s0)
    c0002d28:	00070793          	mv	a5,a4
    c0002d2c:	00279793          	slli	a5,a5,0x2
    c0002d30:	00e787b3          	add	a5,a5,a4
    c0002d34:	00179793          	slli	a5,a5,0x1
    c0002d38:	fef43423          	sd	a5,-24(s0)
    c0002d3c:	fd843783          	ld	a5,-40(s0)
    c0002d40:	00178713          	addi	a4,a5,1
    c0002d44:	fce43c23          	sd	a4,-40(s0)
    c0002d48:	0007c783          	lbu	a5,0(a5)
    c0002d4c:	0007879b          	sext.w	a5,a5
    c0002d50:	fd07879b          	addiw	a5,a5,-48
    c0002d54:	0007879b          	sext.w	a5,a5
    c0002d58:	00078713          	mv	a4,a5
    c0002d5c:	fe843783          	ld	a5,-24(s0)
    c0002d60:	00e787b3          	add	a5,a5,a4
    c0002d64:	fef43423          	sd	a5,-24(s0)
    c0002d68:	fd843783          	ld	a5,-40(s0)
    c0002d6c:	0007c783          	lbu	a5,0(a5)
    c0002d70:	fa079ae3          	bnez	a5,c0002d24 <atol+0x94>
    c0002d74:	fe442783          	lw	a5,-28(s0)
    c0002d78:	0007879b          	sext.w	a5,a5
    c0002d7c:	00078863          	beqz	a5,c0002d8c <atol+0xfc>
    c0002d80:	fe843783          	ld	a5,-24(s0)
    c0002d84:	40f007b3          	neg	a5,a5
    c0002d88:	0080006f          	j	c0002d90 <atol+0x100>
    c0002d8c:	fe843783          	ld	a5,-24(s0)
    c0002d90:	00078513          	mv	a0,a5
    c0002d94:	02813403          	ld	s0,40(sp)
    c0002d98:	03010113          	addi	sp,sp,48
    c0002d9c:	00008067          	ret
