
./I2C/outputs//i2c_eep_rw.shakti:     file format elf64-littleriscv


Disassembly of section .text.init:

0000000080000000 <_start>:
    80000000:	00000093          	li	ra,0
    80000004:	00000113          	li	sp,0
    80000008:	00000193          	li	gp,0
    8000000c:	00000213          	li	tp,0
    80000010:	00000293          	li	t0,0
    80000014:	00000313          	li	t1,0
    80000018:	00000393          	li	t2,0
    8000001c:	00000413          	li	s0,0
    80000020:	00000493          	li	s1,0
    80000024:	00000513          	li	a0,0
    80000028:	00000593          	li	a1,0
    8000002c:	00000613          	li	a2,0
    80000030:	00000693          	li	a3,0
    80000034:	00000713          	li	a4,0
    80000038:	00000793          	li	a5,0
    8000003c:	00000813          	li	a6,0
    80000040:	00000893          	li	a7,0
    80000044:	00000913          	li	s2,0
    80000048:	00000993          	li	s3,0
    8000004c:	00000a13          	li	s4,0
    80000050:	00000a93          	li	s5,0
    80000054:	00000b13          	li	s6,0
    80000058:	00000b93          	li	s7,0
    8000005c:	00000c13          	li	s8,0
    80000060:	00000c93          	li	s9,0
    80000064:	00000d13          	li	s10,0
    80000068:	00000d93          	li	s11,0
    8000006c:	00000e13          	li	t3,0
    80000070:	00000e93          	li	t4,0
    80000074:	00000f13          	li	t5,0
    80000078:	00000f93          	li	t6,0
    8000007c:	0001e2b7          	lui	t0,0x1e
    80000080:	3002a073          	csrs	mstatus,t0
    80000084:	00100293          	li	t0,1
    80000088:	01f29293          	slli	t0,t0,0x1f
    8000008c:	0002da63          	bgez	t0,800000a0 <_start+0xa0>
    80000090:	00100513          	li	a0,1
    80000094:	00001297          	auipc	t0,0x1
    80000098:	f6a2a623          	sw	a0,-148(t0) # 80001000 <tohost>
    8000009c:	ff5ff06f          	j	80000090 <_start+0x90>
    800000a0:	00000297          	auipc	t0,0x0
    800000a4:	09028293          	addi	t0,t0,144 # 80000130 <_start+0x130>
    800000a8:	30529073          	csrw	mtvec,t0
    800000ac:	00301073          	fssr	zero
    800000b0:	f0000053          	fmv.w.x	ft0,zero
    800000b4:	f00000d3          	fmv.w.x	ft1,zero
    800000b8:	f0000153          	fmv.w.x	ft2,zero
    800000bc:	f00001d3          	fmv.w.x	ft3,zero
    800000c0:	f0000253          	fmv.w.x	ft4,zero
    800000c4:	f00002d3          	fmv.w.x	ft5,zero
    800000c8:	f0000353          	fmv.w.x	ft6,zero
    800000cc:	f00003d3          	fmv.w.x	ft7,zero
    800000d0:	f0000453          	fmv.w.x	fs0,zero
    800000d4:	f00004d3          	fmv.w.x	fs1,zero
    800000d8:	f0000553          	fmv.w.x	fa0,zero
    800000dc:	f00005d3          	fmv.w.x	fa1,zero
    800000e0:	f0000653          	fmv.w.x	fa2,zero
    800000e4:	f00006d3          	fmv.w.x	fa3,zero
    800000e8:	f0000753          	fmv.w.x	fa4,zero
    800000ec:	f00007d3          	fmv.w.x	fa5,zero
    800000f0:	f0000853          	fmv.w.x	fa6,zero
    800000f4:	f00008d3          	fmv.w.x	fa7,zero
    800000f8:	f0000953          	fmv.w.x	fs2,zero
    800000fc:	f00009d3          	fmv.w.x	fs3,zero
    80000100:	f0000a53          	fmv.w.x	fs4,zero
    80000104:	f0000ad3          	fmv.w.x	fs5,zero
    80000108:	f0000b53          	fmv.w.x	fs6,zero
    8000010c:	f0000bd3          	fmv.w.x	fs7,zero
    80000110:	f0000c53          	fmv.w.x	fs8,zero
    80000114:	f0000cd3          	fmv.w.x	fs9,zero
    80000118:	f0000d53          	fmv.w.x	fs10,zero
    8000011c:	f0000dd3          	fmv.w.x	fs11,zero
    80000120:	f0000e53          	fmv.w.x	ft8,zero
    80000124:	f0000ed3          	fmv.w.x	ft9,zero
    80000128:	f0000f53          	fmv.w.x	ft10,zero
    8000012c:	f0000fd3          	fmv.w.x	ft11,zero
    80000130:	00000297          	auipc	t0,0x0
    80000134:	04028293          	addi	t0,t0,64 # 80000170 <trap_entry>
    80000138:	30529073          	csrw	mtvec,t0
    8000013c:	00009197          	auipc	gp,0x9
    80000140:	c9418193          	addi	gp,gp,-876 # 80008dd0 <__global_pointer$>
    80000144:	89718213          	addi	tp,gp,-1897 # 80008667 <_end+0x3f>
    80000148:	fc027213          	andi	tp,tp,-64
    8000014c:	f1402573          	csrr	a0,mhartid
    80000150:	00100593          	li	a1,1
    80000154:	00b57063          	bgeu	a0,a1,80000154 <_start+0x154>
    80000158:	00c51613          	slli	a2,a0,0xc
    8000015c:	00c20233          	add	tp,tp,a2
    80000160:	00150113          	addi	sp,a0,1
    80000164:	00c11113          	slli	sp,sp,0xc
    80000168:	00410133          	add	sp,sp,tp
    8000016c:	4b50206f          	j	80002e20 <_init>

0000000080000170 <trap_entry>:
    80000170:	ef010113          	addi	sp,sp,-272
    80000174:	00113423          	sd	ra,8(sp)
    80000178:	00213823          	sd	sp,16(sp)
    8000017c:	00313c23          	sd	gp,24(sp)
    80000180:	02413023          	sd	tp,32(sp)
    80000184:	02513423          	sd	t0,40(sp)
    80000188:	02613823          	sd	t1,48(sp)
    8000018c:	02713c23          	sd	t2,56(sp)
    80000190:	04813023          	sd	s0,64(sp)
    80000194:	04913423          	sd	s1,72(sp)
    80000198:	04a13823          	sd	a0,80(sp)
    8000019c:	04b13c23          	sd	a1,88(sp)
    800001a0:	06c13023          	sd	a2,96(sp)
    800001a4:	06d13423          	sd	a3,104(sp)
    800001a8:	06e13823          	sd	a4,112(sp)
    800001ac:	06f13c23          	sd	a5,120(sp)
    800001b0:	09013023          	sd	a6,128(sp)
    800001b4:	09113423          	sd	a7,136(sp)
    800001b8:	09213823          	sd	s2,144(sp)
    800001bc:	09313c23          	sd	s3,152(sp)
    800001c0:	0b413023          	sd	s4,160(sp)
    800001c4:	0b513423          	sd	s5,168(sp)
    800001c8:	0b613823          	sd	s6,176(sp)
    800001cc:	0b713c23          	sd	s7,184(sp)
    800001d0:	0d813023          	sd	s8,192(sp)
    800001d4:	0d913423          	sd	s9,200(sp)
    800001d8:	0da13823          	sd	s10,208(sp)
    800001dc:	0db13c23          	sd	s11,216(sp)
    800001e0:	0fc13023          	sd	t3,224(sp)
    800001e4:	0fd13423          	sd	t4,232(sp)
    800001e8:	0fe13823          	sd	t5,240(sp)
    800001ec:	0ff13c23          	sd	t6,248(sp)
    800001f0:	34202573          	csrr	a0,mcause
    800001f4:	341025f3          	csrr	a1,mepc
    800001f8:	00010613          	mv	a2,sp
    800001fc:	255020ef          	jal	ra,80002c50 <handle_trap>
    80000200:	34151073          	csrw	mepc,a0
    80000204:	000022b7          	lui	t0,0x2
    80000208:	8002829b          	addiw	t0,t0,-2048
    8000020c:	3002a073          	csrs	mstatus,t0
    80000210:	00813083          	ld	ra,8(sp)
    80000214:	01013103          	ld	sp,16(sp)
    80000218:	01813183          	ld	gp,24(sp)
    8000021c:	02013203          	ld	tp,32(sp)
    80000220:	02813283          	ld	t0,40(sp)
    80000224:	03013303          	ld	t1,48(sp)
    80000228:	03813383          	ld	t2,56(sp)
    8000022c:	04013403          	ld	s0,64(sp)
    80000230:	04813483          	ld	s1,72(sp)
    80000234:	05013503          	ld	a0,80(sp)
    80000238:	05813583          	ld	a1,88(sp)
    8000023c:	06013603          	ld	a2,96(sp)
    80000240:	06813683          	ld	a3,104(sp)
    80000244:	07013703          	ld	a4,112(sp)
    80000248:	07813783          	ld	a5,120(sp)
    8000024c:	08013803          	ld	a6,128(sp)
    80000250:	08813883          	ld	a7,136(sp)
    80000254:	09013903          	ld	s2,144(sp)
    80000258:	09813983          	ld	s3,152(sp)
    8000025c:	0a013a03          	ld	s4,160(sp)
    80000260:	0a813a83          	ld	s5,168(sp)
    80000264:	0b013b03          	ld	s6,176(sp)
    80000268:	0b813b83          	ld	s7,184(sp)
    8000026c:	0c013c03          	ld	s8,192(sp)
    80000270:	0c813c83          	ld	s9,200(sp)
    80000274:	0d013d03          	ld	s10,208(sp)
    80000278:	0d813d83          	ld	s11,216(sp)
    8000027c:	0e013e03          	ld	t3,224(sp)
    80000280:	0e813e83          	ld	t4,232(sp)
    80000284:	0f013f03          	ld	t5,240(sp)
    80000288:	0f813f83          	ld	t6,248(sp)
    8000028c:	11010113          	addi	sp,sp,272
    80000290:	30200073          	mret

Disassembly of section .tohost:

0000000080001000 <tohost>:
	...

0000000080001040 <fromhost>:
	...

Disassembly of section .text:

0000000080001048 <get_i2c_shakti>:
    80001048:	fd010113          	addi	sp,sp,-48
    8000104c:	02113423          	sd	ra,40(sp)
    80001050:	02813023          	sd	s0,32(sp)
    80001054:	03010413          	addi	s0,sp,48
    80001058:	fca43c23          	sd	a0,-40(s0)
    8000105c:	fd843583          	ld	a1,-40(s0)
    80001060:	00003517          	auipc	a0,0x3
    80001064:	a5050513          	addi	a0,a0,-1456 # 80003ab0 <atol+0x110>
    80001068:	5f8020ef          	jal	ra,80003660 <printf>
    8000106c:	fd843783          	ld	a5,-40(s0)
    80001070:	0007a783          	lw	a5,0(a5)
    80001074:	00078783          	lb	a5,0(a5)
    80001078:	fef42623          	sw	a5,-20(s0)
    8000107c:	fec42783          	lw	a5,-20(s0)
    80001080:	00078513          	mv	a0,a5
    80001084:	02813083          	ld	ra,40(sp)
    80001088:	02013403          	ld	s0,32(sp)
    8000108c:	03010113          	addi	sp,sp,48
    80001090:	00008067          	ret

0000000080001094 <set_i2c_shakti>:
    80001094:	fe010113          	addi	sp,sp,-32
    80001098:	00113c23          	sd	ra,24(sp)
    8000109c:	00813823          	sd	s0,16(sp)
    800010a0:	02010413          	addi	s0,sp,32
    800010a4:	fea43423          	sd	a0,-24(s0)
    800010a8:	00058793          	mv	a5,a1
    800010ac:	fef42223          	sw	a5,-28(s0)
    800010b0:	fe442783          	lw	a5,-28(s0)
    800010b4:	00078613          	mv	a2,a5
    800010b8:	fe843583          	ld	a1,-24(s0)
    800010bc:	00003517          	auipc	a0,0x3
    800010c0:	a0c50513          	addi	a0,a0,-1524 # 80003ac8 <atol+0x128>
    800010c4:	59c020ef          	jal	ra,80003660 <printf>
    800010c8:	fe843783          	ld	a5,-24(s0)
    800010cc:	0007a703          	lw	a4,0(a5)
    800010d0:	fe442783          	lw	a5,-28(s0)
    800010d4:	00f70023          	sb	a5,0(a4)
    800010d8:	00000013          	nop
    800010dc:	01813083          	ld	ra,24(sp)
    800010e0:	01013403          	ld	s0,16(sp)
    800010e4:	02010113          	addi	sp,sp,32
    800010e8:	00008067          	ret

00000000800010ec <waitfor>:
    800010ec:	fd010113          	addi	sp,sp,-48
    800010f0:	02813423          	sd	s0,40(sp)
    800010f4:	03010413          	addi	s0,sp,48
    800010f8:	00050793          	mv	a5,a0
    800010fc:	fcf42e23          	sw	a5,-36(s0)
    80001100:	fe042623          	sw	zero,-20(s0)
    80001104:	00000013          	nop
    80001108:	fec42783          	lw	a5,-20(s0)
    8000110c:	0017871b          	addiw	a4,a5,1
    80001110:	fee42623          	sw	a4,-20(s0)
    80001114:	fdc42703          	lw	a4,-36(s0)
    80001118:	0007071b          	sext.w	a4,a4
    8000111c:	fee7e6e3          	bltu	a5,a4,80001108 <waitfor+0x1c>
    80001120:	00000013          	nop
    80001124:	02813403          	ld	s0,40(sp)
    80001128:	03010113          	addi	sp,sp,48
    8000112c:	00008067          	ret

0000000080001130 <i2c_start>:
    80001130:	ff010113          	addi	sp,sp,-16
    80001134:	00113423          	sd	ra,8(sp)
    80001138:	00813023          	sd	s0,0(sp)
    8000113c:	01010413          	addi	s0,sp,16
    80001140:	00007797          	auipc	a5,0x7
    80001144:	49078793          	addi	a5,a5,1168 # 800085d0 <i2c_control>
    80001148:	0007b783          	ld	a5,0(a5)
    8000114c:	0c500593          	li	a1,197
    80001150:	00078513          	mv	a0,a5
    80001154:	f41ff0ef          	jal	ra,80001094 <set_i2c_shakti>
    80001158:	00000013          	nop
    8000115c:	00813083          	ld	ra,8(sp)
    80001160:	00013403          	ld	s0,0(sp)
    80001164:	01010113          	addi	sp,sp,16
    80001168:	00008067          	ret

000000008000116c <i2c_start_eni>:
    8000116c:	ff010113          	addi	sp,sp,-16
    80001170:	00113423          	sd	ra,8(sp)
    80001174:	00813023          	sd	s0,0(sp)
    80001178:	01010413          	addi	s0,sp,16
    8000117c:	00007797          	auipc	a5,0x7
    80001180:	45478793          	addi	a5,a5,1108 # 800085d0 <i2c_control>
    80001184:	0007b783          	ld	a5,0(a5)
    80001188:	0c500593          	li	a1,197
    8000118c:	00078513          	mv	a0,a5
    80001190:	f05ff0ef          	jal	ra,80001094 <set_i2c_shakti>
    80001194:	00000013          	nop
    80001198:	00813083          	ld	ra,8(sp)
    8000119c:	00013403          	ld	s0,0(sp)
    800011a0:	01010113          	addi	sp,sp,16
    800011a4:	00008067          	ret

00000000800011a8 <i2c_repstart>:
    800011a8:	ff010113          	addi	sp,sp,-16
    800011ac:	00113423          	sd	ra,8(sp)
    800011b0:	00813023          	sd	s0,0(sp)
    800011b4:	01010413          	addi	s0,sp,16
    800011b8:	00007797          	auipc	a5,0x7
    800011bc:	41878793          	addi	a5,a5,1048 # 800085d0 <i2c_control>
    800011c0:	0007b783          	ld	a5,0(a5)
    800011c4:	04500593          	li	a1,69
    800011c8:	00078513          	mv	a0,a5
    800011cc:	ec9ff0ef          	jal	ra,80001094 <set_i2c_shakti>
    800011d0:	00000013          	nop
    800011d4:	00813083          	ld	ra,8(sp)
    800011d8:	00013403          	ld	s0,0(sp)
    800011dc:	01010113          	addi	sp,sp,16
    800011e0:	00008067          	ret

00000000800011e4 <i2c_repstart_eni>:
    800011e4:	ff010113          	addi	sp,sp,-16
    800011e8:	00113423          	sd	ra,8(sp)
    800011ec:	00813023          	sd	s0,0(sp)
    800011f0:	01010413          	addi	s0,sp,16
    800011f4:	00007797          	auipc	a5,0x7
    800011f8:	3dc78793          	addi	a5,a5,988 # 800085d0 <i2c_control>
    800011fc:	0007b783          	ld	a5,0(a5)
    80001200:	04500593          	li	a1,69
    80001204:	00078513          	mv	a0,a5
    80001208:	e8dff0ef          	jal	ra,80001094 <set_i2c_shakti>
    8000120c:	00000013          	nop
    80001210:	00813083          	ld	ra,8(sp)
    80001214:	00013403          	ld	s0,0(sp)
    80001218:	01010113          	addi	sp,sp,16
    8000121c:	00008067          	ret

0000000080001220 <i2c_stop>:
    80001220:	ff010113          	addi	sp,sp,-16
    80001224:	00113423          	sd	ra,8(sp)
    80001228:	00813023          	sd	s0,0(sp)
    8000122c:	01010413          	addi	s0,sp,16
    80001230:	00007797          	auipc	a5,0x7
    80001234:	3a078793          	addi	a5,a5,928 # 800085d0 <i2c_control>
    80001238:	0007b783          	ld	a5,0(a5)
    8000123c:	0c300593          	li	a1,195
    80001240:	00078513          	mv	a0,a5
    80001244:	e51ff0ef          	jal	ra,80001094 <set_i2c_shakti>
    80001248:	00000013          	nop
    8000124c:	00813083          	ld	ra,8(sp)
    80001250:	00013403          	ld	s0,0(sp)
    80001254:	01010113          	addi	sp,sp,16
    80001258:	00008067          	ret

000000008000125c <shakti_init_i2c>:
    8000125c:	fe010113          	addi	sp,sp,-32
    80001260:	00113c23          	sd	ra,24(sp)
    80001264:	00813823          	sd	s0,16(sp)
    80001268:	02010413          	addi	s0,sp,32
    8000126c:	fe0407a3          	sb	zero,-17(s0)
    80001270:	00003517          	auipc	a0,0x3
    80001274:	87850513          	addi	a0,a0,-1928 # 80003ae8 <atol+0x148>
    80001278:	3e8020ef          	jal	ra,80003660 <printf>
    8000127c:	81818793          	addi	a5,gp,-2024 # 800085e8 <i2c_prescale>
    80001280:	0007b783          	ld	a5,0(a5)
    80001284:	01f00593          	li	a1,31
    80001288:	00078513          	mv	a0,a5
    8000128c:	e09ff0ef          	jal	ra,80001094 <set_i2c_shakti>
    80001290:	81818793          	addi	a5,gp,-2024 # 800085e8 <i2c_prescale>
    80001294:	0007b783          	ld	a5,0(a5)
    80001298:	00078513          	mv	a0,a5
    8000129c:	dadff0ef          	jal	ra,80001048 <get_i2c_shakti>
    800012a0:	00050793          	mv	a5,a0
    800012a4:	fef407a3          	sb	a5,-17(s0)
    800012a8:	82018793          	addi	a5,gp,-2016 # 800085f0 <i2c_scl>
    800012ac:	0007b783          	ld	a5,0(a5)
    800012b0:	09100593          	li	a1,145
    800012b4:	00078513          	mv	a0,a5
    800012b8:	dddff0ef          	jal	ra,80001094 <set_i2c_shakti>
    800012bc:	82018793          	addi	a5,gp,-2016 # 800085f0 <i2c_scl>
    800012c0:	0007b783          	ld	a5,0(a5)
    800012c4:	00078513          	mv	a0,a5
    800012c8:	d81ff0ef          	jal	ra,80001048 <get_i2c_shakti>
    800012cc:	00050793          	mv	a5,a0
    800012d0:	fef407a3          	sb	a5,-17(s0)
    800012d4:	fef44783          	lbu	a5,-17(s0)
    800012d8:	0ff7f713          	andi	a4,a5,255
    800012dc:	09100793          	li	a5,145
    800012e0:	02f70263          	beq	a4,a5,80001304 <shakti_init_i2c+0xa8>
    800012e4:	fef44783          	lbu	a5,-17(s0)
    800012e8:	0007879b          	sext.w	a5,a5
    800012ec:	00078593          	mv	a1,a5
    800012f0:	00003517          	auipc	a0,0x3
    800012f4:	82050513          	addi	a0,a0,-2016 # 80003b10 <atol+0x170>
    800012f8:	368020ef          	jal	ra,80003660 <printf>
    800012fc:	05200793          	li	a5,82
    80001300:	14c0006f          	j	8000144c <shakti_init_i2c+0x1f0>
    80001304:	00003517          	auipc	a0,0x3
    80001308:	85450513          	addi	a0,a0,-1964 # 80003b58 <atol+0x1b8>
    8000130c:	354020ef          	jal	ra,80003660 <printf>
    80001310:	00003517          	auipc	a0,0x3
    80001314:	86850513          	addi	a0,a0,-1944 # 80003b78 <atol+0x1d8>
    80001318:	348020ef          	jal	ra,80003660 <printf>
    8000131c:	00007797          	auipc	a5,0x7
    80001320:	2b478793          	addi	a5,a5,692 # 800085d0 <i2c_control>
    80001324:	0007b783          	ld	a5,0(a5)
    80001328:	08000593          	li	a1,128
    8000132c:	00078513          	mv	a0,a5
    80001330:	d65ff0ef          	jal	ra,80001094 <set_i2c_shakti>
    80001334:	00003517          	auipc	a0,0x3
    80001338:	86c50513          	addi	a0,a0,-1940 # 80003ba0 <atol+0x200>
    8000133c:	324020ef          	jal	ra,80003660 <printf>
    80001340:	00003517          	auipc	a0,0x3
    80001344:	88850513          	addi	a0,a0,-1912 # 80003bc8 <atol+0x228>
    80001348:	318020ef          	jal	ra,80003660 <printf>
    8000134c:	00007797          	auipc	a5,0x7
    80001350:	28478793          	addi	a5,a5,644 # 800085d0 <i2c_control>
    80001354:	0007b783          	ld	a5,0(a5)
    80001358:	00078513          	mv	a0,a5
    8000135c:	cedff0ef          	jal	ra,80001048 <get_i2c_shakti>
    80001360:	00050793          	mv	a5,a0
    80001364:	fef407a3          	sb	a5,-17(s0)
    80001368:	fef44783          	lbu	a5,-17(s0)
    8000136c:	0007879b          	sext.w	a5,a5
    80001370:	00078593          	mv	a1,a5
    80001374:	00003517          	auipc	a0,0x3
    80001378:	87450513          	addi	a0,a0,-1932 # 80003be8 <atol+0x248>
    8000137c:	2e4020ef          	jal	ra,80003660 <printf>
    80001380:	fef44783          	lbu	a5,-17(s0)
    80001384:	0007879b          	sext.w	a5,a5
    80001388:	07f7f793          	andi	a5,a5,127
    8000138c:	0007879b          	sext.w	a5,a5
    80001390:	00078c63          	beqz	a5,800013a8 <shakti_init_i2c+0x14c>
    80001394:	00003517          	auipc	a0,0x3
    80001398:	88450513          	addi	a0,a0,-1916 # 80003c18 <atol+0x278>
    8000139c:	2c4020ef          	jal	ra,80003660 <printf>
    800013a0:	05200793          	li	a5,82
    800013a4:	0a80006f          	j	8000144c <shakti_init_i2c+0x1f0>
    800013a8:	00003517          	auipc	a0,0x3
    800013ac:	88850513          	addi	a0,a0,-1912 # 80003c30 <atol+0x290>
    800013b0:	2b0020ef          	jal	ra,80003660 <printf>
    800013b4:	38400513          	li	a0,900
    800013b8:	d35ff0ef          	jal	ra,800010ec <waitfor>
    800013bc:	00003517          	auipc	a0,0x3
    800013c0:	89450513          	addi	a0,a0,-1900 # 80003c50 <atol+0x2b0>
    800013c4:	29c020ef          	jal	ra,80003660 <printf>
    800013c8:	00007797          	auipc	a5,0x7
    800013cc:	20878793          	addi	a5,a5,520 # 800085d0 <i2c_control>
    800013d0:	0007b783          	ld	a5,0(a5)
    800013d4:	0c100593          	li	a1,193
    800013d8:	00078513          	mv	a0,a5
    800013dc:	cb9ff0ef          	jal	ra,80001094 <set_i2c_shakti>
    800013e0:	81018793          	addi	a5,gp,-2032 # 800085e0 <i2c_status>
    800013e4:	0007b783          	ld	a5,0(a5)
    800013e8:	00078513          	mv	a0,a5
    800013ec:	c5dff0ef          	jal	ra,80001048 <get_i2c_shakti>
    800013f0:	00050793          	mv	a5,a0
    800013f4:	fef407a3          	sb	a5,-17(s0)
    800013f8:	fef44783          	lbu	a5,-17(s0)
    800013fc:	0007879b          	sext.w	a5,a5
    80001400:	00078593          	mv	a1,a5
    80001404:	00003517          	auipc	a0,0x3
    80001408:	86450513          	addi	a0,a0,-1948 # 80003c68 <atol+0x2c8>
    8000140c:	254020ef          	jal	ra,80003660 <printf>
    80001410:	fef44783          	lbu	a5,-17(s0)
    80001414:	0ff7f713          	andi	a4,a5,255
    80001418:	08100793          	li	a5,129
    8000141c:	00f70c63          	beq	a4,a5,80001434 <shakti_init_i2c+0x1d8>
    80001420:	00003517          	auipc	a0,0x3
    80001424:	86850513          	addi	a0,a0,-1944 # 80003c88 <atol+0x2e8>
    80001428:	238020ef          	jal	ra,80003660 <printf>
    8000142c:	05200793          	li	a5,82
    80001430:	01c0006f          	j	8000144c <shakti_init_i2c+0x1f0>
    80001434:	00003517          	auipc	a0,0x3
    80001438:	86c50513          	addi	a0,a0,-1940 # 80003ca0 <atol+0x300>
    8000143c:	224020ef          	jal	ra,80003660 <printf>
    80001440:	00003517          	auipc	a0,0x3
    80001444:	88050513          	addi	a0,a0,-1920 # 80003cc0 <atol+0x320>
    80001448:	218020ef          	jal	ra,80003660 <printf>
    8000144c:	00078513          	mv	a0,a5
    80001450:	01813083          	ld	ra,24(sp)
    80001454:	01013403          	ld	s0,16(sp)
    80001458:	02010113          	addi	sp,sp,32
    8000145c:	00008067          	ret

0000000080001460 <wait_for_bb>:
    80001460:	fe010113          	addi	sp,sp,-32
    80001464:	00113c23          	sd	ra,24(sp)
    80001468:	00813823          	sd	s0,16(sp)
    8000146c:	02010413          	addi	s0,sp,32
    80001470:	00003517          	auipc	a0,0x3
    80001474:	87050513          	addi	a0,a0,-1936 # 80003ce0 <atol+0x340>
    80001478:	1e8020ef          	jal	ra,80003660 <printf>
    8000147c:	03c00793          	li	a5,60
    80001480:	fef42623          	sw	a5,-20(s0)
    80001484:	81018793          	addi	a5,gp,-2032 # 800085e0 <i2c_status>
    80001488:	0007b783          	ld	a5,0(a5)
    8000148c:	00078513          	mv	a0,a5
    80001490:	bb9ff0ef          	jal	ra,80001048 <get_i2c_shakti>
    80001494:	00050793          	mv	a5,a0
    80001498:	fef42423          	sw	a5,-24(s0)
    8000149c:	0280006f          	j	800014c4 <wait_for_bb+0x64>
    800014a0:	000027b7          	lui	a5,0x2
    800014a4:	71078513          	addi	a0,a5,1808 # 2710 <_tbss_end+0x270c>
    800014a8:	c45ff0ef          	jal	ra,800010ec <waitfor>
    800014ac:	81018793          	addi	a5,gp,-2032 # 800085e0 <i2c_status>
    800014b0:	0007b783          	ld	a5,0(a5)
    800014b4:	00078513          	mv	a0,a5
    800014b8:	b91ff0ef          	jal	ra,80001048 <get_i2c_shakti>
    800014bc:	00050793          	mv	a5,a0
    800014c0:	fef42423          	sw	a5,-24(s0)
    800014c4:	fe842783          	lw	a5,-24(s0)
    800014c8:	0017f793          	andi	a5,a5,1
    800014cc:	0007879b          	sext.w	a5,a5
    800014d0:	00079e63          	bnez	a5,800014ec <wait_for_bb+0x8c>
    800014d4:	fec42783          	lw	a5,-20(s0)
    800014d8:	fff7879b          	addiw	a5,a5,-1
    800014dc:	fef42623          	sw	a5,-20(s0)
    800014e0:	fec42783          	lw	a5,-20(s0)
    800014e4:	0007879b          	sext.w	a5,a5
    800014e8:	fa079ce3          	bnez	a5,800014a0 <wait_for_bb+0x40>
    800014ec:	fec42783          	lw	a5,-20(s0)
    800014f0:	0007879b          	sext.w	a5,a5
    800014f4:	00079c63          	bnez	a5,8000150c <wait_for_bb+0xac>
    800014f8:	00002517          	auipc	a0,0x2
    800014fc:	7f850513          	addi	a0,a0,2040 # 80003cf0 <atol+0x350>
    80001500:	160020ef          	jal	ra,80003660 <printf>
    80001504:	fb000793          	li	a5,-80
    80001508:	0080006f          	j	80001510 <wait_for_bb+0xb0>
    8000150c:	00000793          	li	a5,0
    80001510:	00078513          	mv	a0,a5
    80001514:	01813083          	ld	ra,24(sp)
    80001518:	01013403          	ld	s0,16(sp)
    8000151c:	02010113          	addi	sp,sp,32
    80001520:	00008067          	ret

0000000080001524 <wait_for_pin>:
    80001524:	fd010113          	addi	sp,sp,-48
    80001528:	02113423          	sd	ra,40(sp)
    8000152c:	02813023          	sd	s0,32(sp)
    80001530:	03010413          	addi	s0,sp,48
    80001534:	fca43c23          	sd	a0,-40(s0)
    80001538:	03c00793          	li	a5,60
    8000153c:	fef42623          	sw	a5,-20(s0)
    80001540:	81018793          	addi	a5,gp,-2032 # 800085e0 <i2c_status>
    80001544:	0007b783          	ld	a5,0(a5)
    80001548:	00078513          	mv	a0,a5
    8000154c:	afdff0ef          	jal	ra,80001048 <get_i2c_shakti>
    80001550:	00050793          	mv	a5,a0
    80001554:	00078713          	mv	a4,a5
    80001558:	fd843783          	ld	a5,-40(s0)
    8000155c:	00e7a023          	sw	a4,0(a5)
    80001560:	0300006f          	j	80001590 <wait_for_pin+0x6c>
    80001564:	000027b7          	lui	a5,0x2
    80001568:	71078513          	addi	a0,a5,1808 # 2710 <_tbss_end+0x270c>
    8000156c:	b81ff0ef          	jal	ra,800010ec <waitfor>
    80001570:	81018793          	addi	a5,gp,-2032 # 800085e0 <i2c_status>
    80001574:	0007b783          	ld	a5,0(a5)
    80001578:	00078513          	mv	a0,a5
    8000157c:	acdff0ef          	jal	ra,80001048 <get_i2c_shakti>
    80001580:	00050793          	mv	a5,a0
    80001584:	00078713          	mv	a4,a5
    80001588:	fd843783          	ld	a5,-40(s0)
    8000158c:	00e7a023          	sw	a4,0(a5)
    80001590:	fd843783          	ld	a5,-40(s0)
    80001594:	0007a783          	lw	a5,0(a5)
    80001598:	0807f793          	andi	a5,a5,128
    8000159c:	0007879b          	sext.w	a5,a5
    800015a0:	00078e63          	beqz	a5,800015bc <wait_for_pin+0x98>
    800015a4:	fec42783          	lw	a5,-20(s0)
    800015a8:	fff7879b          	addiw	a5,a5,-1
    800015ac:	fef42623          	sw	a5,-20(s0)
    800015b0:	fec42783          	lw	a5,-20(s0)
    800015b4:	0007879b          	sext.w	a5,a5
    800015b8:	fa0796e3          	bnez	a5,80001564 <wait_for_pin+0x40>
    800015bc:	fec42783          	lw	a5,-20(s0)
    800015c0:	0007879b          	sext.w	a5,a5
    800015c4:	00079c63          	bnez	a5,800015dc <wait_for_pin+0xb8>
    800015c8:	00002517          	auipc	a0,0x2
    800015cc:	75050513          	addi	a0,a0,1872 # 80003d18 <atol+0x378>
    800015d0:	090020ef          	jal	ra,80003660 <printf>
    800015d4:	fb000793          	li	a5,-80
    800015d8:	0080006f          	j	800015e0 <wait_for_pin+0xbc>
    800015dc:	00000793          	li	a5,0
    800015e0:	00078513          	mv	a0,a5
    800015e4:	02813083          	ld	ra,40(sp)
    800015e8:	02013403          	ld	s0,32(sp)
    800015ec:	03010113          	addi	sp,sp,48
    800015f0:	00008067          	ret

00000000800015f4 <shakti_sendbytes>:
    800015f4:	fc010113          	addi	sp,sp,-64
    800015f8:	02113c23          	sd	ra,56(sp)
    800015fc:	02813823          	sd	s0,48(sp)
    80001600:	04010413          	addi	s0,sp,64
    80001604:	fca43c23          	sd	a0,-40(s0)
    80001608:	00058793          	mv	a5,a1
    8000160c:	00068713          	mv	a4,a3
    80001610:	fcf42a23          	sw	a5,-44(s0)
    80001614:	00060793          	mv	a5,a2
    80001618:	fcf42823          	sw	a5,-48(s0)
    8000161c:	00070793          	mv	a5,a4
    80001620:	fcf42623          	sw	a5,-52(s0)
    80001624:	00002517          	auipc	a0,0x2
    80001628:	71450513          	addi	a0,a0,1812 # 80003d38 <atol+0x398>
    8000162c:	034020ef          	jal	ra,80003660 <printf>
    80001630:	fe042623          	sw	zero,-20(s0)
    80001634:	09c0006f          	j	800016d0 <shakti_sendbytes+0xdc>
    80001638:	00007797          	auipc	a5,0x7
    8000163c:	fa078793          	addi	a5,a5,-96 # 800085d8 <i2c_data>
    80001640:	0007b683          	ld	a3,0(a5)
    80001644:	fec42783          	lw	a5,-20(s0)
    80001648:	fd843703          	ld	a4,-40(s0)
    8000164c:	00f707b3          	add	a5,a4,a5
    80001650:	0007c783          	lbu	a5,0(a5)
    80001654:	0007879b          	sext.w	a5,a5
    80001658:	00078593          	mv	a1,a5
    8000165c:	00068513          	mv	a0,a3
    80001660:	a35ff0ef          	jal	ra,80001094 <set_i2c_shakti>
    80001664:	fe440793          	addi	a5,s0,-28
    80001668:	00078513          	mv	a0,a5
    8000166c:	eb9ff0ef          	jal	ra,80001524 <wait_for_pin>
    80001670:	00050793          	mv	a5,a0
    80001674:	fef42423          	sw	a5,-24(s0)
    80001678:	fe842783          	lw	a5,-24(s0)
    8000167c:	0007879b          	sext.w	a5,a5
    80001680:	00078e63          	beqz	a5,8000169c <shakti_sendbytes+0xa8>
    80001684:	00002517          	auipc	a0,0x2
    80001688:	70c50513          	addi	a0,a0,1804 # 80003d90 <atol+0x3f0>
    8000168c:	7d5010ef          	jal	ra,80003660 <printf>
    80001690:	b91ff0ef          	jal	ra,80001220 <i2c_stop>
    80001694:	faf00793          	li	a5,-81
    80001698:	0940006f          	j	8000172c <shakti_sendbytes+0x138>
    8000169c:	fe442783          	lw	a5,-28(s0)
    800016a0:	0087f793          	andi	a5,a5,8
    800016a4:	0007879b          	sext.w	a5,a5
    800016a8:	00078e63          	beqz	a5,800016c4 <shakti_sendbytes+0xd0>
    800016ac:	b75ff0ef          	jal	ra,80001220 <i2c_stop>
    800016b0:	00002517          	auipc	a0,0x2
    800016b4:	72850513          	addi	a0,a0,1832 # 80003dd8 <atol+0x438>
    800016b8:	7a9010ef          	jal	ra,80003660 <printf>
    800016bc:	faf00793          	li	a5,-81
    800016c0:	06c0006f          	j	8000172c <shakti_sendbytes+0x138>
    800016c4:	fec42783          	lw	a5,-20(s0)
    800016c8:	0017879b          	addiw	a5,a5,1
    800016cc:	fef42623          	sw	a5,-20(s0)
    800016d0:	fec42703          	lw	a4,-20(s0)
    800016d4:	fd442783          	lw	a5,-44(s0)
    800016d8:	0007071b          	sext.w	a4,a4
    800016dc:	0007879b          	sext.w	a5,a5
    800016e0:	f4f74ce3          	blt	a4,a5,80001638 <shakti_sendbytes+0x44>
    800016e4:	fd042783          	lw	a5,-48(s0)
    800016e8:	0007879b          	sext.w	a5,a5
    800016ec:	00078c63          	beqz	a5,80001704 <shakti_sendbytes+0x110>
    800016f0:	00002517          	auipc	a0,0x2
    800016f4:	70850513          	addi	a0,a0,1800 # 80003df8 <atol+0x458>
    800016f8:	769010ef          	jal	ra,80003660 <printf>
    800016fc:	b25ff0ef          	jal	ra,80001220 <i2c_stop>
    80001700:	0280006f          	j	80001728 <shakti_sendbytes+0x134>
    80001704:	00002517          	auipc	a0,0x2
    80001708:	71450513          	addi	a0,a0,1812 # 80003e18 <atol+0x478>
    8000170c:	755010ef          	jal	ra,80003660 <printf>
    80001710:	fcc42783          	lw	a5,-52(s0)
    80001714:	0007879b          	sext.w	a5,a5
    80001718:	00079663          	bnez	a5,80001724 <shakti_sendbytes+0x130>
    8000171c:	a8dff0ef          	jal	ra,800011a8 <i2c_repstart>
    80001720:	0080006f          	j	80001728 <shakti_sendbytes+0x134>
    80001724:	ac1ff0ef          	jal	ra,800011e4 <i2c_repstart_eni>
    80001728:	fec42783          	lw	a5,-20(s0)
    8000172c:	00078513          	mv	a0,a5
    80001730:	03813083          	ld	ra,56(sp)
    80001734:	03013403          	ld	s0,48(sp)
    80001738:	04010113          	addi	sp,sp,64
    8000173c:	00008067          	ret

0000000080001740 <shakti_readbytes>:
    80001740:	fd010113          	addi	sp,sp,-48
    80001744:	02113423          	sd	ra,40(sp)
    80001748:	02813023          	sd	s0,32(sp)
    8000174c:	03010413          	addi	s0,sp,48
    80001750:	fca43c23          	sd	a0,-40(s0)
    80001754:	00058793          	mv	a5,a1
    80001758:	00060713          	mv	a4,a2
    8000175c:	fcf42a23          	sw	a5,-44(s0)
    80001760:	00070793          	mv	a5,a4
    80001764:	fcf42823          	sw	a5,-48(s0)
    80001768:	fe042423          	sw	zero,-24(s0)
    8000176c:	fe042623          	sw	zero,-20(s0)
    80001770:	1580006f          	j	800018c8 <shakti_readbytes+0x188>
    80001774:	fe040793          	addi	a5,s0,-32
    80001778:	00078513          	mv	a0,a5
    8000177c:	da9ff0ef          	jal	ra,80001524 <wait_for_pin>
    80001780:	00050793          	mv	a5,a0
    80001784:	fef42223          	sw	a5,-28(s0)
    80001788:	fe442783          	lw	a5,-28(s0)
    8000178c:	0007879b          	sext.w	a5,a5
    80001790:	00078863          	beqz	a5,800017a0 <shakti_readbytes+0x60>
    80001794:	a8dff0ef          	jal	ra,80001220 <i2c_stop>
    80001798:	fff00793          	li	a5,-1
    8000179c:	14c0006f          	j	800018e8 <shakti_readbytes+0x1a8>
    800017a0:	fe042783          	lw	a5,-32(s0)
    800017a4:	0087f793          	andi	a5,a5,8
    800017a8:	0007879b          	sext.w	a5,a5
    800017ac:	02078863          	beqz	a5,800017dc <shakti_readbytes+0x9c>
    800017b0:	fec42703          	lw	a4,-20(s0)
    800017b4:	fd442783          	lw	a5,-44(s0)
    800017b8:	0007071b          	sext.w	a4,a4
    800017bc:	0007879b          	sext.w	a5,a5
    800017c0:	00f70e63          	beq	a4,a5,800017dc <shakti_readbytes+0x9c>
    800017c4:	a5dff0ef          	jal	ra,80001220 <i2c_stop>
    800017c8:	00002517          	auipc	a0,0x2
    800017cc:	69050513          	addi	a0,a0,1680 # 80003e58 <atol+0x4b8>
    800017d0:	691010ef          	jal	ra,80003660 <printf>
    800017d4:	fff00793          	li	a5,-1
    800017d8:	1100006f          	j	800018e8 <shakti_readbytes+0x1a8>
    800017dc:	fec42783          	lw	a5,-20(s0)
    800017e0:	0007879b          	sext.w	a5,a5
    800017e4:	06078263          	beqz	a5,80001848 <shakti_readbytes+0x108>
    800017e8:	00007797          	auipc	a5,0x7
    800017ec:	df078793          	addi	a5,a5,-528 # 800085d8 <i2c_data>
    800017f0:	0007b783          	ld	a5,0(a5)
    800017f4:	00078513          	mv	a0,a5
    800017f8:	851ff0ef          	jal	ra,80001048 <get_i2c_shakti>
    800017fc:	00050793          	mv	a5,a0
    80001800:	00078693          	mv	a3,a5
    80001804:	fec42783          	lw	a5,-20(s0)
    80001808:	fff78793          	addi	a5,a5,-1
    8000180c:	fd843703          	ld	a4,-40(s0)
    80001810:	00f707b3          	add	a5,a4,a5
    80001814:	0ff6f713          	andi	a4,a3,255
    80001818:	00e78023          	sb	a4,0(a5)
    8000181c:	fec42783          	lw	a5,-20(s0)
    80001820:	fff78793          	addi	a5,a5,-1
    80001824:	fd843703          	ld	a4,-40(s0)
    80001828:	00f707b3          	add	a5,a4,a5
    8000182c:	0007c783          	lbu	a5,0(a5)
    80001830:	0007879b          	sext.w	a5,a5
    80001834:	00078593          	mv	a1,a5
    80001838:	00002517          	auipc	a0,0x2
    8000183c:	63050513          	addi	a0,a0,1584 # 80003e68 <atol+0x4c8>
    80001840:	621010ef          	jal	ra,80003660 <printf>
    80001844:	0180006f          	j	8000185c <shakti_readbytes+0x11c>
    80001848:	00007797          	auipc	a5,0x7
    8000184c:	d9078793          	addi	a5,a5,-624 # 800085d8 <i2c_data>
    80001850:	0007b783          	ld	a5,0(a5)
    80001854:	00078513          	mv	a0,a5
    80001858:	ff0ff0ef          	jal	ra,80001048 <get_i2c_shakti>
    8000185c:	fd442783          	lw	a5,-44(s0)
    80001860:	fff7879b          	addiw	a5,a5,-1
    80001864:	0007871b          	sext.w	a4,a5
    80001868:	fec42783          	lw	a5,-20(s0)
    8000186c:	0007879b          	sext.w	a5,a5
    80001870:	02e79063          	bne	a5,a4,80001890 <shakti_readbytes+0x150>
    80001874:	00007797          	auipc	a5,0x7
    80001878:	d5c78793          	addi	a5,a5,-676 # 800085d0 <i2c_control>
    8000187c:	0007b783          	ld	a5,0(a5)
    80001880:	04000593          	li	a1,64
    80001884:	00078513          	mv	a0,a5
    80001888:	80dff0ef          	jal	ra,80001094 <set_i2c_shakti>
    8000188c:	0300006f          	j	800018bc <shakti_readbytes+0x17c>
    80001890:	fec42703          	lw	a4,-20(s0)
    80001894:	fd442783          	lw	a5,-44(s0)
    80001898:	0007071b          	sext.w	a4,a4
    8000189c:	0007879b          	sext.w	a5,a5
    800018a0:	00f71e63          	bne	a4,a5,800018bc <shakti_readbytes+0x17c>
    800018a4:	fd042783          	lw	a5,-48(s0)
    800018a8:	0007879b          	sext.w	a5,a5
    800018ac:	00078663          	beqz	a5,800018b8 <shakti_readbytes+0x178>
    800018b0:	971ff0ef          	jal	ra,80001220 <i2c_stop>
    800018b4:	0080006f          	j	800018bc <shakti_readbytes+0x17c>
    800018b8:	8f1ff0ef          	jal	ra,800011a8 <i2c_repstart>
    800018bc:	fec42783          	lw	a5,-20(s0)
    800018c0:	0017879b          	addiw	a5,a5,1
    800018c4:	fef42623          	sw	a5,-20(s0)
    800018c8:	fec42703          	lw	a4,-20(s0)
    800018cc:	fd442783          	lw	a5,-44(s0)
    800018d0:	0007071b          	sext.w	a4,a4
    800018d4:	0007879b          	sext.w	a5,a5
    800018d8:	e8e7dee3          	bge	a5,a4,80001774 <shakti_readbytes+0x34>
    800018dc:	fec42783          	lw	a5,-20(s0)
    800018e0:	fff7879b          	addiw	a5,a5,-1
    800018e4:	0007879b          	sext.w	a5,a5
    800018e8:	00078513          	mv	a0,a5
    800018ec:	02813083          	ld	ra,40(sp)
    800018f0:	02013403          	ld	s0,32(sp)
    800018f4:	03010113          	addi	sp,sp,48
    800018f8:	00008067          	ret

00000000800018fc <ConfigureI2cController>:
    800018fc:	fd010113          	addi	sp,sp,-48
    80001900:	02113423          	sd	ra,40(sp)
    80001904:	02813023          	sd	s0,32(sp)
    80001908:	03010413          	addi	s0,sp,48
    8000190c:	00050793          	mv	a5,a0
    80001910:	00058713          	mv	a4,a1
    80001914:	fcf42e23          	sw	a5,-36(s0)
    80001918:	00070793          	mv	a5,a4
    8000191c:	fcf42c23          	sw	a5,-40(s0)
    80001920:	fe0407a3          	sb	zero,-17(s0)
    80001924:	00002517          	auipc	a0,0x2
    80001928:	55c50513          	addi	a0,a0,1372 # 80003e80 <atol+0x4e0>
    8000192c:	535010ef          	jal	ra,80003660 <printf>
    80001930:	81818793          	addi	a5,gp,-2024 # 800085e8 <i2c_prescale>
    80001934:	0007b783          	ld	a5,0(a5)
    80001938:	fdc42703          	lw	a4,-36(s0)
    8000193c:	00070593          	mv	a1,a4
    80001940:	00078513          	mv	a0,a5
    80001944:	f50ff0ef          	jal	ra,80001094 <set_i2c_shakti>
    80001948:	81818793          	addi	a5,gp,-2024 # 800085e8 <i2c_prescale>
    8000194c:	0007b783          	ld	a5,0(a5)
    80001950:	00078513          	mv	a0,a5
    80001954:	ef4ff0ef          	jal	ra,80001048 <get_i2c_shakti>
    80001958:	00050793          	mv	a5,a0
    8000195c:	fef407a3          	sb	a5,-17(s0)
    80001960:	fef44783          	lbu	a5,-17(s0)
    80001964:	0007871b          	sext.w	a4,a5
    80001968:	fdc42783          	lw	a5,-36(s0)
    8000196c:	0007879b          	sext.w	a5,a5
    80001970:	02e78263          	beq	a5,a4,80001994 <ConfigureI2cController+0x98>
    80001974:	fef44783          	lbu	a5,-17(s0)
    80001978:	0007871b          	sext.w	a4,a5
    8000197c:	fdc42783          	lw	a5,-36(s0)
    80001980:	00070613          	mv	a2,a4
    80001984:	00078593          	mv	a1,a5
    80001988:	00002517          	auipc	a0,0x2
    8000198c:	52050513          	addi	a0,a0,1312 # 80003ea8 <atol+0x508>
    80001990:	4d1010ef          	jal	ra,80003660 <printf>
    80001994:	82018793          	addi	a5,gp,-2016 # 800085f0 <i2c_scl>
    80001998:	0007b783          	ld	a5,0(a5)
    8000199c:	fd842703          	lw	a4,-40(s0)
    800019a0:	00070593          	mv	a1,a4
    800019a4:	00078513          	mv	a0,a5
    800019a8:	eecff0ef          	jal	ra,80001094 <set_i2c_shakti>
    800019ac:	82018793          	addi	a5,gp,-2016 # 800085f0 <i2c_scl>
    800019b0:	0007b783          	ld	a5,0(a5)
    800019b4:	00078513          	mv	a0,a5
    800019b8:	e90ff0ef          	jal	ra,80001048 <get_i2c_shakti>
    800019bc:	00050793          	mv	a5,a0
    800019c0:	fef407a3          	sb	a5,-17(s0)
    800019c4:	fef44783          	lbu	a5,-17(s0)
    800019c8:	0007871b          	sext.w	a4,a5
    800019cc:	fd842783          	lw	a5,-40(s0)
    800019d0:	0007879b          	sext.w	a5,a5
    800019d4:	02e78663          	beq	a5,a4,80001a00 <ConfigureI2cController+0x104>
    800019d8:	fef44783          	lbu	a5,-17(s0)
    800019dc:	0007871b          	sext.w	a4,a5
    800019e0:	fd842783          	lw	a5,-40(s0)
    800019e4:	00070613          	mv	a2,a4
    800019e8:	00078593          	mv	a1,a5
    800019ec:	00002517          	auipc	a0,0x2
    800019f0:	50c50513          	addi	a0,a0,1292 # 80003ef8 <atol+0x558>
    800019f4:	46d010ef          	jal	ra,80003660 <printf>
    800019f8:	05200793          	li	a5,82
    800019fc:	1d40006f          	j	80001bd0 <ConfigureI2cController+0x2d4>
    80001a00:	00002517          	auipc	a0,0x2
    80001a04:	15850513          	addi	a0,a0,344 # 80003b58 <atol+0x1b8>
    80001a08:	459010ef          	jal	ra,80003660 <printf>
    80001a0c:	00002517          	auipc	a0,0x2
    80001a10:	53450513          	addi	a0,a0,1332 # 80003f40 <atol+0x5a0>
    80001a14:	44d010ef          	jal	ra,80003660 <printf>
    80001a18:	00007797          	auipc	a5,0x7
    80001a1c:	bb878793          	addi	a5,a5,-1096 # 800085d0 <i2c_control>
    80001a20:	0007b783          	ld	a5,0(a5)
    80001a24:	00100593          	li	a1,1
    80001a28:	00078513          	mv	a0,a5
    80001a2c:	e68ff0ef          	jal	ra,80001094 <set_i2c_shakti>
    80001a30:	00007797          	auipc	a5,0x7
    80001a34:	ba078793          	addi	a5,a5,-1120 # 800085d0 <i2c_control>
    80001a38:	0007b783          	ld	a5,0(a5)
    80001a3c:	00078513          	mv	a0,a5
    80001a40:	e08ff0ef          	jal	ra,80001048 <get_i2c_shakti>
    80001a44:	00050793          	mv	a5,a0
    80001a48:	fef407a3          	sb	a5,-17(s0)
    80001a4c:	fef44783          	lbu	a5,-17(s0)
    80001a50:	0007879b          	sext.w	a5,a5
    80001a54:	00078593          	mv	a1,a5
    80001a58:	00002517          	auipc	a0,0x2
    80001a5c:	51050513          	addi	a0,a0,1296 # 80003f68 <atol+0x5c8>
    80001a60:	401010ef          	jal	ra,80003660 <printf>
    80001a64:	00002517          	auipc	a0,0x2
    80001a68:	11450513          	addi	a0,a0,276 # 80003b78 <atol+0x1d8>
    80001a6c:	3f5010ef          	jal	ra,80003660 <printf>
    80001a70:	00007797          	auipc	a5,0x7
    80001a74:	b6078793          	addi	a5,a5,-1184 # 800085d0 <i2c_control>
    80001a78:	0007b783          	ld	a5,0(a5)
    80001a7c:	08000593          	li	a1,128
    80001a80:	00078513          	mv	a0,a5
    80001a84:	e10ff0ef          	jal	ra,80001094 <set_i2c_shakti>
    80001a88:	00002517          	auipc	a0,0x2
    80001a8c:	11850513          	addi	a0,a0,280 # 80003ba0 <atol+0x200>
    80001a90:	3d1010ef          	jal	ra,80003660 <printf>
    80001a94:	00002517          	auipc	a0,0x2
    80001a98:	13450513          	addi	a0,a0,308 # 80003bc8 <atol+0x228>
    80001a9c:	3c5010ef          	jal	ra,80003660 <printf>
    80001aa0:	00007797          	auipc	a5,0x7
    80001aa4:	b3078793          	addi	a5,a5,-1232 # 800085d0 <i2c_control>
    80001aa8:	0007b783          	ld	a5,0(a5)
    80001aac:	00078513          	mv	a0,a5
    80001ab0:	d98ff0ef          	jal	ra,80001048 <get_i2c_shakti>
    80001ab4:	00050793          	mv	a5,a0
    80001ab8:	fef407a3          	sb	a5,-17(s0)
    80001abc:	fef44783          	lbu	a5,-17(s0)
    80001ac0:	0007879b          	sext.w	a5,a5
    80001ac4:	00078593          	mv	a1,a5
    80001ac8:	00002517          	auipc	a0,0x2
    80001acc:	12050513          	addi	a0,a0,288 # 80003be8 <atol+0x248>
    80001ad0:	391010ef          	jal	ra,80003660 <printf>
    80001ad4:	fef44783          	lbu	a5,-17(s0)
    80001ad8:	0007879b          	sext.w	a5,a5
    80001adc:	07f7f793          	andi	a5,a5,127
    80001ae0:	0007879b          	sext.w	a5,a5
    80001ae4:	00078c63          	beqz	a5,80001afc <ConfigureI2cController+0x200>
    80001ae8:	00002517          	auipc	a0,0x2
    80001aec:	13050513          	addi	a0,a0,304 # 80003c18 <atol+0x278>
    80001af0:	371010ef          	jal	ra,80003660 <printf>
    80001af4:	05200793          	li	a5,82
    80001af8:	0d80006f          	j	80001bd0 <ConfigureI2cController+0x2d4>
    80001afc:	00002517          	auipc	a0,0x2
    80001b00:	13450513          	addi	a0,a0,308 # 80003c30 <atol+0x290>
    80001b04:	35d010ef          	jal	ra,80003660 <printf>
    80001b08:	38400513          	li	a0,900
    80001b0c:	de0ff0ef          	jal	ra,800010ec <waitfor>
    80001b10:	00002517          	auipc	a0,0x2
    80001b14:	14050513          	addi	a0,a0,320 # 80003c50 <atol+0x2b0>
    80001b18:	349010ef          	jal	ra,80003660 <printf>
    80001b1c:	f04ff0ef          	jal	ra,80001220 <i2c_stop>
    80001b20:	00002517          	auipc	a0,0x2
    80001b24:	47050513          	addi	a0,a0,1136 # 80003f90 <atol+0x5f0>
    80001b28:	339010ef          	jal	ra,80003660 <printf>
    80001b2c:	00007797          	auipc	a5,0x7
    80001b30:	aa478793          	addi	a5,a5,-1372 # 800085d0 <i2c_control>
    80001b34:	0007b783          	ld	a5,0(a5)
    80001b38:	0c100593          	li	a1,193
    80001b3c:	00078513          	mv	a0,a5
    80001b40:	d54ff0ef          	jal	ra,80001094 <set_i2c_shakti>
    80001b44:	00002517          	auipc	a0,0x2
    80001b48:	47450513          	addi	a0,a0,1140 # 80003fb8 <atol+0x618>
    80001b4c:	315010ef          	jal	ra,80003660 <printf>
    80001b50:	38400513          	li	a0,900
    80001b54:	d98ff0ef          	jal	ra,800010ec <waitfor>
    80001b58:	00002517          	auipc	a0,0x2
    80001b5c:	0f850513          	addi	a0,a0,248 # 80003c50 <atol+0x2b0>
    80001b60:	301010ef          	jal	ra,80003660 <printf>
    80001b64:	81018793          	addi	a5,gp,-2032 # 800085e0 <i2c_status>
    80001b68:	0007b783          	ld	a5,0(a5)
    80001b6c:	00078513          	mv	a0,a5
    80001b70:	cd8ff0ef          	jal	ra,80001048 <get_i2c_shakti>
    80001b74:	00050793          	mv	a5,a0
    80001b78:	fef407a3          	sb	a5,-17(s0)
    80001b7c:	fef44783          	lbu	a5,-17(s0)
    80001b80:	0007879b          	sext.w	a5,a5
    80001b84:	00078593          	mv	a1,a5
    80001b88:	00002517          	auipc	a0,0x2
    80001b8c:	0e050513          	addi	a0,a0,224 # 80003c68 <atol+0x2c8>
    80001b90:	2d1010ef          	jal	ra,80003660 <printf>
    80001b94:	fef44783          	lbu	a5,-17(s0)
    80001b98:	0ff7f713          	andi	a4,a5,255
    80001b9c:	08100793          	li	a5,129
    80001ba0:	00f70c63          	beq	a4,a5,80001bb8 <ConfigureI2cController+0x2bc>
    80001ba4:	00002517          	auipc	a0,0x2
    80001ba8:	0e450513          	addi	a0,a0,228 # 80003c88 <atol+0x2e8>
    80001bac:	2b5010ef          	jal	ra,80003660 <printf>
    80001bb0:	05200793          	li	a5,82
    80001bb4:	01c0006f          	j	80001bd0 <ConfigureI2cController+0x2d4>
    80001bb8:	00002517          	auipc	a0,0x2
    80001bbc:	0e850513          	addi	a0,a0,232 # 80003ca0 <atol+0x300>
    80001bc0:	2a1010ef          	jal	ra,80003660 <printf>
    80001bc4:	00002517          	auipc	a0,0x2
    80001bc8:	0fc50513          	addi	a0,a0,252 # 80003cc0 <atol+0x320>
    80001bcc:	295010ef          	jal	ra,80003660 <printf>
    80001bd0:	00078513          	mv	a0,a5
    80001bd4:	02813083          	ld	ra,40(sp)
    80001bd8:	02013403          	ld	s0,32(sp)
    80001bdc:	03010113          	addi	sp,sp,48
    80001be0:	00008067          	ret

0000000080001be4 <ConfigureI2cController1>:
    80001be4:	fd010113          	addi	sp,sp,-48
    80001be8:	02113423          	sd	ra,40(sp)
    80001bec:	02813023          	sd	s0,32(sp)
    80001bf0:	03010413          	addi	s0,sp,48
    80001bf4:	00050793          	mv	a5,a0
    80001bf8:	00058713          	mv	a4,a1
    80001bfc:	fcf42e23          	sw	a5,-36(s0)
    80001c00:	00070793          	mv	a5,a4
    80001c04:	fcf42c23          	sw	a5,-40(s0)
    80001c08:	fe0407a3          	sb	zero,-17(s0)
    80001c0c:	00002517          	auipc	a0,0x2
    80001c10:	27450513          	addi	a0,a0,628 # 80003e80 <atol+0x4e0>
    80001c14:	24d010ef          	jal	ra,80003660 <printf>
    80001c18:	82818793          	addi	a5,gp,-2008 # 800085f8 <i2c_led>
    80001c1c:	0007b783          	ld	a5,0(a5)
    80001c20:	fdc42703          	lw	a4,-36(s0)
    80001c24:	00070593          	mv	a1,a4
    80001c28:	00078513          	mv	a0,a5
    80001c2c:	c68ff0ef          	jal	ra,80001094 <set_i2c_shakti>
    80001c30:	82818793          	addi	a5,gp,-2008 # 800085f8 <i2c_led>
    80001c34:	0007b783          	ld	a5,0(a5)
    80001c38:	00078513          	mv	a0,a5
    80001c3c:	c0cff0ef          	jal	ra,80001048 <get_i2c_shakti>
    80001c40:	00050793          	mv	a5,a0
    80001c44:	fef407a3          	sb	a5,-17(s0)
    80001c48:	fef44783          	lbu	a5,-17(s0)
    80001c4c:	0007871b          	sext.w	a4,a5
    80001c50:	fdc42783          	lw	a5,-36(s0)
    80001c54:	0007879b          	sext.w	a5,a5
    80001c58:	02e78263          	beq	a5,a4,80001c7c <ConfigureI2cController1+0x98>
    80001c5c:	fef44783          	lbu	a5,-17(s0)
    80001c60:	0007871b          	sext.w	a4,a5
    80001c64:	fdc42783          	lw	a5,-36(s0)
    80001c68:	00070613          	mv	a2,a4
    80001c6c:	00078593          	mv	a1,a5
    80001c70:	00002517          	auipc	a0,0x2
    80001c74:	23850513          	addi	a0,a0,568 # 80003ea8 <atol+0x508>
    80001c78:	1e9010ef          	jal	ra,80003660 <printf>
    80001c7c:	82818793          	addi	a5,gp,-2008 # 800085f8 <i2c_led>
    80001c80:	0007b783          	ld	a5,0(a5)
    80001c84:	fd842703          	lw	a4,-40(s0)
    80001c88:	00070593          	mv	a1,a4
    80001c8c:	00078513          	mv	a0,a5
    80001c90:	c04ff0ef          	jal	ra,80001094 <set_i2c_shakti>
    80001c94:	82818793          	addi	a5,gp,-2008 # 800085f8 <i2c_led>
    80001c98:	0007b783          	ld	a5,0(a5)
    80001c9c:	00078513          	mv	a0,a5
    80001ca0:	ba8ff0ef          	jal	ra,80001048 <get_i2c_shakti>
    80001ca4:	00050793          	mv	a5,a0
    80001ca8:	fef407a3          	sb	a5,-17(s0)
    80001cac:	fef44783          	lbu	a5,-17(s0)
    80001cb0:	0007871b          	sext.w	a4,a5
    80001cb4:	fd842783          	lw	a5,-40(s0)
    80001cb8:	0007879b          	sext.w	a5,a5
    80001cbc:	02e78663          	beq	a5,a4,80001ce8 <ConfigureI2cController1+0x104>
    80001cc0:	fef44783          	lbu	a5,-17(s0)
    80001cc4:	0007871b          	sext.w	a4,a5
    80001cc8:	fd842783          	lw	a5,-40(s0)
    80001ccc:	00070613          	mv	a2,a4
    80001cd0:	00078593          	mv	a1,a5
    80001cd4:	00002517          	auipc	a0,0x2
    80001cd8:	22450513          	addi	a0,a0,548 # 80003ef8 <atol+0x558>
    80001cdc:	185010ef          	jal	ra,80003660 <printf>
    80001ce0:	05200793          	li	a5,82
    80001ce4:	0100006f          	j	80001cf4 <ConfigureI2cController1+0x110>
    80001ce8:	00002517          	auipc	a0,0x2
    80001cec:	e7050513          	addi	a0,a0,-400 # 80003b58 <atol+0x1b8>
    80001cf0:	171010ef          	jal	ra,80003660 <printf>
    80001cf4:	00078513          	mv	a0,a5
    80001cf8:	02813083          	ld	ra,40(sp)
    80001cfc:	02013403          	ld	s0,32(sp)
    80001d00:	03010113          	addi	sp,sp,48
    80001d04:	00008067          	ret

0000000080001d08 <WriteSlaveAddress>:
    80001d08:	fd010113          	addi	sp,sp,-48
    80001d0c:	02113423          	sd	ra,40(sp)
    80001d10:	02813023          	sd	s0,32(sp)
    80001d14:	03010413          	addi	s0,sp,48
    80001d18:	00050793          	mv	a5,a0
    80001d1c:	fcf40fa3          	sb	a5,-33(s0)
    80001d20:	fe0407a3          	sb	zero,-17(s0)
    80001d24:	fe042223          	sw	zero,-28(s0)
    80001d28:	fdf44783          	lbu	a5,-33(s0)
    80001d2c:	0007879b          	sext.w	a5,a5
    80001d30:	00078593          	mv	a1,a5
    80001d34:	00002517          	auipc	a0,0x2
    80001d38:	2bc50513          	addi	a0,a0,700 # 80003ff0 <atol+0x650>
    80001d3c:	125010ef          	jal	ra,80003660 <printf>
    80001d40:	00007797          	auipc	a5,0x7
    80001d44:	89878793          	addi	a5,a5,-1896 # 800085d8 <i2c_data>
    80001d48:	0007b783          	ld	a5,0(a5)
    80001d4c:	fdf44703          	lbu	a4,-33(s0)
    80001d50:	0007071b          	sext.w	a4,a4
    80001d54:	00070593          	mv	a1,a4
    80001d58:	00078513          	mv	a0,a5
    80001d5c:	b38ff0ef          	jal	ra,80001094 <set_i2c_shakti>
    80001d60:	00002517          	auipc	a0,0x2
    80001d64:	2b850513          	addi	a0,a0,696 # 80004018 <atol+0x678>
    80001d68:	0f9010ef          	jal	ra,80003660 <printf>
    80001d6c:	00007797          	auipc	a5,0x7
    80001d70:	86c78793          	addi	a5,a5,-1940 # 800085d8 <i2c_data>
    80001d74:	0007b783          	ld	a5,0(a5)
    80001d78:	00078513          	mv	a0,a5
    80001d7c:	accff0ef          	jal	ra,80001048 <get_i2c_shakti>
    80001d80:	00050793          	mv	a5,a0
    80001d84:	fef407a3          	sb	a5,-17(s0)
    80001d88:	fef44783          	lbu	a5,-17(s0)
    80001d8c:	0007879b          	sext.w	a5,a5
    80001d90:	00078593          	mv	a1,a5
    80001d94:	00002517          	auipc	a0,0x2
    80001d98:	29c50513          	addi	a0,a0,668 # 80004030 <atol+0x690>
    80001d9c:	0c5010ef          	jal	ra,80003660 <printf>
    80001da0:	fdf44703          	lbu	a4,-33(s0)
    80001da4:	fef44783          	lbu	a5,-17(s0)
    80001da8:	0ff77713          	andi	a4,a4,255
    80001dac:	0ff7f793          	andi	a5,a5,255
    80001db0:	02f70463          	beq	a4,a5,80001dd8 <WriteSlaveAddress+0xd0>
    80001db4:	fdf44783          	lbu	a5,-33(s0)
    80001db8:	0007879b          	sext.w	a5,a5
    80001dbc:	fef44703          	lbu	a4,-17(s0)
    80001dc0:	0007071b          	sext.w	a4,a4
    80001dc4:	00070613          	mv	a2,a4
    80001dc8:	00078593          	mv	a1,a5
    80001dcc:	00002517          	auipc	a0,0x2
    80001dd0:	29450513          	addi	a0,a0,660 # 80004060 <atol+0x6c0>
    80001dd4:	08d010ef          	jal	ra,80003660 <printf>
    80001dd8:	b58ff0ef          	jal	ra,80001130 <i2c_start>
    80001ddc:	fe440793          	addi	a5,s0,-28
    80001de0:	00078513          	mv	a0,a5
    80001de4:	f40ff0ef          	jal	ra,80001524 <wait_for_pin>
    80001de8:	00050793          	mv	a5,a0
    80001dec:	fef42423          	sw	a5,-24(s0)
    80001df0:	fe842783          	lw	a5,-24(s0)
    80001df4:	0007879b          	sext.w	a5,a5
    80001df8:	00078e63          	beqz	a5,80001e14 <WriteSlaveAddress+0x10c>
    80001dfc:	00002517          	auipc	a0,0x2
    80001e00:	f9450513          	addi	a0,a0,-108 # 80003d90 <atol+0x3f0>
    80001e04:	05d010ef          	jal	ra,80003660 <printf>
    80001e08:	c18ff0ef          	jal	ra,80001220 <i2c_stop>
    80001e0c:	faf00793          	li	a5,-81
    80001e10:	0240006f          	j	80001e34 <WriteSlaveAddress+0x12c>
    80001e14:	fe442783          	lw	a5,-28(s0)
    80001e18:	0087f793          	andi	a5,a5,8
    80001e1c:	0007879b          	sext.w	a5,a5
    80001e20:	00078a63          	beqz	a5,80001e34 <WriteSlaveAddress+0x12c>
    80001e24:	bfcff0ef          	jal	ra,80001220 <i2c_stop>
    80001e28:	00002517          	auipc	a0,0x2
    80001e2c:	fb050513          	addi	a0,a0,-80 # 80003dd8 <atol+0x438>
    80001e30:	031010ef          	jal	ra,80003660 <printf>
    80001e34:	00078513          	mv	a0,a5
    80001e38:	02813083          	ld	ra,40(sp)
    80001e3c:	02013403          	ld	s0,32(sp)
    80001e40:	03010113          	addi	sp,sp,48
    80001e44:	00008067          	ret

0000000080001e48 <SetEepromReadOrWriteStartAddress>:
    80001e48:	fd010113          	addi	sp,sp,-48
    80001e4c:	02113423          	sd	ra,40(sp)
    80001e50:	02813023          	sd	s0,32(sp)
    80001e54:	03010413          	addi	s0,sp,48
    80001e58:	00050793          	mv	a5,a0
    80001e5c:	fcf42e23          	sw	a5,-36(s0)
    80001e60:	fe0407a3          	sb	zero,-17(s0)
    80001e64:	fe042223          	sw	zero,-28(s0)
    80001e68:	00006797          	auipc	a5,0x6
    80001e6c:	77078793          	addi	a5,a5,1904 # 800085d8 <i2c_data>
    80001e70:	0007b703          	ld	a4,0(a5)
    80001e74:	fdc42783          	lw	a5,-36(s0)
    80001e78:	0087d79b          	srliw	a5,a5,0x8
    80001e7c:	0007879b          	sext.w	a5,a5
    80001e80:	0ff7f793          	andi	a5,a5,255
    80001e84:	0007879b          	sext.w	a5,a5
    80001e88:	00078593          	mv	a1,a5
    80001e8c:	00070513          	mv	a0,a4
    80001e90:	a04ff0ef          	jal	ra,80001094 <set_i2c_shakti>
    80001e94:	fe440793          	addi	a5,s0,-28
    80001e98:	00078513          	mv	a0,a5
    80001e9c:	e88ff0ef          	jal	ra,80001524 <wait_for_pin>
    80001ea0:	00050793          	mv	a5,a0
    80001ea4:	fef42423          	sw	a5,-24(s0)
    80001ea8:	fe842783          	lw	a5,-24(s0)
    80001eac:	0007879b          	sext.w	a5,a5
    80001eb0:	00078e63          	beqz	a5,80001ecc <SetEepromReadOrWriteStartAddress+0x84>
    80001eb4:	00002517          	auipc	a0,0x2
    80001eb8:	edc50513          	addi	a0,a0,-292 # 80003d90 <atol+0x3f0>
    80001ebc:	7a4010ef          	jal	ra,80003660 <printf>
    80001ec0:	b60ff0ef          	jal	ra,80001220 <i2c_stop>
    80001ec4:	faf00793          	li	a5,-81
    80001ec8:	0a80006f          	j	80001f70 <SetEepromReadOrWriteStartAddress+0x128>
    80001ecc:	fe442783          	lw	a5,-28(s0)
    80001ed0:	0087f793          	andi	a5,a5,8
    80001ed4:	0007879b          	sext.w	a5,a5
    80001ed8:	00078e63          	beqz	a5,80001ef4 <SetEepromReadOrWriteStartAddress+0xac>
    80001edc:	b44ff0ef          	jal	ra,80001220 <i2c_stop>
    80001ee0:	00002517          	auipc	a0,0x2
    80001ee4:	ef850513          	addi	a0,a0,-264 # 80003dd8 <atol+0x438>
    80001ee8:	778010ef          	jal	ra,80003660 <printf>
    80001eec:	faf00793          	li	a5,-81
    80001ef0:	0800006f          	j	80001f70 <SetEepromReadOrWriteStartAddress+0x128>
    80001ef4:	00006797          	auipc	a5,0x6
    80001ef8:	6e478793          	addi	a5,a5,1764 # 800085d8 <i2c_data>
    80001efc:	0007b703          	ld	a4,0(a5)
    80001f00:	fdc42783          	lw	a5,-36(s0)
    80001f04:	0ff7f793          	andi	a5,a5,255
    80001f08:	0007879b          	sext.w	a5,a5
    80001f0c:	00078593          	mv	a1,a5
    80001f10:	00070513          	mv	a0,a4
    80001f14:	980ff0ef          	jal	ra,80001094 <set_i2c_shakti>
    80001f18:	fe440793          	addi	a5,s0,-28
    80001f1c:	00078513          	mv	a0,a5
    80001f20:	e04ff0ef          	jal	ra,80001524 <wait_for_pin>
    80001f24:	00050793          	mv	a5,a0
    80001f28:	fef42423          	sw	a5,-24(s0)
    80001f2c:	fe842783          	lw	a5,-24(s0)
    80001f30:	0007879b          	sext.w	a5,a5
    80001f34:	00078e63          	beqz	a5,80001f50 <SetEepromReadOrWriteStartAddress+0x108>
    80001f38:	00002517          	auipc	a0,0x2
    80001f3c:	e5850513          	addi	a0,a0,-424 # 80003d90 <atol+0x3f0>
    80001f40:	720010ef          	jal	ra,80003660 <printf>
    80001f44:	adcff0ef          	jal	ra,80001220 <i2c_stop>
    80001f48:	faf00793          	li	a5,-81
    80001f4c:	0240006f          	j	80001f70 <SetEepromReadOrWriteStartAddress+0x128>
    80001f50:	fe442783          	lw	a5,-28(s0)
    80001f54:	0087f793          	andi	a5,a5,8
    80001f58:	0007879b          	sext.w	a5,a5
    80001f5c:	00078a63          	beqz	a5,80001f70 <SetEepromReadOrWriteStartAddress+0x128>
    80001f60:	ac0ff0ef          	jal	ra,80001220 <i2c_stop>
    80001f64:	00002517          	auipc	a0,0x2
    80001f68:	e7450513          	addi	a0,a0,-396 # 80003dd8 <atol+0x438>
    80001f6c:	6f4010ef          	jal	ra,80003660 <printf>
    80001f70:	00078513          	mv	a0,a5
    80001f74:	02813083          	ld	ra,40(sp)
    80001f78:	02013403          	ld	s0,32(sp)
    80001f7c:	03010113          	addi	sp,sp,48
    80001f80:	00008067          	ret

0000000080001f84 <WaitForReadOrWriteComplete>:
    80001f84:	fd010113          	addi	sp,sp,-48
    80001f88:	02113423          	sd	ra,40(sp)
    80001f8c:	02813023          	sd	s0,32(sp)
    80001f90:	03010413          	addi	s0,sp,48
    80001f94:	fca43c23          	sd	a0,-40(s0)
    80001f98:	03c00793          	li	a5,60
    80001f9c:	fef42623          	sw	a5,-20(s0)
    80001fa0:	81018793          	addi	a5,gp,-2032 # 800085e0 <i2c_status>
    80001fa4:	0007b783          	ld	a5,0(a5)
    80001fa8:	00078513          	mv	a0,a5
    80001fac:	89cff0ef          	jal	ra,80001048 <get_i2c_shakti>
    80001fb0:	00050793          	mv	a5,a0
    80001fb4:	00078713          	mv	a4,a5
    80001fb8:	fd843783          	ld	a5,-40(s0)
    80001fbc:	00e7a023          	sw	a4,0(a5)
    80001fc0:	0300006f          	j	80001ff0 <WaitForReadOrWriteComplete+0x6c>
    80001fc4:	000027b7          	lui	a5,0x2
    80001fc8:	71078513          	addi	a0,a5,1808 # 2710 <_tbss_end+0x270c>
    80001fcc:	920ff0ef          	jal	ra,800010ec <waitfor>
    80001fd0:	81018793          	addi	a5,gp,-2032 # 800085e0 <i2c_status>
    80001fd4:	0007b783          	ld	a5,0(a5)
    80001fd8:	00078513          	mv	a0,a5
    80001fdc:	86cff0ef          	jal	ra,80001048 <get_i2c_shakti>
    80001fe0:	00050793          	mv	a5,a0
    80001fe4:	00078713          	mv	a4,a5
    80001fe8:	fd843783          	ld	a5,-40(s0)
    80001fec:	00e7a023          	sw	a4,0(a5)
    80001ff0:	fd843783          	ld	a5,-40(s0)
    80001ff4:	0007a783          	lw	a5,0(a5)
    80001ff8:	0807f793          	andi	a5,a5,128
    80001ffc:	0007879b          	sext.w	a5,a5
    80002000:	00078e63          	beqz	a5,8000201c <WaitForReadOrWriteComplete+0x98>
    80002004:	fec42783          	lw	a5,-20(s0)
    80002008:	fff7879b          	addiw	a5,a5,-1
    8000200c:	fef42623          	sw	a5,-20(s0)
    80002010:	fec42783          	lw	a5,-20(s0)
    80002014:	0007879b          	sext.w	a5,a5
    80002018:	fa0796e3          	bnez	a5,80001fc4 <WaitForReadOrWriteComplete+0x40>
    8000201c:	fec42783          	lw	a5,-20(s0)
    80002020:	0007879b          	sext.w	a5,a5
    80002024:	00079c63          	bnez	a5,8000203c <WaitForReadOrWriteComplete+0xb8>
    80002028:	00002517          	auipc	a0,0x2
    8000202c:	cf050513          	addi	a0,a0,-784 # 80003d18 <atol+0x378>
    80002030:	630010ef          	jal	ra,80003660 <printf>
    80002034:	fb000793          	li	a5,-80
    80002038:	0080006f          	j	80002040 <WaitForReadOrWriteComplete+0xbc>
    8000203c:	00000793          	li	a5,0
    80002040:	00078513          	mv	a0,a5
    80002044:	02813083          	ld	ra,40(sp)
    80002048:	02013403          	ld	s0,32(sp)
    8000204c:	03010113          	addi	sp,sp,48
    80002050:	00008067          	ret

0000000080002054 <I2CEepromWriteData>:
    80002054:	fc010113          	addi	sp,sp,-64
    80002058:	02113c23          	sd	ra,56(sp)
    8000205c:	02813823          	sd	s0,48(sp)
    80002060:	04010413          	addi	s0,sp,64
    80002064:	fca43c23          	sd	a0,-40(s0)
    80002068:	00058793          	mv	a5,a1
    8000206c:	00068713          	mv	a4,a3
    80002070:	fcf42a23          	sw	a5,-44(s0)
    80002074:	00060793          	mv	a5,a2
    80002078:	fcf42823          	sw	a5,-48(s0)
    8000207c:	00070793          	mv	a5,a4
    80002080:	fcf42623          	sw	a5,-52(s0)
    80002084:	fe042623          	sw	zero,-20(s0)
    80002088:	00002517          	auipc	a0,0x2
    8000208c:	cb050513          	addi	a0,a0,-848 # 80003d38 <atol+0x398>
    80002090:	5d0010ef          	jal	ra,80003660 <printf>
    80002094:	fe042623          	sw	zero,-20(s0)
    80002098:	0bc0006f          	j	80002154 <I2CEepromWriteData+0x100>
    8000209c:	fec42783          	lw	a5,-20(s0)
    800020a0:	fd843703          	ld	a4,-40(s0)
    800020a4:	00f707b3          	add	a5,a4,a5
    800020a8:	0007c783          	lbu	a5,0(a5)
    800020ac:	0007879b          	sext.w	a5,a5
    800020b0:	00078593          	mv	a1,a5
    800020b4:	00002517          	auipc	a0,0x2
    800020b8:	00450513          	addi	a0,a0,4 # 800040b8 <atol+0x718>
    800020bc:	5a4010ef          	jal	ra,80003660 <printf>
    800020c0:	00006797          	auipc	a5,0x6
    800020c4:	51878793          	addi	a5,a5,1304 # 800085d8 <i2c_data>
    800020c8:	0007b683          	ld	a3,0(a5)
    800020cc:	fec42783          	lw	a5,-20(s0)
    800020d0:	fd843703          	ld	a4,-40(s0)
    800020d4:	00f707b3          	add	a5,a4,a5
    800020d8:	0007c783          	lbu	a5,0(a5)
    800020dc:	0007879b          	sext.w	a5,a5
    800020e0:	00078593          	mv	a1,a5
    800020e4:	00068513          	mv	a0,a3
    800020e8:	fadfe0ef          	jal	ra,80001094 <set_i2c_shakti>
    800020ec:	fe840793          	addi	a5,s0,-24
    800020f0:	00078513          	mv	a0,a5
    800020f4:	e91ff0ef          	jal	ra,80001f84 <WaitForReadOrWriteComplete>
    800020f8:	00050793          	mv	a5,a0
    800020fc:	00078713          	mv	a4,a5
    80002100:	fb000793          	li	a5,-80
    80002104:	00f71e63          	bne	a4,a5,80002120 <I2CEepromWriteData+0xcc>
    80002108:	00002517          	auipc	a0,0x2
    8000210c:	fd850513          	addi	a0,a0,-40 # 800040e0 <atol+0x740>
    80002110:	550010ef          	jal	ra,80003660 <printf>
    80002114:	90cff0ef          	jal	ra,80001220 <i2c_stop>
    80002118:	faf00793          	li	a5,-81
    8000211c:	0940006f          	j	800021b0 <I2CEepromWriteData+0x15c>
    80002120:	fe842783          	lw	a5,-24(s0)
    80002124:	0087f793          	andi	a5,a5,8
    80002128:	0007879b          	sext.w	a5,a5
    8000212c:	00078e63          	beqz	a5,80002148 <I2CEepromWriteData+0xf4>
    80002130:	8f0ff0ef          	jal	ra,80001220 <i2c_stop>
    80002134:	00002517          	auipc	a0,0x2
    80002138:	ca450513          	addi	a0,a0,-860 # 80003dd8 <atol+0x438>
    8000213c:	524010ef          	jal	ra,80003660 <printf>
    80002140:	faf00793          	li	a5,-81
    80002144:	06c0006f          	j	800021b0 <I2CEepromWriteData+0x15c>
    80002148:	fec42783          	lw	a5,-20(s0)
    8000214c:	0017879b          	addiw	a5,a5,1
    80002150:	fef42623          	sw	a5,-20(s0)
    80002154:	fec42703          	lw	a4,-20(s0)
    80002158:	fd442783          	lw	a5,-44(s0)
    8000215c:	0007071b          	sext.w	a4,a4
    80002160:	0007879b          	sext.w	a5,a5
    80002164:	f2f74ce3          	blt	a4,a5,8000209c <I2CEepromWriteData+0x48>
    80002168:	fd042783          	lw	a5,-48(s0)
    8000216c:	0007879b          	sext.w	a5,a5
    80002170:	00078c63          	beqz	a5,80002188 <I2CEepromWriteData+0x134>
    80002174:	00002517          	auipc	a0,0x2
    80002178:	f8450513          	addi	a0,a0,-124 # 800040f8 <atol+0x758>
    8000217c:	4e4010ef          	jal	ra,80003660 <printf>
    80002180:	8a0ff0ef          	jal	ra,80001220 <i2c_stop>
    80002184:	0280006f          	j	800021ac <I2CEepromWriteData+0x158>
    80002188:	00002517          	auipc	a0,0x2
    8000218c:	f9850513          	addi	a0,a0,-104 # 80004120 <atol+0x780>
    80002190:	4d0010ef          	jal	ra,80003660 <printf>
    80002194:	fcc42783          	lw	a5,-52(s0)
    80002198:	0007879b          	sext.w	a5,a5
    8000219c:	00079663          	bnez	a5,800021a8 <I2CEepromWriteData+0x154>
    800021a0:	808ff0ef          	jal	ra,800011a8 <i2c_repstart>
    800021a4:	0080006f          	j	800021ac <I2CEepromWriteData+0x158>
    800021a8:	83cff0ef          	jal	ra,800011e4 <i2c_repstart_eni>
    800021ac:	fec42783          	lw	a5,-20(s0)
    800021b0:	00078513          	mv	a0,a5
    800021b4:	03813083          	ld	ra,56(sp)
    800021b8:	03013403          	ld	s0,48(sp)
    800021bc:	04010113          	addi	sp,sp,64
    800021c0:	00008067          	ret

00000000800021c4 <I2CEepromReadData>:
    800021c4:	fd010113          	addi	sp,sp,-48
    800021c8:	02113423          	sd	ra,40(sp)
    800021cc:	02813023          	sd	s0,32(sp)
    800021d0:	03010413          	addi	s0,sp,48
    800021d4:	fca43c23          	sd	a0,-40(s0)
    800021d8:	00058793          	mv	a5,a1
    800021dc:	00060713          	mv	a4,a2
    800021e0:	fcf42a23          	sw	a5,-44(s0)
    800021e4:	00070793          	mv	a5,a4
    800021e8:	fcf42823          	sw	a5,-48(s0)
    800021ec:	fe042423          	sw	zero,-24(s0)
    800021f0:	fff00793          	li	a5,-1
    800021f4:	fef42623          	sw	a5,-20(s0)
    800021f8:	17c0006f          	j	80002374 <I2CEepromReadData+0x1b0>
    800021fc:	fe440793          	addi	a5,s0,-28
    80002200:	00078513          	mv	a0,a5
    80002204:	d81ff0ef          	jal	ra,80001f84 <WaitForReadOrWriteComplete>
    80002208:	00050793          	mv	a5,a0
    8000220c:	00078713          	mv	a4,a5
    80002210:	fb000793          	li	a5,-80
    80002214:	00f71e63          	bne	a4,a5,80002230 <I2CEepromReadData+0x6c>
    80002218:	00002517          	auipc	a0,0x2
    8000221c:	f4850513          	addi	a0,a0,-184 # 80004160 <atol+0x7c0>
    80002220:	440010ef          	jal	ra,80003660 <printf>
    80002224:	ffdfe0ef          	jal	ra,80001220 <i2c_stop>
    80002228:	faf00793          	li	a5,-81
    8000222c:	1740006f          	j	800023a0 <I2CEepromReadData+0x1dc>
    80002230:	fe442783          	lw	a5,-28(s0)
    80002234:	0087f793          	andi	a5,a5,8
    80002238:	0007879b          	sext.w	a5,a5
    8000223c:	00078e63          	beqz	a5,80002258 <I2CEepromReadData+0x94>
    80002240:	fe1fe0ef          	jal	ra,80001220 <i2c_stop>
    80002244:	00002517          	auipc	a0,0x2
    80002248:	b9450513          	addi	a0,a0,-1132 # 80003dd8 <atol+0x438>
    8000224c:	414010ef          	jal	ra,80003660 <printf>
    80002250:	faf00793          	li	a5,-81
    80002254:	14c0006f          	j	800023a0 <I2CEepromReadData+0x1dc>
    80002258:	fec42783          	lw	a5,-20(s0)
    8000225c:	0007871b          	sext.w	a4,a5
    80002260:	fff00793          	li	a5,-1
    80002264:	06f70263          	beq	a4,a5,800022c8 <I2CEepromReadData+0x104>
    80002268:	00006797          	auipc	a5,0x6
    8000226c:	37078793          	addi	a5,a5,880 # 800085d8 <i2c_data>
    80002270:	0007b783          	ld	a5,0(a5)
    80002274:	00078513          	mv	a0,a5
    80002278:	dd1fe0ef          	jal	ra,80001048 <get_i2c_shakti>
    8000227c:	00050793          	mv	a5,a0
    80002280:	00078693          	mv	a3,a5
    80002284:	fec42783          	lw	a5,-20(s0)
    80002288:	fd843703          	ld	a4,-40(s0)
    8000228c:	00f707b3          	add	a5,a4,a5
    80002290:	0ff6f713          	andi	a4,a3,255
    80002294:	00e78023          	sb	a4,0(a5)
    80002298:	fec42783          	lw	a5,-20(s0)
    8000229c:	fd843703          	ld	a4,-40(s0)
    800022a0:	00f707b3          	add	a5,a4,a5
    800022a4:	0007c783          	lbu	a5,0(a5)
    800022a8:	0007871b          	sext.w	a4,a5
    800022ac:	fec42783          	lw	a5,-20(s0)
    800022b0:	00070613          	mv	a2,a4
    800022b4:	00078593          	mv	a1,a5
    800022b8:	00002517          	auipc	a0,0x2
    800022bc:	ec050513          	addi	a0,a0,-320 # 80004178 <atol+0x7d8>
    800022c0:	3a0010ef          	jal	ra,80003660 <printf>
    800022c4:	02c0006f          	j	800022f0 <I2CEepromReadData+0x12c>
    800022c8:	00006797          	auipc	a5,0x6
    800022cc:	31078793          	addi	a5,a5,784 # 800085d8 <i2c_data>
    800022d0:	0007b783          	ld	a5,0(a5)
    800022d4:	00078513          	mv	a0,a5
    800022d8:	d71fe0ef          	jal	ra,80001048 <get_i2c_shakti>
    800022dc:	00050793          	mv	a5,a0
    800022e0:	00078593          	mv	a1,a5
    800022e4:	00002517          	auipc	a0,0x2
    800022e8:	ebc50513          	addi	a0,a0,-324 # 800041a0 <atol+0x800>
    800022ec:	374010ef          	jal	ra,80003660 <printf>
    800022f0:	fd442783          	lw	a5,-44(s0)
    800022f4:	fff7879b          	addiw	a5,a5,-1
    800022f8:	0007871b          	sext.w	a4,a5
    800022fc:	fec42783          	lw	a5,-20(s0)
    80002300:	0007879b          	sext.w	a5,a5
    80002304:	02e79063          	bne	a5,a4,80002324 <I2CEepromReadData+0x160>
    80002308:	00006797          	auipc	a5,0x6
    8000230c:	2c878793          	addi	a5,a5,712 # 800085d0 <i2c_control>
    80002310:	0007b783          	ld	a5,0(a5)
    80002314:	04000593          	li	a1,64
    80002318:	00078513          	mv	a0,a5
    8000231c:	d79fe0ef          	jal	ra,80001094 <set_i2c_shakti>
    80002320:	0480006f          	j	80002368 <I2CEepromReadData+0x1a4>
    80002324:	fec42703          	lw	a4,-20(s0)
    80002328:	fd442783          	lw	a5,-44(s0)
    8000232c:	0007071b          	sext.w	a4,a4
    80002330:	0007879b          	sext.w	a5,a5
    80002334:	02f71a63          	bne	a4,a5,80002368 <I2CEepromReadData+0x1a4>
    80002338:	fd042783          	lw	a5,-48(s0)
    8000233c:	0007879b          	sext.w	a5,a5
    80002340:	00078c63          	beqz	a5,80002358 <I2CEepromReadData+0x194>
    80002344:	00002517          	auipc	a0,0x2
    80002348:	e7c50513          	addi	a0,a0,-388 # 800041c0 <atol+0x820>
    8000234c:	314010ef          	jal	ra,80003660 <printf>
    80002350:	ed1fe0ef          	jal	ra,80001220 <i2c_stop>
    80002354:	0140006f          	j	80002368 <I2CEepromReadData+0x1a4>
    80002358:	00002517          	auipc	a0,0x2
    8000235c:	e9850513          	addi	a0,a0,-360 # 800041f0 <atol+0x850>
    80002360:	300010ef          	jal	ra,80003660 <printf>
    80002364:	e45fe0ef          	jal	ra,800011a8 <i2c_repstart>
    80002368:	fec42783          	lw	a5,-20(s0)
    8000236c:	0017879b          	addiw	a5,a5,1
    80002370:	fef42623          	sw	a5,-20(s0)
    80002374:	fec42703          	lw	a4,-20(s0)
    80002378:	fd442783          	lw	a5,-44(s0)
    8000237c:	0007071b          	sext.w	a4,a4
    80002380:	0007879b          	sext.w	a5,a5
    80002384:	e6f74ce3          	blt	a4,a5,800021fc <I2CEepromReadData+0x38>
    80002388:	fec42783          	lw	a5,-20(s0)
    8000238c:	00078593          	mv	a1,a5
    80002390:	00002517          	auipc	a0,0x2
    80002394:	e8050513          	addi	a0,a0,-384 # 80004210 <atol+0x870>
    80002398:	2c8010ef          	jal	ra,80003660 <printf>
    8000239c:	fec42783          	lw	a5,-20(s0)
    800023a0:	00078513          	mv	a0,a5
    800023a4:	02813083          	ld	ra,40(sp)
    800023a8:	02013403          	ld	s0,32(sp)
    800023ac:	03010113          	addi	sp,sp,48
    800023b0:	00008067          	ret

00000000800023b4 <main>:
    800023b4:	f9010113          	addi	sp,sp,-112
    800023b8:	06113423          	sd	ra,104(sp)
    800023bc:	06813023          	sd	s0,96(sp)
    800023c0:	07010413          	addi	s0,sp,112
    800023c4:	1bd000ef          	jal	ra,80002d80 <Uart0Init>
    800023c8:	00002517          	auipc	a0,0x2
    800023cc:	e6850513          	addi	a0,a0,-408 # 80004230 <atol+0x890>
    800023d0:	290010ef          	jal	ra,80003660 <printf>
    800023d4:	fc040c23          	sb	zero,-40(s0)
    800023d8:	fc040ca3          	sb	zero,-39(s0)
    800023dc:	03000793          	li	a5,48
    800023e0:	fef407a3          	sb	a5,-17(s0)
    800023e4:	fc040023          	sb	zero,-64(s0)
    800023e8:	fc0400a3          	sb	zero,-63(s0)
    800023ec:	fe042023          	sw	zero,-32(s0)
    800023f0:	fe042423          	sw	zero,-24(s0)
    800023f4:	fe042223          	sw	zero,-28(s0)
    800023f8:	f8042e23          	sw	zero,-100(s0)
    800023fc:	0a000793          	li	a5,160
    80002400:	fcf42e23          	sw	a5,-36(s0)
    80002404:	fc040da3          	sb	zero,-37(s0)
    80002408:	00002517          	auipc	a0,0x2
    8000240c:	e4850513          	addi	a0,a0,-440 # 80004250 <atol+0x8b0>
    80002410:	250010ef          	jal	ra,80003660 <printf>
    80002414:	05100593          	li	a1,81
    80002418:	00f00513          	li	a0,15
    8000241c:	ce0ff0ef          	jal	ra,800018fc <ConfigureI2cController>
    80002420:	00050793          	mv	a5,a0
    80002424:	00078c63          	beqz	a5,8000243c <main+0x88>
    80002428:	00002517          	auipc	a0,0x2
    8000242c:	e8050513          	addi	a0,a0,-384 # 800042a8 <atol+0x908>
    80002430:	230010ef          	jal	ra,80003660 <printf>
    80002434:	00000793          	li	a5,0
    80002438:	1c40006f          	j	800025fc <main+0x248>
    8000243c:	00002517          	auipc	a0,0x2
    80002440:	e9450513          	addi	a0,a0,-364 # 800042d0 <atol+0x930>
    80002444:	21c010ef          	jal	ra,80003660 <printf>
    80002448:	00000013          	nop
    8000244c:	814ff0ef          	jal	ra,80001460 <wait_for_bb>
    80002450:	00050793          	mv	a5,a0
    80002454:	00078c63          	beqz	a5,8000246c <main+0xb8>
    80002458:	00002517          	auipc	a0,0x2
    8000245c:	e9850513          	addi	a0,a0,-360 # 800042f0 <atol+0x950>
    80002460:	200010ef          	jal	ra,80003660 <printf>
    80002464:	00000793          	li	a5,0
    80002468:	1940006f          	j	800025fc <main+0x248>
    8000246c:	fe042423          	sw	zero,-24(s0)
    80002470:	0340006f          	j	800024a4 <main+0xf0>
    80002474:	fef44783          	lbu	a5,-17(s0)
    80002478:	0017871b          	addiw	a4,a5,1
    8000247c:	fee407a3          	sb	a4,-17(s0)
    80002480:	fe442703          	lw	a4,-28(s0)
    80002484:	0017069b          	addiw	a3,a4,1
    80002488:	fed42223          	sw	a3,-28(s0)
    8000248c:	ff040693          	addi	a3,s0,-16
    80002490:	00e68733          	add	a4,a3,a4
    80002494:	fcf70823          	sb	a5,-48(a4)
    80002498:	fe842783          	lw	a5,-24(s0)
    8000249c:	0017879b          	addiw	a5,a5,1
    800024a0:	fef42423          	sw	a5,-24(s0)
    800024a4:	fe842783          	lw	a5,-24(s0)
    800024a8:	0007871b          	sext.w	a4,a5
    800024ac:	00f00793          	li	a5,15
    800024b0:	fce7d2e3          	bge	a5,a4,80002474 <main+0xc0>
    800024b4:	fe042223          	sw	zero,-28(s0)
    800024b8:	0a000513          	li	a0,160
    800024bc:	84dff0ef          	jal	ra,80001d08 <WriteSlaveAddress>
    800024c0:	00000513          	li	a0,0
    800024c4:	985ff0ef          	jal	ra,80001e48 <SetEepromReadOrWriteStartAddress>
    800024c8:	fc040793          	addi	a5,s0,-64
    800024cc:	00000693          	li	a3,0
    800024d0:	00100613          	li	a2,1
    800024d4:	01000593          	li	a1,16
    800024d8:	00078513          	mv	a0,a5
    800024dc:	b79ff0ef          	jal	ra,80002054 <I2CEepromWriteData>
    800024e0:	00050793          	mv	a5,a0
    800024e4:	00078713          	mv	a4,a5
    800024e8:	01000793          	li	a5,16
    800024ec:	00f70c63          	beq	a4,a5,80002504 <main+0x150>
    800024f0:	00002517          	auipc	a0,0x2
    800024f4:	e2050513          	addi	a0,a0,-480 # 80004310 <atol+0x970>
    800024f8:	168010ef          	jal	ra,80003660 <printf>
    800024fc:	00000793          	li	a5,0
    80002500:	0fc0006f          	j	800025fc <main+0x248>
    80002504:	000027b7          	lui	a5,0x2
    80002508:	32878513          	addi	a0,a5,808 # 2328 <_tbss_end+0x2324>
    8000250c:	be1fe0ef          	jal	ra,800010ec <waitfor>
    80002510:	0100006f          	j	80002520 <main+0x16c>
    80002514:	00002517          	auipc	a0,0x2
    80002518:	e2c50513          	addi	a0,a0,-468 # 80004340 <atol+0x9a0>
    8000251c:	144010ef          	jal	ra,80003660 <printf>
    80002520:	f41fe0ef          	jal	ra,80001460 <wait_for_bb>
    80002524:	00050793          	mv	a5,a0
    80002528:	fe0796e3          	bnez	a5,80002514 <main+0x160>
    8000252c:	00002517          	auipc	a0,0x2
    80002530:	e2c50513          	addi	a0,a0,-468 # 80004358 <atol+0x9b8>
    80002534:	12c010ef          	jal	ra,80003660 <printf>
    80002538:	0a000513          	li	a0,160
    8000253c:	fccff0ef          	jal	ra,80001d08 <WriteSlaveAddress>
    80002540:	0100006f          	j	80002550 <main+0x19c>
    80002544:	00002517          	auipc	a0,0x2
    80002548:	e6450513          	addi	a0,a0,-412 # 800043a8 <atol+0xa08>
    8000254c:	114010ef          	jal	ra,80003660 <printf>
    80002550:	f9c40793          	addi	a5,s0,-100
    80002554:	00078513          	mv	a0,a5
    80002558:	fcdfe0ef          	jal	ra,80001524 <wait_for_pin>
    8000255c:	00050793          	mv	a5,a0
    80002560:	fe0792e3          	bnez	a5,80002544 <main+0x190>
    80002564:	00000513          	li	a0,0
    80002568:	8e1ff0ef          	jal	ra,80001e48 <SetEepromReadOrWriteStartAddress>
    8000256c:	0a100513          	li	a0,161
    80002570:	f98ff0ef          	jal	ra,80001d08 <WriteSlaveAddress>
    80002574:	fa040793          	addi	a5,s0,-96
    80002578:	00100613          	li	a2,1
    8000257c:	01000593          	li	a1,16
    80002580:	00078513          	mv	a0,a5
    80002584:	c41ff0ef          	jal	ra,800021c4 <I2CEepromReadData>
    80002588:	00050793          	mv	a5,a0
    8000258c:	00078713          	mv	a4,a5
    80002590:	01000793          	li	a5,16
    80002594:	00f70c63          	beq	a4,a5,800025ac <main+0x1f8>
    80002598:	00002517          	auipc	a0,0x2
    8000259c:	e2850513          	addi	a0,a0,-472 # 800043c0 <atol+0xa20>
    800025a0:	0c0010ef          	jal	ra,80003660 <printf>
    800025a4:	00000793          	li	a5,0
    800025a8:	0540006f          	j	800025fc <main+0x248>
    800025ac:	00002517          	auipc	a0,0x2
    800025b0:	e4450513          	addi	a0,a0,-444 # 800043f0 <atol+0xa50>
    800025b4:	0ac010ef          	jal	ra,80003660 <printf>
    800025b8:	00002517          	auipc	a0,0x2
    800025bc:	e5850513          	addi	a0,a0,-424 # 80004410 <atol+0xa70>
    800025c0:	0a0010ef          	jal	ra,80003660 <printf>
    800025c4:	05100593          	li	a1,81
    800025c8:	00f00513          	li	a0,15
    800025cc:	e18ff0ef          	jal	ra,80001be4 <ConfigureI2cController1>
    800025d0:	00050793          	mv	a5,a0
    800025d4:	00078c63          	beqz	a5,800025ec <main+0x238>
    800025d8:	00002517          	auipc	a0,0x2
    800025dc:	cd050513          	addi	a0,a0,-816 # 800042a8 <atol+0x908>
    800025e0:	080010ef          	jal	ra,80003660 <printf>
    800025e4:	00000793          	li	a5,0
    800025e8:	0140006f          	j	800025fc <main+0x248>
    800025ec:	00002517          	auipc	a0,0x2
    800025f0:	ce450513          	addi	a0,a0,-796 # 800042d0 <atol+0x930>
    800025f4:	06c010ef          	jal	ra,80003660 <printf>
    800025f8:	00000793          	li	a5,0
    800025fc:	00078513          	mv	a0,a5
    80002600:	06813083          	ld	ra,104(sp)
    80002604:	06013403          	ld	s0,96(sp)
    80002608:	07010113          	addi	sp,sp,112
    8000260c:	00008067          	ret

0000000080002610 <printArray>:
    80002610:	fd010113          	addi	sp,sp,-48
    80002614:	02813423          	sd	s0,40(sp)
    80002618:	03010413          	addi	s0,sp,48
    8000261c:	fea43423          	sd	a0,-24(s0)
    80002620:	00058793          	mv	a5,a1
    80002624:	fcc43c23          	sd	a2,-40(s0)
    80002628:	fef42223          	sw	a5,-28(s0)
    8000262c:	00000013          	nop
    80002630:	02813403          	ld	s0,40(sp)
    80002634:	03010113          	addi	sp,sp,48
    80002638:	00008067          	ret

000000008000263c <printDoubleArray>:
    8000263c:	fd010113          	addi	sp,sp,-48
    80002640:	02813423          	sd	s0,40(sp)
    80002644:	03010413          	addi	s0,sp,48
    80002648:	fea43423          	sd	a0,-24(s0)
    8000264c:	00058793          	mv	a5,a1
    80002650:	fcc43c23          	sd	a2,-40(s0)
    80002654:	fef42223          	sw	a5,-28(s0)
    80002658:	00000013          	nop
    8000265c:	02813403          	ld	s0,40(sp)
    80002660:	03010113          	addi	sp,sp,48
    80002664:	00008067          	ret

0000000080002668 <verify>:
    80002668:	fb010113          	addi	sp,sp,-80
    8000266c:	04813423          	sd	s0,72(sp)
    80002670:	05010413          	addi	s0,sp,80
    80002674:	00050793          	mv	a5,a0
    80002678:	fcb43023          	sd	a1,-64(s0)
    8000267c:	fac43c23          	sd	a2,-72(s0)
    80002680:	fcf42623          	sw	a5,-52(s0)
    80002684:	fe042623          	sw	zero,-20(s0)
    80002688:	0c00006f          	j	80002748 <verify+0xe0>
    8000268c:	fec42783          	lw	a5,-20(s0)
    80002690:	00279793          	slli	a5,a5,0x2
    80002694:	fc043703          	ld	a4,-64(s0)
    80002698:	00f707b3          	add	a5,a4,a5
    8000269c:	0007a783          	lw	a5,0(a5)
    800026a0:	fef42423          	sw	a5,-24(s0)
    800026a4:	fec42783          	lw	a5,-20(s0)
    800026a8:	00178793          	addi	a5,a5,1
    800026ac:	00279793          	slli	a5,a5,0x2
    800026b0:	fc043703          	ld	a4,-64(s0)
    800026b4:	00f707b3          	add	a5,a4,a5
    800026b8:	0007a783          	lw	a5,0(a5)
    800026bc:	fef42223          	sw	a5,-28(s0)
    800026c0:	fec42783          	lw	a5,-20(s0)
    800026c4:	00279793          	slli	a5,a5,0x2
    800026c8:	fb843703          	ld	a4,-72(s0)
    800026cc:	00f707b3          	add	a5,a4,a5
    800026d0:	0007a783          	lw	a5,0(a5)
    800026d4:	fef42023          	sw	a5,-32(s0)
    800026d8:	fec42783          	lw	a5,-20(s0)
    800026dc:	00178793          	addi	a5,a5,1
    800026e0:	00279793          	slli	a5,a5,0x2
    800026e4:	fb843703          	ld	a4,-72(s0)
    800026e8:	00f707b3          	add	a5,a4,a5
    800026ec:	0007a783          	lw	a5,0(a5)
    800026f0:	fcf42e23          	sw	a5,-36(s0)
    800026f4:	fe842703          	lw	a4,-24(s0)
    800026f8:	fe042783          	lw	a5,-32(s0)
    800026fc:	0007071b          	sext.w	a4,a4
    80002700:	0007879b          	sext.w	a5,a5
    80002704:	00f70a63          	beq	a4,a5,80002718 <verify+0xb0>
    80002708:	fec42783          	lw	a5,-20(s0)
    8000270c:	0017879b          	addiw	a5,a5,1
    80002710:	0007879b          	sext.w	a5,a5
    80002714:	0b40006f          	j	800027c8 <verify+0x160>
    80002718:	fe442703          	lw	a4,-28(s0)
    8000271c:	fdc42783          	lw	a5,-36(s0)
    80002720:	0007071b          	sext.w	a4,a4
    80002724:	0007879b          	sext.w	a5,a5
    80002728:	00f70a63          	beq	a4,a5,8000273c <verify+0xd4>
    8000272c:	fec42783          	lw	a5,-20(s0)
    80002730:	0027879b          	addiw	a5,a5,2
    80002734:	0007879b          	sext.w	a5,a5
    80002738:	0900006f          	j	800027c8 <verify+0x160>
    8000273c:	fec42783          	lw	a5,-20(s0)
    80002740:	0027879b          	addiw	a5,a5,2
    80002744:	fef42623          	sw	a5,-20(s0)
    80002748:	fcc42783          	lw	a5,-52(s0)
    8000274c:	01f7d71b          	srliw	a4,a5,0x1f
    80002750:	00f707bb          	addw	a5,a4,a5
    80002754:	4017d79b          	sraiw	a5,a5,0x1
    80002758:	0007879b          	sext.w	a5,a5
    8000275c:	0017979b          	slliw	a5,a5,0x1
    80002760:	0007871b          	sext.w	a4,a5
    80002764:	fec42783          	lw	a5,-20(s0)
    80002768:	0007879b          	sext.w	a5,a5
    8000276c:	f2e7c0e3          	blt	a5,a4,8000268c <verify+0x24>
    80002770:	fcc42783          	lw	a5,-52(s0)
    80002774:	0017f793          	andi	a5,a5,1
    80002778:	0007879b          	sext.w	a5,a5
    8000277c:	04078463          	beqz	a5,800027c4 <verify+0x15c>
    80002780:	fcc42783          	lw	a5,-52(s0)
    80002784:	00279793          	slli	a5,a5,0x2
    80002788:	ffc78793          	addi	a5,a5,-4
    8000278c:	fc043703          	ld	a4,-64(s0)
    80002790:	00f707b3          	add	a5,a4,a5
    80002794:	0007a783          	lw	a5,0(a5)
    80002798:	0007869b          	sext.w	a3,a5
    8000279c:	fcc42783          	lw	a5,-52(s0)
    800027a0:	00279793          	slli	a5,a5,0x2
    800027a4:	ffc78793          	addi	a5,a5,-4
    800027a8:	fb843703          	ld	a4,-72(s0)
    800027ac:	00f707b3          	add	a5,a4,a5
    800027b0:	0007a783          	lw	a5,0(a5)
    800027b4:	00068713          	mv	a4,a3
    800027b8:	00f70663          	beq	a4,a5,800027c4 <verify+0x15c>
    800027bc:	fcc42783          	lw	a5,-52(s0)
    800027c0:	0080006f          	j	800027c8 <verify+0x160>
    800027c4:	00000793          	li	a5,0
    800027c8:	00078513          	mv	a0,a5
    800027cc:	04813403          	ld	s0,72(sp)
    800027d0:	05010113          	addi	sp,sp,80
    800027d4:	00008067          	ret

00000000800027d8 <verifyDouble>:
    800027d8:	fa010113          	addi	sp,sp,-96
    800027dc:	04813c23          	sd	s0,88(sp)
    800027e0:	06010413          	addi	s0,sp,96
    800027e4:	00050793          	mv	a5,a0
    800027e8:	fab43823          	sd	a1,-80(s0)
    800027ec:	fac43423          	sd	a2,-88(s0)
    800027f0:	faf42e23          	sw	a5,-68(s0)
    800027f4:	fe042623          	sw	zero,-20(s0)
    800027f8:	0d80006f          	j	800028d0 <verifyDouble+0xf8>
    800027fc:	fec42783          	lw	a5,-20(s0)
    80002800:	00379793          	slli	a5,a5,0x3
    80002804:	fb043703          	ld	a4,-80(s0)
    80002808:	00f707b3          	add	a5,a4,a5
    8000280c:	0007b787          	fld	fa5,0(a5)
    80002810:	fef43027          	fsd	fa5,-32(s0)
    80002814:	fec42783          	lw	a5,-20(s0)
    80002818:	00178793          	addi	a5,a5,1
    8000281c:	00379793          	slli	a5,a5,0x3
    80002820:	fb043703          	ld	a4,-80(s0)
    80002824:	00f707b3          	add	a5,a4,a5
    80002828:	0007b787          	fld	fa5,0(a5)
    8000282c:	fcf43c27          	fsd	fa5,-40(s0)
    80002830:	fec42783          	lw	a5,-20(s0)
    80002834:	00379793          	slli	a5,a5,0x3
    80002838:	fa843703          	ld	a4,-88(s0)
    8000283c:	00f707b3          	add	a5,a4,a5
    80002840:	0007b787          	fld	fa5,0(a5)
    80002844:	fcf43827          	fsd	fa5,-48(s0)
    80002848:	fec42783          	lw	a5,-20(s0)
    8000284c:	00178793          	addi	a5,a5,1
    80002850:	00379793          	slli	a5,a5,0x3
    80002854:	fa843703          	ld	a4,-88(s0)
    80002858:	00f707b3          	add	a5,a4,a5
    8000285c:	0007b787          	fld	fa5,0(a5)
    80002860:	fcf43427          	fsd	fa5,-56(s0)
    80002864:	fe043707          	fld	fa4,-32(s0)
    80002868:	fd043787          	fld	fa5,-48(s0)
    8000286c:	a2f727d3          	feq.d	a5,fa4,fa5
    80002870:	00f037b3          	snez	a5,a5
    80002874:	0ff7f793          	andi	a5,a5,255
    80002878:	fcf42223          	sw	a5,-60(s0)
    8000287c:	fd843707          	fld	fa4,-40(s0)
    80002880:	fc843787          	fld	fa5,-56(s0)
    80002884:	a2f727d3          	feq.d	a5,fa4,fa5
    80002888:	00f037b3          	snez	a5,a5
    8000288c:	0ff7f793          	andi	a5,a5,255
    80002890:	fcf42023          	sw	a5,-64(s0)
    80002894:	fc442703          	lw	a4,-60(s0)
    80002898:	fc042783          	lw	a5,-64(s0)
    8000289c:	00f777b3          	and	a5,a4,a5
    800028a0:	0007879b          	sext.w	a5,a5
    800028a4:	02079063          	bnez	a5,800028c4 <verifyDouble+0xec>
    800028a8:	fec42783          	lw	a5,-20(s0)
    800028ac:	0017879b          	addiw	a5,a5,1
    800028b0:	0007879b          	sext.w	a5,a5
    800028b4:	fc442703          	lw	a4,-60(s0)
    800028b8:	00f707bb          	addw	a5,a4,a5
    800028bc:	0007879b          	sext.w	a5,a5
    800028c0:	08c0006f          	j	8000294c <verifyDouble+0x174>
    800028c4:	fec42783          	lw	a5,-20(s0)
    800028c8:	0027879b          	addiw	a5,a5,2
    800028cc:	fef42623          	sw	a5,-20(s0)
    800028d0:	fbc42783          	lw	a5,-68(s0)
    800028d4:	01f7d71b          	srliw	a4,a5,0x1f
    800028d8:	00f707bb          	addw	a5,a4,a5
    800028dc:	4017d79b          	sraiw	a5,a5,0x1
    800028e0:	0007879b          	sext.w	a5,a5
    800028e4:	0017979b          	slliw	a5,a5,0x1
    800028e8:	0007871b          	sext.w	a4,a5
    800028ec:	fec42783          	lw	a5,-20(s0)
    800028f0:	0007879b          	sext.w	a5,a5
    800028f4:	f0e7c4e3          	blt	a5,a4,800027fc <verifyDouble+0x24>
    800028f8:	fbc42783          	lw	a5,-68(s0)
    800028fc:	0017f793          	andi	a5,a5,1
    80002900:	0007879b          	sext.w	a5,a5
    80002904:	04078263          	beqz	a5,80002948 <verifyDouble+0x170>
    80002908:	fbc42783          	lw	a5,-68(s0)
    8000290c:	00379793          	slli	a5,a5,0x3
    80002910:	ff878793          	addi	a5,a5,-8
    80002914:	fb043703          	ld	a4,-80(s0)
    80002918:	00f707b3          	add	a5,a4,a5
    8000291c:	0007b707          	fld	fa4,0(a5)
    80002920:	fbc42783          	lw	a5,-68(s0)
    80002924:	00379793          	slli	a5,a5,0x3
    80002928:	ff878793          	addi	a5,a5,-8
    8000292c:	fa843703          	ld	a4,-88(s0)
    80002930:	00f707b3          	add	a5,a4,a5
    80002934:	0007b787          	fld	fa5,0(a5)
    80002938:	a2f727d3          	feq.d	a5,fa4,fa5
    8000293c:	00079663          	bnez	a5,80002948 <verifyDouble+0x170>
    80002940:	fbc42783          	lw	a5,-68(s0)
    80002944:	0080006f          	j	8000294c <verifyDouble+0x174>
    80002948:	00000793          	li	a5,0
    8000294c:	00078513          	mv	a0,a5
    80002950:	05813403          	ld	s0,88(sp)
    80002954:	06010113          	addi	sp,sp,96
    80002958:	00008067          	ret

000000008000295c <barrier>:
    8000295c:	fe010113          	addi	sp,sp,-32
    80002960:	00813c23          	sd	s0,24(sp)
    80002964:	02010413          	addi	s0,sp,32
    80002968:	00050793          	mv	a5,a0
    8000296c:	fef42623          	sw	a5,-20(s0)
    80002970:	00022783          	lw	a5,0(tp) # 0 <_tdata_begin>
    80002974:	0017b793          	seqz	a5,a5
    80002978:	0ff7f793          	andi	a5,a5,255
    8000297c:	0007871b          	sext.w	a4,a5
    80002980:	00e22023          	sw	a4,0(tp) # 0 <_tdata_begin>
    80002984:	85018793          	addi	a5,gp,-1968 # 80008620 <count.2940>
    80002988:	00100713          	li	a4,1
    8000298c:	0f50000f          	fence	iorw,ow
    80002990:	04e7a6af          	amoadd.w.aq	a3,a4,(a5)
    80002994:	0006879b          	sext.w	a5,a3
    80002998:	0007871b          	sext.w	a4,a5
    8000299c:	fec42783          	lw	a5,-20(s0)
    800029a0:	fff7879b          	addiw	a5,a5,-1
    800029a4:	0007879b          	sext.w	a5,a5
    800029a8:	00f71e63          	bne	a4,a5,800029c4 <barrier+0x68>
    800029ac:	85018793          	addi	a5,gp,-1968 # 80008620 <count.2940>
    800029b0:	0007a023          	sw	zero,0(a5)
    800029b4:	00022703          	lw	a4,0(tp) # 0 <_tdata_begin>
    800029b8:	85418793          	addi	a5,gp,-1964 # 80008624 <sense.2939>
    800029bc:	00e7a023          	sw	a4,0(a5)
    800029c0:	01c0006f          	j	800029dc <barrier+0x80>
    800029c4:	00000013          	nop
    800029c8:	85418793          	addi	a5,gp,-1964 # 80008624 <sense.2939>
    800029cc:	0007a783          	lw	a5,0(a5)
    800029d0:	0007871b          	sext.w	a4,a5
    800029d4:	00022783          	lw	a5,0(tp) # 0 <_tdata_begin>
    800029d8:	fef718e3          	bne	a4,a5,800029c8 <barrier+0x6c>
    800029dc:	00000013          	nop
    800029e0:	01813403          	ld	s0,24(sp)
    800029e4:	02010113          	addi	sp,sp,32
    800029e8:	00008067          	ret

00000000800029ec <lfsr>:
    800029ec:	fd010113          	addi	sp,sp,-48
    800029f0:	02813423          	sd	s0,40(sp)
    800029f4:	03010413          	addi	s0,sp,48
    800029f8:	fca43c23          	sd	a0,-40(s0)
    800029fc:	fd843783          	ld	a5,-40(s0)
    80002a00:	0017d713          	srli	a4,a5,0x1
    80002a04:	fd843783          	ld	a5,-40(s0)
    80002a08:	00f747b3          	xor	a5,a4,a5
    80002a0c:	0017f793          	andi	a5,a5,1
    80002a10:	fef43423          	sd	a5,-24(s0)
    80002a14:	fd843783          	ld	a5,-40(s0)
    80002a18:	0017d713          	srli	a4,a5,0x1
    80002a1c:	fe843783          	ld	a5,-24(s0)
    80002a20:	03e79793          	slli	a5,a5,0x3e
    80002a24:	00f767b3          	or	a5,a4,a5
    80002a28:	00078513          	mv	a0,a5
    80002a2c:	02813403          	ld	s0,40(sp)
    80002a30:	03010113          	addi	sp,sp,48
    80002a34:	00008067          	ret

0000000080002a38 <syscall>:
    80002a38:	f6010113          	addi	sp,sp,-160
    80002a3c:	08813c23          	sd	s0,152(sp)
    80002a40:	0a010413          	addi	s0,sp,160
    80002a44:	f6a43c23          	sd	a0,-136(s0)
    80002a48:	f6b43823          	sd	a1,-144(s0)
    80002a4c:	f6c43423          	sd	a2,-152(s0)
    80002a50:	f6d43023          	sd	a3,-160(s0)
    80002a54:	ff040793          	addi	a5,s0,-16
    80002a58:	f9078793          	addi	a5,a5,-112
    80002a5c:	03f78793          	addi	a5,a5,63
    80002a60:	0067d793          	srli	a5,a5,0x6
    80002a64:	00679793          	slli	a5,a5,0x6
    80002a68:	f7843703          	ld	a4,-136(s0)
    80002a6c:	00e7b023          	sd	a4,0(a5)
    80002a70:	f7043703          	ld	a4,-144(s0)
    80002a74:	00e7b423          	sd	a4,8(a5)
    80002a78:	f6843703          	ld	a4,-152(s0)
    80002a7c:	00e7b823          	sd	a4,16(a5)
    80002a80:	f6043703          	ld	a4,-160(s0)
    80002a84:	00e7bc23          	sd	a4,24(a5)
    80002a88:	00078693          	mv	a3,a5
    80002a8c:	ffffe717          	auipc	a4,0xffffe
    80002a90:	57470713          	addi	a4,a4,1396 # 80001000 <tohost>
    80002a94:	00d73023          	sd	a3,0(a4)
    80002a98:	00000013          	nop
    80002a9c:	ffffe717          	auipc	a4,0xffffe
    80002aa0:	5a470713          	addi	a4,a4,1444 # 80001040 <fromhost>
    80002aa4:	00073703          	ld	a4,0(a4)
    80002aa8:	fe070ae3          	beqz	a4,80002a9c <syscall+0x64>
    80002aac:	0007b783          	ld	a5,0(a5)
    80002ab0:	00078513          	mv	a0,a5
    80002ab4:	09813403          	ld	s0,152(sp)
    80002ab8:	0a010113          	addi	sp,sp,160
    80002abc:	00008067          	ret

0000000080002ac0 <setStats>:
    80002ac0:	fb010113          	addi	sp,sp,-80
    80002ac4:	04813423          	sd	s0,72(sp)
    80002ac8:	05010413          	addi	s0,sp,80
    80002acc:	00050793          	mv	a5,a0
    80002ad0:	faf42e23          	sw	a5,-68(s0)
    80002ad4:	fc042e23          	sw	zero,-36(s0)
    80002ad8:	fdc42783          	lw	a5,-36(s0)
    80002adc:	0007871b          	sext.w	a4,a5
    80002ae0:	00100793          	li	a5,1
    80002ae4:	fee7cae3          	blt	a5,a4,80002ad8 <setStats+0x18>
    80002ae8:	b00027f3          	csrr	a5,mcycle
    80002aec:	fcf43823          	sd	a5,-48(s0)
    80002af0:	fd043783          	ld	a5,-48(s0)
    80002af4:	fef43423          	sd	a5,-24(s0)
    80002af8:	fbc42783          	lw	a5,-68(s0)
    80002afc:	0007879b          	sext.w	a5,a5
    80002b00:	04079463          	bnez	a5,80002b48 <setStats+0x88>
    80002b04:	00006717          	auipc	a4,0x6
    80002b08:	afc70713          	addi	a4,a4,-1284 # 80008600 <counters>
    80002b0c:	fdc42783          	lw	a5,-36(s0)
    80002b10:	00379793          	slli	a5,a5,0x3
    80002b14:	00f707b3          	add	a5,a4,a5
    80002b18:	0007b783          	ld	a5,0(a5)
    80002b1c:	fe843703          	ld	a4,-24(s0)
    80002b20:	40f707b3          	sub	a5,a4,a5
    80002b24:	fef43423          	sd	a5,-24(s0)
    80002b28:	00006717          	auipc	a4,0x6
    80002b2c:	ae870713          	addi	a4,a4,-1304 # 80008610 <counter_names>
    80002b30:	fdc42783          	lw	a5,-36(s0)
    80002b34:	00379793          	slli	a5,a5,0x3
    80002b38:	00f707b3          	add	a5,a4,a5
    80002b3c:	00002717          	auipc	a4,0x2
    80002b40:	8f470713          	addi	a4,a4,-1804 # 80004430 <atol+0xa90>
    80002b44:	00e7b023          	sd	a4,0(a5)
    80002b48:	fdc42783          	lw	a5,-36(s0)
    80002b4c:	0017871b          	addiw	a4,a5,1
    80002b50:	fce42e23          	sw	a4,-36(s0)
    80002b54:	00006717          	auipc	a4,0x6
    80002b58:	aac70713          	addi	a4,a4,-1364 # 80008600 <counters>
    80002b5c:	00379793          	slli	a5,a5,0x3
    80002b60:	00f707b3          	add	a5,a4,a5
    80002b64:	fe843703          	ld	a4,-24(s0)
    80002b68:	00e7b023          	sd	a4,0(a5)
    80002b6c:	fdc42783          	lw	a5,-36(s0)
    80002b70:	0007871b          	sext.w	a4,a5
    80002b74:	00100793          	li	a5,1
    80002b78:	fee7cae3          	blt	a5,a4,80002b6c <setStats+0xac>
    80002b7c:	b02027f3          	csrr	a5,minstret
    80002b80:	fcf43423          	sd	a5,-56(s0)
    80002b84:	fc843783          	ld	a5,-56(s0)
    80002b88:	fef43023          	sd	a5,-32(s0)
    80002b8c:	fbc42783          	lw	a5,-68(s0)
    80002b90:	0007879b          	sext.w	a5,a5
    80002b94:	04079463          	bnez	a5,80002bdc <setStats+0x11c>
    80002b98:	00006717          	auipc	a4,0x6
    80002b9c:	a6870713          	addi	a4,a4,-1432 # 80008600 <counters>
    80002ba0:	fdc42783          	lw	a5,-36(s0)
    80002ba4:	00379793          	slli	a5,a5,0x3
    80002ba8:	00f707b3          	add	a5,a4,a5
    80002bac:	0007b783          	ld	a5,0(a5)
    80002bb0:	fe043703          	ld	a4,-32(s0)
    80002bb4:	40f707b3          	sub	a5,a4,a5
    80002bb8:	fef43023          	sd	a5,-32(s0)
    80002bbc:	00006717          	auipc	a4,0x6
    80002bc0:	a5470713          	addi	a4,a4,-1452 # 80008610 <counter_names>
    80002bc4:	fdc42783          	lw	a5,-36(s0)
    80002bc8:	00379793          	slli	a5,a5,0x3
    80002bcc:	00f707b3          	add	a5,a4,a5
    80002bd0:	00002717          	auipc	a4,0x2
    80002bd4:	86870713          	addi	a4,a4,-1944 # 80004438 <atol+0xa98>
    80002bd8:	00e7b023          	sd	a4,0(a5)
    80002bdc:	fdc42783          	lw	a5,-36(s0)
    80002be0:	0017871b          	addiw	a4,a5,1
    80002be4:	fce42e23          	sw	a4,-36(s0)
    80002be8:	00006717          	auipc	a4,0x6
    80002bec:	a1870713          	addi	a4,a4,-1512 # 80008600 <counters>
    80002bf0:	00379793          	slli	a5,a5,0x3
    80002bf4:	00f707b3          	add	a5,a4,a5
    80002bf8:	fe043703          	ld	a4,-32(s0)
    80002bfc:	00e7b023          	sd	a4,0(a5)
    80002c00:	00000013          	nop
    80002c04:	04813403          	ld	s0,72(sp)
    80002c08:	05010113          	addi	sp,sp,80
    80002c0c:	00008067          	ret

0000000080002c10 <tohost_exit>:
    80002c10:	fe010113          	addi	sp,sp,-32
    80002c14:	00813c23          	sd	s0,24(sp)
    80002c18:	02010413          	addi	s0,sp,32
    80002c1c:	fea43423          	sd	a0,-24(s0)
    80002c20:	00011337          	lui	t1,0x11
    80002c24:	2003031b          	addiw	t1,t1,512

0000000080002c28 <uart1_status>:
    80002c28:	00830383          	lb	t2,8(t1) # 11008 <_tbss_end+0x11004>
    80002c2c:	0013f393          	andi	t2,t2,1
    80002c30:	fe038ce3          	beqz	t2,80002c28 <uart1_status>
    80002c34:	fe843783          	ld	a5,-24(s0)
    80002c38:	00179793          	slli	a5,a5,0x1
    80002c3c:	0017e713          	ori	a4,a5,1
    80002c40:	ffffe797          	auipc	a5,0xffffe
    80002c44:	3c078793          	addi	a5,a5,960 # 80001000 <tohost>
    80002c48:	00e7b023          	sd	a4,0(a5)
    80002c4c:	0000006f          	j	80002c4c <uart1_status+0x24>

0000000080002c50 <handle_trap>:
    80002c50:	fd010113          	addi	sp,sp,-48
    80002c54:	02113423          	sd	ra,40(sp)
    80002c58:	02813023          	sd	s0,32(sp)
    80002c5c:	03010413          	addi	s0,sp,48
    80002c60:	fea43423          	sd	a0,-24(s0)
    80002c64:	feb43023          	sd	a1,-32(s0)
    80002c68:	fcc43c23          	sd	a2,-40(s0)
    80002c6c:	53900513          	li	a0,1337
    80002c70:	fa1ff0ef          	jal	ra,80002c10 <tohost_exit>

0000000080002c74 <exit>:
    80002c74:	fe010113          	addi	sp,sp,-32
    80002c78:	00113c23          	sd	ra,24(sp)
    80002c7c:	00813823          	sd	s0,16(sp)
    80002c80:	02010413          	addi	s0,sp,32
    80002c84:	00050793          	mv	a5,a0
    80002c88:	fef42623          	sw	a5,-20(s0)
    80002c8c:	fec42783          	lw	a5,-20(s0)
    80002c90:	00078513          	mv	a0,a5
    80002c94:	f7dff0ef          	jal	ra,80002c10 <tohost_exit>

0000000080002c98 <abort>:
    80002c98:	ff010113          	addi	sp,sp,-16
    80002c9c:	00113423          	sd	ra,8(sp)
    80002ca0:	00813023          	sd	s0,0(sp)
    80002ca4:	01010413          	addi	s0,sp,16
    80002ca8:	08600513          	li	a0,134
    80002cac:	fc9ff0ef          	jal	ra,80002c74 <exit>

0000000080002cb0 <printstr>:
    80002cb0:	fd010113          	addi	sp,sp,-48
    80002cb4:	02113423          	sd	ra,40(sp)
    80002cb8:	02813023          	sd	s0,32(sp)
    80002cbc:	00913c23          	sd	s1,24(sp)
    80002cc0:	03010413          	addi	s0,sp,48
    80002cc4:	fca43c23          	sd	a0,-40(s0)
    80002cc8:	fd843483          	ld	s1,-40(s0)
    80002ccc:	fd843503          	ld	a0,-40(s0)
    80002cd0:	33d000ef          	jal	ra,8000380c <strlen>
    80002cd4:	00050793          	mv	a5,a0
    80002cd8:	00078693          	mv	a3,a5
    80002cdc:	00048613          	mv	a2,s1
    80002ce0:	00100593          	li	a1,1
    80002ce4:	04000513          	li	a0,64
    80002ce8:	d51ff0ef          	jal	ra,80002a38 <syscall>
    80002cec:	00000013          	nop
    80002cf0:	02813083          	ld	ra,40(sp)
    80002cf4:	02013403          	ld	s0,32(sp)
    80002cf8:	01813483          	ld	s1,24(sp)
    80002cfc:	03010113          	addi	sp,sp,48
    80002d00:	00008067          	ret
    80002d04:	fe010113          	addi	sp,sp,-32
    80002d08:	00113c23          	sd	ra,24(sp)
    80002d0c:	00813823          	sd	s0,16(sp)
    80002d10:	02010413          	addi	s0,sp,32
    80002d14:	00050793          	mv	a5,a0
    80002d18:	feb43023          	sd	a1,-32(s0)
    80002d1c:	fef42623          	sw	a5,-20(s0)
    80002d20:	00001517          	auipc	a0,0x1
    80002d24:	72850513          	addi	a0,a0,1832 # 80004448 <atol+0xaa8>
    80002d28:	f89ff0ef          	jal	ra,80002cb0 <printstr>
    80002d2c:	fff00793          	li	a5,-1
    80002d30:	00078513          	mv	a0,a5
    80002d34:	01813083          	ld	ra,24(sp)
    80002d38:	01013403          	ld	s0,16(sp)
    80002d3c:	02010113          	addi	sp,sp,32
    80002d40:	00008067          	ret

0000000080002d44 <getchar>:
    80002d44:	ff010113          	addi	sp,sp,-16
    80002d48:	00813423          	sd	s0,8(sp)
    80002d4c:	01010413          	addi	s0,sp,16
    80002d50:	00011337          	lui	t1,0x11
    80002d54:	2003031b          	addiw	t1,t1,512

0000000080002d58 <uart_statusr>:
    80002d58:	02830383          	lb	t2,40(t1) # 11028 <_tbss_end+0x11024>
    80002d5c:	0013f393          	andi	t2,t2,1
    80002d60:	fe038ce3          	beqz	t2,80002d58 <uart_statusr>
    80002d64:	00030503          	lb	a0,0(t1)
    80002d68:	0ff57793          	andi	a5,a0,255
    80002d6c:	0007879b          	sext.w	a5,a5
    80002d70:	00078513          	mv	a0,a5
    80002d74:	00813403          	ld	s0,8(sp)
    80002d78:	01010113          	addi	sp,sp,16
    80002d7c:	00008067          	ret

0000000080002d80 <Uart0Init>:
    80002d80:	ff010113          	addi	sp,sp,-16
    80002d84:	00813423          	sd	s0,8(sp)
    80002d88:	01010413          	addi	s0,sp,16
    80002d8c:	00011337          	lui	t1,0x11
    80002d90:	2003031b          	addiw	t1,t1,512
    80002d94:	08300393          	li	t2,131
    80002d98:	00730c23          	sb	t2,24(t1) # 11018 <_tbss_end+0x11014>
    80002d9c:	00000393          	li	t2,0
    80002da0:	00030423          	sb	zero,8(t1)
    80002da4:	10f00393          	li	t2,271
    80002da8:	00730023          	sb	t2,0(t1)
    80002dac:	00300393          	li	t2,3
    80002db0:	00730c23          	sb	t2,24(t1)
    80002db4:	00600393          	li	t2,6
    80002db8:	00730823          	sb	t2,16(t1)
    80002dbc:	00030423          	sb	zero,8(t1)
    80002dc0:	00000793          	li	a5,0
    80002dc4:	00078513          	mv	a0,a5
    80002dc8:	00813403          	ld	s0,8(sp)
    80002dcc:	01010113          	addi	sp,sp,16
    80002dd0:	00008067          	ret

0000000080002dd4 <putchar>:
    80002dd4:	fe010113          	addi	sp,sp,-32
    80002dd8:	00813c23          	sd	s0,24(sp)
    80002ddc:	02010413          	addi	s0,sp,32
    80002de0:	00050793          	mv	a5,a0
    80002de4:	fef42623          	sw	a5,-20(s0)
    80002de8:	fec42783          	lw	a5,-20(s0)
    80002dec:	0ff7f793          	andi	a5,a5,255
    80002df0:	00078513          	mv	a0,a5
    80002df4:	00011337          	lui	t1,0x11
    80002df8:	2003031b          	addiw	t1,t1,512

0000000080002dfc <uart_status>:
    80002dfc:	02830383          	lb	t2,40(t1) # 11028 <_tbss_end+0x11024>
    80002e00:	0203f393          	andi	t2,t2,32
    80002e04:	fe038ce3          	beqz	t2,80002dfc <uart_status>
    80002e08:	00a30023          	sb	a0,0(t1)
    80002e0c:	00000793          	li	a5,0
    80002e10:	00078513          	mv	a0,a5
    80002e14:	01813403          	ld	s0,24(sp)
    80002e18:	02010113          	addi	sp,sp,32
    80002e1c:	00008067          	ret

0000000080002e20 <_init>:
    80002e20:	f5010113          	addi	sp,sp,-176
    80002e24:	0a113423          	sd	ra,168(sp)
    80002e28:	0a813023          	sd	s0,160(sp)
    80002e2c:	08913c23          	sd	s1,152(sp)
    80002e30:	0b010413          	addi	s0,sp,176
    80002e34:	00050793          	mv	a5,a0
    80002e38:	00058713          	mv	a4,a1
    80002e3c:	f4f42e23          	sw	a5,-164(s0)
    80002e40:	00070793          	mv	a5,a4
    80002e44:	f4f42c23          	sw	a5,-168(s0)
    80002e48:	fe040793          	addi	a5,s0,-32
    80002e4c:	f8078793          	addi	a5,a5,-128
    80002e50:	03f78793          	addi	a5,a5,63
    80002e54:	0067d793          	srli	a5,a5,0x6
    80002e58:	00679493          	slli	s1,a5,0x6
    80002e5c:	00000593          	li	a1,0
    80002e60:	00000513          	li	a0,0
    80002e64:	d50ff0ef          	jal	ra,800023b4 <main>
    80002e68:	00050793          	mv	a5,a0
    80002e6c:	fcf42c23          	sw	a5,-40(s0)
    80002e70:	fc943823          	sd	s1,-48(s0)
    80002e74:	fc042e23          	sw	zero,-36(s0)
    80002e78:	0700006f          	j	80002ee8 <_init+0xc8>
    80002e7c:	00005717          	auipc	a4,0x5
    80002e80:	78470713          	addi	a4,a4,1924 # 80008600 <counters>
    80002e84:	fdc42783          	lw	a5,-36(s0)
    80002e88:	00379793          	slli	a5,a5,0x3
    80002e8c:	00f707b3          	add	a5,a4,a5
    80002e90:	0007b783          	ld	a5,0(a5)
    80002e94:	04078463          	beqz	a5,80002edc <_init+0xbc>
    80002e98:	00005717          	auipc	a4,0x5
    80002e9c:	77870713          	addi	a4,a4,1912 # 80008610 <counter_names>
    80002ea0:	fdc42783          	lw	a5,-36(s0)
    80002ea4:	00379793          	slli	a5,a5,0x3
    80002ea8:	00f707b3          	add	a5,a4,a5
    80002eac:	0007b683          	ld	a3,0(a5)
    80002eb0:	00005717          	auipc	a4,0x5
    80002eb4:	75070713          	addi	a4,a4,1872 # 80008600 <counters>
    80002eb8:	fdc42783          	lw	a5,-36(s0)
    80002ebc:	00379793          	slli	a5,a5,0x3
    80002ec0:	00f707b3          	add	a5,a4,a5
    80002ec4:	0007b783          	ld	a5,0(a5)
    80002ec8:	00078613          	mv	a2,a5
    80002ecc:	00068593          	mv	a1,a3
    80002ed0:	00001517          	auipc	a0,0x1
    80002ed4:	59050513          	addi	a0,a0,1424 # 80004460 <atol+0xac0>
    80002ed8:	788000ef          	jal	ra,80003660 <printf>
    80002edc:	fdc42783          	lw	a5,-36(s0)
    80002ee0:	0017879b          	addiw	a5,a5,1
    80002ee4:	fcf42e23          	sw	a5,-36(s0)
    80002ee8:	fdc42783          	lw	a5,-36(s0)
    80002eec:	0007871b          	sext.w	a4,a5
    80002ef0:	00100793          	li	a5,1
    80002ef4:	f8e7d4e3          	bge	a5,a4,80002e7c <_init+0x5c>
    80002ef8:	fd842783          	lw	a5,-40(s0)
    80002efc:	00078513          	mv	a0,a5
    80002f00:	d75ff0ef          	jal	ra,80002c74 <exit>

0000000080002f04 <printhex>:
    80002f04:	fc010113          	addi	sp,sp,-64
    80002f08:	02113c23          	sd	ra,56(sp)
    80002f0c:	02813823          	sd	s0,48(sp)
    80002f10:	04010413          	addi	s0,sp,64
    80002f14:	fca43423          	sd	a0,-56(s0)
    80002f18:	fe042623          	sw	zero,-20(s0)
    80002f1c:	06c0006f          	j	80002f88 <printhex+0x84>
    80002f20:	fc843783          	ld	a5,-56(s0)
    80002f24:	0ff7f793          	andi	a5,a5,255
    80002f28:	00f7f793          	andi	a5,a5,15
    80002f2c:	0ff7f713          	andi	a4,a5,255
    80002f30:	fc843783          	ld	a5,-56(s0)
    80002f34:	00f7f693          	andi	a3,a5,15
    80002f38:	00900793          	li	a5,9
    80002f3c:	00d7e663          	bltu	a5,a3,80002f48 <printhex+0x44>
    80002f40:	03000793          	li	a5,48
    80002f44:	0080006f          	j	80002f4c <printhex+0x48>
    80002f48:	05700793          	li	a5,87
    80002f4c:	00f00613          	li	a2,15
    80002f50:	fec42683          	lw	a3,-20(s0)
    80002f54:	40d606bb          	subw	a3,a2,a3
    80002f58:	0006869b          	sext.w	a3,a3
    80002f5c:	00e787bb          	addw	a5,a5,a4
    80002f60:	0ff7f713          	andi	a4,a5,255
    80002f64:	ff040793          	addi	a5,s0,-16
    80002f68:	00d787b3          	add	a5,a5,a3
    80002f6c:	fee78423          	sb	a4,-24(a5)
    80002f70:	fc843783          	ld	a5,-56(s0)
    80002f74:	0047d793          	srli	a5,a5,0x4
    80002f78:	fcf43423          	sd	a5,-56(s0)
    80002f7c:	fec42783          	lw	a5,-20(s0)
    80002f80:	0017879b          	addiw	a5,a5,1
    80002f84:	fef42623          	sw	a5,-20(s0)
    80002f88:	fec42783          	lw	a5,-20(s0)
    80002f8c:	0007871b          	sext.w	a4,a5
    80002f90:	00f00793          	li	a5,15
    80002f94:	f8e7d6e3          	bge	a5,a4,80002f20 <printhex+0x1c>
    80002f98:	fe040423          	sb	zero,-24(s0)
    80002f9c:	fd840793          	addi	a5,s0,-40
    80002fa0:	00078513          	mv	a0,a5
    80002fa4:	d0dff0ef          	jal	ra,80002cb0 <printstr>
    80002fa8:	00000013          	nop
    80002fac:	03813083          	ld	ra,56(sp)
    80002fb0:	03013403          	ld	s0,48(sp)
    80002fb4:	04010113          	addi	sp,sp,64
    80002fb8:	00008067          	ret

0000000080002fbc <printnum>:
    80002fbc:	eb010113          	addi	sp,sp,-336
    80002fc0:	14113423          	sd	ra,328(sp)
    80002fc4:	14813023          	sd	s0,320(sp)
    80002fc8:	15010413          	addi	s0,sp,336
    80002fcc:	eca43c23          	sd	a0,-296(s0)
    80002fd0:	ecb43823          	sd	a1,-304(s0)
    80002fd4:	ecc43423          	sd	a2,-312(s0)
    80002fd8:	00068613          	mv	a2,a3
    80002fdc:	00070693          	mv	a3,a4
    80002fe0:	00078713          	mv	a4,a5
    80002fe4:	00060793          	mv	a5,a2
    80002fe8:	ecf42223          	sw	a5,-316(s0)
    80002fec:	00068793          	mv	a5,a3
    80002ff0:	ecf42023          	sw	a5,-320(s0)
    80002ff4:	00070793          	mv	a5,a4
    80002ff8:	eaf42e23          	sw	a5,-324(s0)
    80002ffc:	fe042623          	sw	zero,-20(s0)
    80003000:	ec446783          	lwu	a5,-316(s0)
    80003004:	ec843703          	ld	a4,-312(s0)
    80003008:	02f776b3          	remu	a3,a4,a5
    8000300c:	fec42783          	lw	a5,-20(s0)
    80003010:	0017871b          	addiw	a4,a5,1
    80003014:	fee42623          	sw	a4,-20(s0)
    80003018:	0006871b          	sext.w	a4,a3
    8000301c:	00279793          	slli	a5,a5,0x2
    80003020:	ff040693          	addi	a3,s0,-16
    80003024:	00f687b3          	add	a5,a3,a5
    80003028:	eee7ac23          	sw	a4,-264(a5)
    8000302c:	ec446783          	lwu	a5,-316(s0)
    80003030:	ec843703          	ld	a4,-312(s0)
    80003034:	00f76c63          	bltu	a4,a5,8000304c <printnum+0x90>
    80003038:	ec446783          	lwu	a5,-316(s0)
    8000303c:	ec843703          	ld	a4,-312(s0)
    80003040:	02f757b3          	divu	a5,a4,a5
    80003044:	ecf43423          	sd	a5,-312(s0)
    80003048:	fb9ff06f          	j	80003000 <printnum+0x44>
    8000304c:	00000013          	nop
    80003050:	0180006f          	j	80003068 <printnum+0xac>
    80003054:	ebc42783          	lw	a5,-324(s0)
    80003058:	ed843703          	ld	a4,-296(s0)
    8000305c:	ed043583          	ld	a1,-304(s0)
    80003060:	00078513          	mv	a0,a5
    80003064:	000700e7          	jalr	a4
    80003068:	ec042783          	lw	a5,-320(s0)
    8000306c:	fff7871b          	addiw	a4,a5,-1
    80003070:	ece42023          	sw	a4,-320(s0)
    80003074:	fec42703          	lw	a4,-20(s0)
    80003078:	0007071b          	sext.w	a4,a4
    8000307c:	fcf74ce3          	blt	a4,a5,80003054 <printnum+0x98>
    80003080:	0600006f          	j	800030e0 <printnum+0x124>
    80003084:	fec42783          	lw	a5,-20(s0)
    80003088:	00279793          	slli	a5,a5,0x2
    8000308c:	ff040713          	addi	a4,s0,-16
    80003090:	00f707b3          	add	a5,a4,a5
    80003094:	ef87a703          	lw	a4,-264(a5)
    80003098:	fec42783          	lw	a5,-20(s0)
    8000309c:	00279793          	slli	a5,a5,0x2
    800030a0:	ff040693          	addi	a3,s0,-16
    800030a4:	00f687b3          	add	a5,a3,a5
    800030a8:	ef87a783          	lw	a5,-264(a5)
    800030ac:	00078693          	mv	a3,a5
    800030b0:	00900793          	li	a5,9
    800030b4:	00d7f663          	bgeu	a5,a3,800030c0 <printnum+0x104>
    800030b8:	05700793          	li	a5,87
    800030bc:	0080006f          	j	800030c4 <printnum+0x108>
    800030c0:	03000793          	li	a5,48
    800030c4:	00e787bb          	addw	a5,a5,a4
    800030c8:	0007879b          	sext.w	a5,a5
    800030cc:	0007879b          	sext.w	a5,a5
    800030d0:	ed843703          	ld	a4,-296(s0)
    800030d4:	ed043583          	ld	a1,-304(s0)
    800030d8:	00078513          	mv	a0,a5
    800030dc:	000700e7          	jalr	a4
    800030e0:	fec42783          	lw	a5,-20(s0)
    800030e4:	fff7871b          	addiw	a4,a5,-1
    800030e8:	fee42623          	sw	a4,-20(s0)
    800030ec:	f8f04ce3          	bgtz	a5,80003084 <printnum+0xc8>
    800030f0:	00000013          	nop
    800030f4:	14813083          	ld	ra,328(sp)
    800030f8:	14013403          	ld	s0,320(sp)
    800030fc:	15010113          	addi	sp,sp,336
    80003100:	00008067          	ret

0000000080003104 <getuint>:
    80003104:	fe010113          	addi	sp,sp,-32
    80003108:	00813c23          	sd	s0,24(sp)
    8000310c:	02010413          	addi	s0,sp,32
    80003110:	fea43423          	sd	a0,-24(s0)
    80003114:	00058793          	mv	a5,a1
    80003118:	fef42223          	sw	a5,-28(s0)
    8000311c:	fe442783          	lw	a5,-28(s0)
    80003120:	0007871b          	sext.w	a4,a5
    80003124:	00100793          	li	a5,1
    80003128:	02e7d063          	bge	a5,a4,80003148 <getuint+0x44>
    8000312c:	fe843783          	ld	a5,-24(s0)
    80003130:	0007b783          	ld	a5,0(a5)
    80003134:	00878693          	addi	a3,a5,8
    80003138:	fe843703          	ld	a4,-24(s0)
    8000313c:	00d73023          	sd	a3,0(a4)
    80003140:	0007b783          	ld	a5,0(a5)
    80003144:	04c0006f          	j	80003190 <getuint+0x8c>
    80003148:	fe442783          	lw	a5,-28(s0)
    8000314c:	0007879b          	sext.w	a5,a5
    80003150:	02078063          	beqz	a5,80003170 <getuint+0x6c>
    80003154:	fe843783          	ld	a5,-24(s0)
    80003158:	0007b783          	ld	a5,0(a5)
    8000315c:	00878693          	addi	a3,a5,8
    80003160:	fe843703          	ld	a4,-24(s0)
    80003164:	00d73023          	sd	a3,0(a4)
    80003168:	0007b783          	ld	a5,0(a5)
    8000316c:	0240006f          	j	80003190 <getuint+0x8c>
    80003170:	fe843783          	ld	a5,-24(s0)
    80003174:	0007b783          	ld	a5,0(a5)
    80003178:	00878693          	addi	a3,a5,8
    8000317c:	fe843703          	ld	a4,-24(s0)
    80003180:	00d73023          	sd	a3,0(a4)
    80003184:	0007a783          	lw	a5,0(a5)
    80003188:	02079793          	slli	a5,a5,0x20
    8000318c:	0207d793          	srli	a5,a5,0x20
    80003190:	00078513          	mv	a0,a5
    80003194:	01813403          	ld	s0,24(sp)
    80003198:	02010113          	addi	sp,sp,32
    8000319c:	00008067          	ret

00000000800031a0 <getint>:
    800031a0:	fe010113          	addi	sp,sp,-32
    800031a4:	00813c23          	sd	s0,24(sp)
    800031a8:	02010413          	addi	s0,sp,32
    800031ac:	fea43423          	sd	a0,-24(s0)
    800031b0:	00058793          	mv	a5,a1
    800031b4:	fef42223          	sw	a5,-28(s0)
    800031b8:	fe442783          	lw	a5,-28(s0)
    800031bc:	0007871b          	sext.w	a4,a5
    800031c0:	00100793          	li	a5,1
    800031c4:	02e7d063          	bge	a5,a4,800031e4 <getint+0x44>
    800031c8:	fe843783          	ld	a5,-24(s0)
    800031cc:	0007b783          	ld	a5,0(a5)
    800031d0:	00878693          	addi	a3,a5,8
    800031d4:	fe843703          	ld	a4,-24(s0)
    800031d8:	00d73023          	sd	a3,0(a4)
    800031dc:	0007b783          	ld	a5,0(a5)
    800031e0:	0440006f          	j	80003224 <getint+0x84>
    800031e4:	fe442783          	lw	a5,-28(s0)
    800031e8:	0007879b          	sext.w	a5,a5
    800031ec:	02078063          	beqz	a5,8000320c <getint+0x6c>
    800031f0:	fe843783          	ld	a5,-24(s0)
    800031f4:	0007b783          	ld	a5,0(a5)
    800031f8:	00878693          	addi	a3,a5,8
    800031fc:	fe843703          	ld	a4,-24(s0)
    80003200:	00d73023          	sd	a3,0(a4)
    80003204:	0007b783          	ld	a5,0(a5)
    80003208:	01c0006f          	j	80003224 <getint+0x84>
    8000320c:	fe843783          	ld	a5,-24(s0)
    80003210:	0007b783          	ld	a5,0(a5)
    80003214:	00878693          	addi	a3,a5,8
    80003218:	fe843703          	ld	a4,-24(s0)
    8000321c:	00d73023          	sd	a3,0(a4)
    80003220:	0007a783          	lw	a5,0(a5)
    80003224:	00078513          	mv	a0,a5
    80003228:	01813403          	ld	s0,24(sp)
    8000322c:	02010113          	addi	sp,sp,32
    80003230:	00008067          	ret

0000000080003234 <vprintfmt>:
    80003234:	f9010113          	addi	sp,sp,-112
    80003238:	06113423          	sd	ra,104(sp)
    8000323c:	06813023          	sd	s0,96(sp)
    80003240:	04913c23          	sd	s1,88(sp)
    80003244:	05213823          	sd	s2,80(sp)
    80003248:	07010413          	addi	s0,sp,112
    8000324c:	faa43423          	sd	a0,-88(s0)
    80003250:	fab43023          	sd	a1,-96(s0)
    80003254:	f8c43c23          	sd	a2,-104(s0)
    80003258:	f8d43823          	sd	a3,-112(s0)
    8000325c:	0240006f          	j	80003280 <vprintfmt+0x4c>
    80003260:	3e048263          	beqz	s1,80003644 <vprintfmt+0x410>
    80003264:	f9843783          	ld	a5,-104(s0)
    80003268:	00178793          	addi	a5,a5,1
    8000326c:	f8f43c23          	sd	a5,-104(s0)
    80003270:	fa843783          	ld	a5,-88(s0)
    80003274:	fa043583          	ld	a1,-96(s0)
    80003278:	00048513          	mv	a0,s1
    8000327c:	000780e7          	jalr	a5
    80003280:	f9843783          	ld	a5,-104(s0)
    80003284:	0007c783          	lbu	a5,0(a5)
    80003288:	0007849b          	sext.w	s1,a5
    8000328c:	00048713          	mv	a4,s1
    80003290:	02500793          	li	a5,37
    80003294:	fcf716e3          	bne	a4,a5,80003260 <vprintfmt+0x2c>
    80003298:	f9843783          	ld	a5,-104(s0)
    8000329c:	00178793          	addi	a5,a5,1
    800032a0:	f8f43c23          	sd	a5,-104(s0)
    800032a4:	f9843783          	ld	a5,-104(s0)
    800032a8:	faf43c23          	sd	a5,-72(s0)
    800032ac:	02000793          	li	a5,32
    800032b0:	fcf403a3          	sb	a5,-57(s0)
    800032b4:	fff00793          	li	a5,-1
    800032b8:	fcf42623          	sw	a5,-52(s0)
    800032bc:	fff00793          	li	a5,-1
    800032c0:	fcf42423          	sw	a5,-56(s0)
    800032c4:	fc042823          	sw	zero,-48(s0)
    800032c8:	fa042a23          	sw	zero,-76(s0)
    800032cc:	f9843783          	ld	a5,-104(s0)
    800032d0:	00178713          	addi	a4,a5,1
    800032d4:	f8e43c23          	sd	a4,-104(s0)
    800032d8:	0007c783          	lbu	a5,0(a5)
    800032dc:	0007849b          	sext.w	s1,a5
    800032e0:	fdd4869b          	addiw	a3,s1,-35
    800032e4:	0006871b          	sext.w	a4,a3
    800032e8:	05500793          	li	a5,85
    800032ec:	32e7ec63          	bltu	a5,a4,80003624 <vprintfmt+0x3f0>
    800032f0:	02069793          	slli	a5,a3,0x20
    800032f4:	0207d793          	srli	a5,a5,0x20
    800032f8:	00279713          	slli	a4,a5,0x2
    800032fc:	00001797          	auipc	a5,0x1
    80003300:	17c78793          	addi	a5,a5,380 # 80004478 <atol+0xad8>
    80003304:	00f707b3          	add	a5,a4,a5
    80003308:	0007a783          	lw	a5,0(a5)
    8000330c:	0007871b          	sext.w	a4,a5
    80003310:	00001797          	auipc	a5,0x1
    80003314:	16878793          	addi	a5,a5,360 # 80004478 <atol+0xad8>
    80003318:	00f707b3          	add	a5,a4,a5
    8000331c:	00078067          	jr	a5
    80003320:	02d00793          	li	a5,45
    80003324:	fcf403a3          	sb	a5,-57(s0)
    80003328:	fa5ff06f          	j	800032cc <vprintfmt+0x98>
    8000332c:	03000793          	li	a5,48
    80003330:	fcf403a3          	sb	a5,-57(s0)
    80003334:	f99ff06f          	j	800032cc <vprintfmt+0x98>
    80003338:	fc042423          	sw	zero,-56(s0)
    8000333c:	fc842703          	lw	a4,-56(s0)
    80003340:	00070793          	mv	a5,a4
    80003344:	0027979b          	slliw	a5,a5,0x2
    80003348:	00e787bb          	addw	a5,a5,a4
    8000334c:	0017979b          	slliw	a5,a5,0x1
    80003350:	0007879b          	sext.w	a5,a5
    80003354:	00f487bb          	addw	a5,s1,a5
    80003358:	0007879b          	sext.w	a5,a5
    8000335c:	fd07879b          	addiw	a5,a5,-48
    80003360:	fcf42423          	sw	a5,-56(s0)
    80003364:	f9843783          	ld	a5,-104(s0)
    80003368:	0007c783          	lbu	a5,0(a5)
    8000336c:	0007849b          	sext.w	s1,a5
    80003370:	00048713          	mv	a4,s1
    80003374:	02f00793          	li	a5,47
    80003378:	04e7dc63          	bge	a5,a4,800033d0 <vprintfmt+0x19c>
    8000337c:	00048713          	mv	a4,s1
    80003380:	03900793          	li	a5,57
    80003384:	04e7c663          	blt	a5,a4,800033d0 <vprintfmt+0x19c>
    80003388:	f9843783          	ld	a5,-104(s0)
    8000338c:	00178793          	addi	a5,a5,1
    80003390:	f8f43c23          	sd	a5,-104(s0)
    80003394:	fa9ff06f          	j	8000333c <vprintfmt+0x108>
    80003398:	f9043783          	ld	a5,-112(s0)
    8000339c:	00878713          	addi	a4,a5,8
    800033a0:	f8e43823          	sd	a4,-112(s0)
    800033a4:	0007a783          	lw	a5,0(a5)
    800033a8:	fcf42423          	sw	a5,-56(s0)
    800033ac:	0280006f          	j	800033d4 <vprintfmt+0x1a0>
    800033b0:	fcc42783          	lw	a5,-52(s0)
    800033b4:	0007879b          	sext.w	a5,a5
    800033b8:	f007dae3          	bgez	a5,800032cc <vprintfmt+0x98>
    800033bc:	fc042623          	sw	zero,-52(s0)
    800033c0:	f0dff06f          	j	800032cc <vprintfmt+0x98>
    800033c4:	00100793          	li	a5,1
    800033c8:	faf42a23          	sw	a5,-76(s0)
    800033cc:	f01ff06f          	j	800032cc <vprintfmt+0x98>
    800033d0:	00000013          	nop
    800033d4:	fcc42783          	lw	a5,-52(s0)
    800033d8:	0007879b          	sext.w	a5,a5
    800033dc:	ee07d8e3          	bgez	a5,800032cc <vprintfmt+0x98>
    800033e0:	fc842783          	lw	a5,-56(s0)
    800033e4:	fcf42623          	sw	a5,-52(s0)
    800033e8:	fff00793          	li	a5,-1
    800033ec:	fcf42423          	sw	a5,-56(s0)
    800033f0:	eddff06f          	j	800032cc <vprintfmt+0x98>
    800033f4:	fd042783          	lw	a5,-48(s0)
    800033f8:	0017879b          	addiw	a5,a5,1
    800033fc:	fcf42823          	sw	a5,-48(s0)
    80003400:	ecdff06f          	j	800032cc <vprintfmt+0x98>
    80003404:	f9043783          	ld	a5,-112(s0)
    80003408:	00878713          	addi	a4,a5,8
    8000340c:	f8e43823          	sd	a4,-112(s0)
    80003410:	0007a783          	lw	a5,0(a5)
    80003414:	fa843703          	ld	a4,-88(s0)
    80003418:	fa043583          	ld	a1,-96(s0)
    8000341c:	00078513          	mv	a0,a5
    80003420:	000700e7          	jalr	a4
    80003424:	21c0006f          	j	80003640 <vprintfmt+0x40c>
    80003428:	f9043783          	ld	a5,-112(s0)
    8000342c:	00878713          	addi	a4,a5,8
    80003430:	f8e43823          	sd	a4,-112(s0)
    80003434:	0007b903          	ld	s2,0(a5)
    80003438:	00091663          	bnez	s2,80003444 <vprintfmt+0x210>
    8000343c:	00001917          	auipc	s2,0x1
    80003440:	03490913          	addi	s2,s2,52 # 80004470 <atol+0xad0>
    80003444:	fcc42783          	lw	a5,-52(s0)
    80003448:	0007879b          	sext.w	a5,a5
    8000344c:	08f05a63          	blez	a5,800034e0 <vprintfmt+0x2ac>
    80003450:	fc744783          	lbu	a5,-57(s0)
    80003454:	0ff7f713          	andi	a4,a5,255
    80003458:	02d00793          	li	a5,45
    8000345c:	08f70263          	beq	a4,a5,800034e0 <vprintfmt+0x2ac>
    80003460:	fc842783          	lw	a5,-56(s0)
    80003464:	00078593          	mv	a1,a5
    80003468:	00090513          	mv	a0,s2
    8000346c:	3f0000ef          	jal	ra,8000385c <strnlen>
    80003470:	00050793          	mv	a5,a0
    80003474:	fcc42703          	lw	a4,-52(s0)
    80003478:	0007879b          	sext.w	a5,a5
    8000347c:	40f707bb          	subw	a5,a4,a5
    80003480:	0007879b          	sext.w	a5,a5
    80003484:	fcf42623          	sw	a5,-52(s0)
    80003488:	0280006f          	j	800034b0 <vprintfmt+0x27c>
    8000348c:	fc744783          	lbu	a5,-57(s0)
    80003490:	0007879b          	sext.w	a5,a5
    80003494:	fa843703          	ld	a4,-88(s0)
    80003498:	fa043583          	ld	a1,-96(s0)
    8000349c:	00078513          	mv	a0,a5
    800034a0:	000700e7          	jalr	a4
    800034a4:	fcc42783          	lw	a5,-52(s0)
    800034a8:	fff7879b          	addiw	a5,a5,-1
    800034ac:	fcf42623          	sw	a5,-52(s0)
    800034b0:	fcc42783          	lw	a5,-52(s0)
    800034b4:	0007879b          	sext.w	a5,a5
    800034b8:	fcf04ae3          	bgtz	a5,8000348c <vprintfmt+0x258>
    800034bc:	0240006f          	j	800034e0 <vprintfmt+0x2ac>
    800034c0:	fa843783          	ld	a5,-88(s0)
    800034c4:	fa043583          	ld	a1,-96(s0)
    800034c8:	00048513          	mv	a0,s1
    800034cc:	000780e7          	jalr	a5
    800034d0:	00190913          	addi	s2,s2,1
    800034d4:	fcc42783          	lw	a5,-52(s0)
    800034d8:	fff7879b          	addiw	a5,a5,-1
    800034dc:	fcf42623          	sw	a5,-52(s0)
    800034e0:	00094783          	lbu	a5,0(s2)
    800034e4:	0007849b          	sext.w	s1,a5
    800034e8:	04048463          	beqz	s1,80003530 <vprintfmt+0x2fc>
    800034ec:	fc842783          	lw	a5,-56(s0)
    800034f0:	0007879b          	sext.w	a5,a5
    800034f4:	fc07c6e3          	bltz	a5,800034c0 <vprintfmt+0x28c>
    800034f8:	fc842783          	lw	a5,-56(s0)
    800034fc:	fff7879b          	addiw	a5,a5,-1
    80003500:	fcf42423          	sw	a5,-56(s0)
    80003504:	fc842783          	lw	a5,-56(s0)
    80003508:	0007879b          	sext.w	a5,a5
    8000350c:	fa07dae3          	bgez	a5,800034c0 <vprintfmt+0x28c>
    80003510:	0200006f          	j	80003530 <vprintfmt+0x2fc>
    80003514:	fa843783          	ld	a5,-88(s0)
    80003518:	fa043583          	ld	a1,-96(s0)
    8000351c:	02000513          	li	a0,32
    80003520:	000780e7          	jalr	a5
    80003524:	fcc42783          	lw	a5,-52(s0)
    80003528:	fff7879b          	addiw	a5,a5,-1
    8000352c:	fcf42623          	sw	a5,-52(s0)
    80003530:	fcc42783          	lw	a5,-52(s0)
    80003534:	0007879b          	sext.w	a5,a5
    80003538:	fcf04ee3          	bgtz	a5,80003514 <vprintfmt+0x2e0>
    8000353c:	1040006f          	j	80003640 <vprintfmt+0x40c>
    80003540:	fd042703          	lw	a4,-48(s0)
    80003544:	f9040793          	addi	a5,s0,-112
    80003548:	00070593          	mv	a1,a4
    8000354c:	00078513          	mv	a0,a5
    80003550:	c51ff0ef          	jal	ra,800031a0 <getint>
    80003554:	00050793          	mv	a5,a0
    80003558:	fcf43c23          	sd	a5,-40(s0)
    8000355c:	fd843783          	ld	a5,-40(s0)
    80003560:	0207d063          	bgez	a5,80003580 <vprintfmt+0x34c>
    80003564:	fa843783          	ld	a5,-88(s0)
    80003568:	fa043583          	ld	a1,-96(s0)
    8000356c:	02d00513          	li	a0,45
    80003570:	000780e7          	jalr	a5
    80003574:	fd843783          	ld	a5,-40(s0)
    80003578:	40f007b3          	neg	a5,a5
    8000357c:	fcf43c23          	sd	a5,-40(s0)
    80003580:	00a00793          	li	a5,10
    80003584:	fcf42a23          	sw	a5,-44(s0)
    80003588:	0640006f          	j	800035ec <vprintfmt+0x3b8>
    8000358c:	00a00793          	li	a5,10
    80003590:	fcf42a23          	sw	a5,-44(s0)
    80003594:	0400006f          	j	800035d4 <vprintfmt+0x3a0>
    80003598:	00800793          	li	a5,8
    8000359c:	fcf42a23          	sw	a5,-44(s0)
    800035a0:	0340006f          	j	800035d4 <vprintfmt+0x3a0>
    800035a4:	00100793          	li	a5,1
    800035a8:	fcf42823          	sw	a5,-48(s0)
    800035ac:	fa843783          	ld	a5,-88(s0)
    800035b0:	fa043583          	ld	a1,-96(s0)
    800035b4:	03000513          	li	a0,48
    800035b8:	000780e7          	jalr	a5
    800035bc:	fa843783          	ld	a5,-88(s0)
    800035c0:	fa043583          	ld	a1,-96(s0)
    800035c4:	07800513          	li	a0,120
    800035c8:	000780e7          	jalr	a5
    800035cc:	01000793          	li	a5,16
    800035d0:	fcf42a23          	sw	a5,-44(s0)
    800035d4:	fd042703          	lw	a4,-48(s0)
    800035d8:	f9040793          	addi	a5,s0,-112
    800035dc:	00070593          	mv	a1,a4
    800035e0:	00078513          	mv	a0,a5
    800035e4:	b21ff0ef          	jal	ra,80003104 <getuint>
    800035e8:	fca43c23          	sd	a0,-40(s0)
    800035ec:	fd442683          	lw	a3,-44(s0)
    800035f0:	fc744783          	lbu	a5,-57(s0)
    800035f4:	0007879b          	sext.w	a5,a5
    800035f8:	fcc42703          	lw	a4,-52(s0)
    800035fc:	fd843603          	ld	a2,-40(s0)
    80003600:	fa043583          	ld	a1,-96(s0)
    80003604:	fa843503          	ld	a0,-88(s0)
    80003608:	9b5ff0ef          	jal	ra,80002fbc <printnum>
    8000360c:	0340006f          	j	80003640 <vprintfmt+0x40c>
    80003610:	fa843783          	ld	a5,-88(s0)
    80003614:	fa043583          	ld	a1,-96(s0)
    80003618:	00048513          	mv	a0,s1
    8000361c:	000780e7          	jalr	a5
    80003620:	0200006f          	j	80003640 <vprintfmt+0x40c>
    80003624:	fa843783          	ld	a5,-88(s0)
    80003628:	fa043583          	ld	a1,-96(s0)
    8000362c:	02500513          	li	a0,37
    80003630:	000780e7          	jalr	a5
    80003634:	fb843783          	ld	a5,-72(s0)
    80003638:	f8f43c23          	sd	a5,-104(s0)
    8000363c:	00000013          	nop
    80003640:	c41ff06f          	j	80003280 <vprintfmt+0x4c>
    80003644:	00000013          	nop
    80003648:	06813083          	ld	ra,104(sp)
    8000364c:	06013403          	ld	s0,96(sp)
    80003650:	05813483          	ld	s1,88(sp)
    80003654:	05013903          	ld	s2,80(sp)
    80003658:	07010113          	addi	sp,sp,112
    8000365c:	00008067          	ret

0000000080003660 <printf>:
    80003660:	f9010113          	addi	sp,sp,-112
    80003664:	02113423          	sd	ra,40(sp)
    80003668:	02813023          	sd	s0,32(sp)
    8000366c:	03010413          	addi	s0,sp,48
    80003670:	fca43c23          	sd	a0,-40(s0)
    80003674:	00b43423          	sd	a1,8(s0)
    80003678:	00c43823          	sd	a2,16(s0)
    8000367c:	00d43c23          	sd	a3,24(s0)
    80003680:	02e43023          	sd	a4,32(s0)
    80003684:	02f43423          	sd	a5,40(s0)
    80003688:	03043823          	sd	a6,48(s0)
    8000368c:	03143c23          	sd	a7,56(s0)
    80003690:	04040793          	addi	a5,s0,64
    80003694:	fc878793          	addi	a5,a5,-56
    80003698:	fef43423          	sd	a5,-24(s0)
    8000369c:	fe843783          	ld	a5,-24(s0)
    800036a0:	00078693          	mv	a3,a5
    800036a4:	fd843603          	ld	a2,-40(s0)
    800036a8:	00000593          	li	a1,0
    800036ac:	fffff517          	auipc	a0,0xfffff
    800036b0:	72850513          	addi	a0,a0,1832 # 80002dd4 <putchar>
    800036b4:	b81ff0ef          	jal	ra,80003234 <vprintfmt>
    800036b8:	00000793          	li	a5,0
    800036bc:	00078513          	mv	a0,a5
    800036c0:	02813083          	ld	ra,40(sp)
    800036c4:	02013403          	ld	s0,32(sp)
    800036c8:	07010113          	addi	sp,sp,112
    800036cc:	00008067          	ret

00000000800036d0 <sprintf_putch.3133>:
    800036d0:	fc010113          	addi	sp,sp,-64
    800036d4:	02813c23          	sd	s0,56(sp)
    800036d8:	04010413          	addi	s0,sp,64
    800036dc:	00050793          	mv	a5,a0
    800036e0:	fcb43823          	sd	a1,-48(s0)
    800036e4:	fcf42e23          	sw	a5,-36(s0)
    800036e8:	fc743423          	sd	t2,-56(s0)
    800036ec:	fd043783          	ld	a5,-48(s0)
    800036f0:	fef43423          	sd	a5,-24(s0)
    800036f4:	fe843783          	ld	a5,-24(s0)
    800036f8:	0007b783          	ld	a5,0(a5)
    800036fc:	fdc42703          	lw	a4,-36(s0)
    80003700:	0ff77713          	andi	a4,a4,255
    80003704:	00e78023          	sb	a4,0(a5)
    80003708:	fe843783          	ld	a5,-24(s0)
    8000370c:	0007b783          	ld	a5,0(a5)
    80003710:	00178713          	addi	a4,a5,1
    80003714:	fe843783          	ld	a5,-24(s0)
    80003718:	00e7b023          	sd	a4,0(a5)
    8000371c:	00000013          	nop
    80003720:	03813403          	ld	s0,56(sp)
    80003724:	04010113          	addi	sp,sp,64
    80003728:	00008067          	ret

000000008000372c <sprintf>:
    8000372c:	f0010113          	addi	sp,sp,-256
    80003730:	0c113423          	sd	ra,200(sp)
    80003734:	0c813023          	sd	s0,192(sp)
    80003738:	0d010413          	addi	s0,sp,208
    8000373c:	f2a43c23          	sd	a0,-200(s0)
    80003740:	f2b43823          	sd	a1,-208(s0)
    80003744:	00c43023          	sd	a2,0(s0)
    80003748:	00d43423          	sd	a3,8(s0)
    8000374c:	00e43823          	sd	a4,16(s0)
    80003750:	00f43c23          	sd	a5,24(s0)
    80003754:	03043023          	sd	a6,32(s0)
    80003758:	03143423          	sd	a7,40(s0)
    8000375c:	03040793          	addi	a5,s0,48
    80003760:	fcf43c23          	sd	a5,-40(s0)
    80003764:	f4840793          	addi	a5,s0,-184
    80003768:	f4840713          	addi	a4,s0,-184
    8000376c:	39700693          	li	a3,919
    80003770:	00d7a023          	sw	a3,0(a5)
    80003774:	0183b6b7          	lui	a3,0x183b
    80003778:	3036869b          	addiw	a3,a3,771
    8000377c:	00d7a223          	sw	a3,4(a5)
    80003780:	0103b6b7          	lui	a3,0x103b
    80003784:	3836869b          	addiw	a3,a3,899
    80003788:	00d7a423          	sw	a3,8(a5)
    8000378c:	000306b7          	lui	a3,0x30
    80003790:	0676869b          	addiw	a3,a3,103
    80003794:	00d7a623          	sw	a3,12(a5)
    80003798:	00e7b823          	sd	a4,16(a5)
    8000379c:	00000717          	auipc	a4,0x0
    800037a0:	f3470713          	addi	a4,a4,-204 # 800036d0 <sprintf_putch.3133>
    800037a4:	00e7bc23          	sd	a4,24(a5)
    800037a8:	0000100f          	fence.i
    800037ac:	f3843783          	ld	a5,-200(s0)
    800037b0:	fef43423          	sd	a5,-24(s0)
    800037b4:	03040793          	addi	a5,s0,48
    800037b8:	fd078793          	addi	a5,a5,-48
    800037bc:	fef43023          	sd	a5,-32(s0)
    800037c0:	fe043703          	ld	a4,-32(s0)
    800037c4:	f4840793          	addi	a5,s0,-184
    800037c8:	00078513          	mv	a0,a5
    800037cc:	f3840793          	addi	a5,s0,-200
    800037d0:	00070693          	mv	a3,a4
    800037d4:	f3043603          	ld	a2,-208(s0)
    800037d8:	00078593          	mv	a1,a5
    800037dc:	a59ff0ef          	jal	ra,80003234 <vprintfmt>
    800037e0:	f3843783          	ld	a5,-200(s0)
    800037e4:	00078023          	sb	zero,0(a5)
    800037e8:	f3843703          	ld	a4,-200(s0)
    800037ec:	fe843783          	ld	a5,-24(s0)
    800037f0:	40f707b3          	sub	a5,a4,a5
    800037f4:	0007879b          	sext.w	a5,a5
    800037f8:	00078513          	mv	a0,a5
    800037fc:	0c813083          	ld	ra,200(sp)
    80003800:	0c013403          	ld	s0,192(sp)
    80003804:	10010113          	addi	sp,sp,256
    80003808:	00008067          	ret

000000008000380c <strlen>:
    8000380c:	fd010113          	addi	sp,sp,-48
    80003810:	02813423          	sd	s0,40(sp)
    80003814:	03010413          	addi	s0,sp,48
    80003818:	fca43c23          	sd	a0,-40(s0)
    8000381c:	fd843783          	ld	a5,-40(s0)
    80003820:	fef43423          	sd	a5,-24(s0)
    80003824:	0100006f          	j	80003834 <strlen+0x28>
    80003828:	fe843783          	ld	a5,-24(s0)
    8000382c:	00178793          	addi	a5,a5,1
    80003830:	fef43423          	sd	a5,-24(s0)
    80003834:	fe843783          	ld	a5,-24(s0)
    80003838:	0007c783          	lbu	a5,0(a5)
    8000383c:	fe0796e3          	bnez	a5,80003828 <strlen+0x1c>
    80003840:	fe843703          	ld	a4,-24(s0)
    80003844:	fd843783          	ld	a5,-40(s0)
    80003848:	40f707b3          	sub	a5,a4,a5
    8000384c:	00078513          	mv	a0,a5
    80003850:	02813403          	ld	s0,40(sp)
    80003854:	03010113          	addi	sp,sp,48
    80003858:	00008067          	ret

000000008000385c <strnlen>:
    8000385c:	fd010113          	addi	sp,sp,-48
    80003860:	02813423          	sd	s0,40(sp)
    80003864:	03010413          	addi	s0,sp,48
    80003868:	fca43c23          	sd	a0,-40(s0)
    8000386c:	fcb43823          	sd	a1,-48(s0)
    80003870:	fd843783          	ld	a5,-40(s0)
    80003874:	fef43423          	sd	a5,-24(s0)
    80003878:	0100006f          	j	80003888 <strnlen+0x2c>
    8000387c:	fe843783          	ld	a5,-24(s0)
    80003880:	00178793          	addi	a5,a5,1
    80003884:	fef43423          	sd	a5,-24(s0)
    80003888:	fd043783          	ld	a5,-48(s0)
    8000388c:	fff78713          	addi	a4,a5,-1
    80003890:	fce43823          	sd	a4,-48(s0)
    80003894:	00078863          	beqz	a5,800038a4 <strnlen+0x48>
    80003898:	fe843783          	ld	a5,-24(s0)
    8000389c:	0007c783          	lbu	a5,0(a5)
    800038a0:	fc079ee3          	bnez	a5,8000387c <strnlen+0x20>
    800038a4:	fe843703          	ld	a4,-24(s0)
    800038a8:	fd843783          	ld	a5,-40(s0)
    800038ac:	40f707b3          	sub	a5,a4,a5
    800038b0:	00078513          	mv	a0,a5
    800038b4:	02813403          	ld	s0,40(sp)
    800038b8:	03010113          	addi	sp,sp,48
    800038bc:	00008067          	ret

00000000800038c0 <strcmp>:
    800038c0:	fd010113          	addi	sp,sp,-48
    800038c4:	02813423          	sd	s0,40(sp)
    800038c8:	03010413          	addi	s0,sp,48
    800038cc:	fca43c23          	sd	a0,-40(s0)
    800038d0:	fcb43823          	sd	a1,-48(s0)
    800038d4:	fd843783          	ld	a5,-40(s0)
    800038d8:	00178713          	addi	a4,a5,1
    800038dc:	fce43c23          	sd	a4,-40(s0)
    800038e0:	0007c783          	lbu	a5,0(a5)
    800038e4:	fef407a3          	sb	a5,-17(s0)
    800038e8:	fd043783          	ld	a5,-48(s0)
    800038ec:	00178713          	addi	a4,a5,1
    800038f0:	fce43823          	sd	a4,-48(s0)
    800038f4:	0007c783          	lbu	a5,0(a5)
    800038f8:	fef40723          	sb	a5,-18(s0)
    800038fc:	fef44783          	lbu	a5,-17(s0)
    80003900:	0ff7f793          	andi	a5,a5,255
    80003904:	00078c63          	beqz	a5,8000391c <strcmp+0x5c>
    80003908:	fef44703          	lbu	a4,-17(s0)
    8000390c:	fee44783          	lbu	a5,-18(s0)
    80003910:	0ff77713          	andi	a4,a4,255
    80003914:	0ff7f793          	andi	a5,a5,255
    80003918:	faf70ee3          	beq	a4,a5,800038d4 <strcmp+0x14>
    8000391c:	fef44783          	lbu	a5,-17(s0)
    80003920:	0007871b          	sext.w	a4,a5
    80003924:	fee44783          	lbu	a5,-18(s0)
    80003928:	0007879b          	sext.w	a5,a5
    8000392c:	40f707bb          	subw	a5,a4,a5
    80003930:	0007879b          	sext.w	a5,a5
    80003934:	00078513          	mv	a0,a5
    80003938:	02813403          	ld	s0,40(sp)
    8000393c:	03010113          	addi	sp,sp,48
    80003940:	00008067          	ret

0000000080003944 <strcpy>:
    80003944:	fd010113          	addi	sp,sp,-48
    80003948:	02813423          	sd	s0,40(sp)
    8000394c:	03010413          	addi	s0,sp,48
    80003950:	fca43c23          	sd	a0,-40(s0)
    80003954:	fcb43823          	sd	a1,-48(s0)
    80003958:	fd843783          	ld	a5,-40(s0)
    8000395c:	fef43423          	sd	a5,-24(s0)
    80003960:	00000013          	nop
    80003964:	fd043703          	ld	a4,-48(s0)
    80003968:	00170793          	addi	a5,a4,1
    8000396c:	fcf43823          	sd	a5,-48(s0)
    80003970:	fe843783          	ld	a5,-24(s0)
    80003974:	00178693          	addi	a3,a5,1
    80003978:	fed43423          	sd	a3,-24(s0)
    8000397c:	00074703          	lbu	a4,0(a4)
    80003980:	00e78023          	sb	a4,0(a5)
    80003984:	0007c783          	lbu	a5,0(a5)
    80003988:	fc079ee3          	bnez	a5,80003964 <strcpy+0x20>
    8000398c:	fd843783          	ld	a5,-40(s0)
    80003990:	00078513          	mv	a0,a5
    80003994:	02813403          	ld	s0,40(sp)
    80003998:	03010113          	addi	sp,sp,48
    8000399c:	00008067          	ret

00000000800039a0 <atol>:
    800039a0:	fd010113          	addi	sp,sp,-48
    800039a4:	02813423          	sd	s0,40(sp)
    800039a8:	03010413          	addi	s0,sp,48
    800039ac:	fca43c23          	sd	a0,-40(s0)
    800039b0:	fe043423          	sd	zero,-24(s0)
    800039b4:	fe042223          	sw	zero,-28(s0)
    800039b8:	0100006f          	j	800039c8 <atol+0x28>
    800039bc:	fd843783          	ld	a5,-40(s0)
    800039c0:	00178793          	addi	a5,a5,1
    800039c4:	fcf43c23          	sd	a5,-40(s0)
    800039c8:	fd843783          	ld	a5,-40(s0)
    800039cc:	0007c783          	lbu	a5,0(a5)
    800039d0:	00078713          	mv	a4,a5
    800039d4:	02000793          	li	a5,32
    800039d8:	fef702e3          	beq	a4,a5,800039bc <atol+0x1c>
    800039dc:	fd843783          	ld	a5,-40(s0)
    800039e0:	0007c783          	lbu	a5,0(a5)
    800039e4:	00078713          	mv	a4,a5
    800039e8:	02d00793          	li	a5,45
    800039ec:	00f70c63          	beq	a4,a5,80003a04 <atol+0x64>
    800039f0:	fd843783          	ld	a5,-40(s0)
    800039f4:	0007c783          	lbu	a5,0(a5)
    800039f8:	00078713          	mv	a4,a5
    800039fc:	02b00793          	li	a5,43
    80003a00:	06f71c63          	bne	a4,a5,80003a78 <atol+0xd8>
    80003a04:	fd843783          	ld	a5,-40(s0)
    80003a08:	0007c783          	lbu	a5,0(a5)
    80003a0c:	0007871b          	sext.w	a4,a5
    80003a10:	02d00793          	li	a5,45
    80003a14:	40f707b3          	sub	a5,a4,a5
    80003a18:	0017b793          	seqz	a5,a5
    80003a1c:	0ff7f793          	andi	a5,a5,255
    80003a20:	fef42223          	sw	a5,-28(s0)
    80003a24:	fd843783          	ld	a5,-40(s0)
    80003a28:	00178793          	addi	a5,a5,1
    80003a2c:	fcf43c23          	sd	a5,-40(s0)
    80003a30:	0480006f          	j	80003a78 <atol+0xd8>
    80003a34:	fe843703          	ld	a4,-24(s0)
    80003a38:	00070793          	mv	a5,a4
    80003a3c:	00279793          	slli	a5,a5,0x2
    80003a40:	00e787b3          	add	a5,a5,a4
    80003a44:	00179793          	slli	a5,a5,0x1
    80003a48:	fef43423          	sd	a5,-24(s0)
    80003a4c:	fd843783          	ld	a5,-40(s0)
    80003a50:	00178713          	addi	a4,a5,1
    80003a54:	fce43c23          	sd	a4,-40(s0)
    80003a58:	0007c783          	lbu	a5,0(a5)
    80003a5c:	0007879b          	sext.w	a5,a5
    80003a60:	fd07879b          	addiw	a5,a5,-48
    80003a64:	0007879b          	sext.w	a5,a5
    80003a68:	00078713          	mv	a4,a5
    80003a6c:	fe843783          	ld	a5,-24(s0)
    80003a70:	00e787b3          	add	a5,a5,a4
    80003a74:	fef43423          	sd	a5,-24(s0)
    80003a78:	fd843783          	ld	a5,-40(s0)
    80003a7c:	0007c783          	lbu	a5,0(a5)
    80003a80:	fa079ae3          	bnez	a5,80003a34 <atol+0x94>
    80003a84:	fe442783          	lw	a5,-28(s0)
    80003a88:	0007879b          	sext.w	a5,a5
    80003a8c:	00078863          	beqz	a5,80003a9c <atol+0xfc>
    80003a90:	fe843783          	ld	a5,-24(s0)
    80003a94:	40f007b3          	neg	a5,a5
    80003a98:	0080006f          	j	80003aa0 <atol+0x100>
    80003a9c:	fe843783          	ld	a5,-24(s0)
    80003aa0:	00078513          	mv	a0,a5
    80003aa4:	02813403          	ld	s0,40(sp)
    80003aa8:	03010113          	addi	sp,sp,48
    80003aac:	00008067          	ret
