
./I2C/outputs//i2c_eeprom_write.shakti:     file format elf64-littleriscv


Disassembly of section .text.init:

0000000080000000 <_start>:
    80000000:	00000093          	li	ra,0
    80000004:	00000113          	li	sp,0
    80000008:	00000193          	li	gp,0
    8000000c:	00000213          	li	tp,0
    80000010:	00000293          	li	t0,0
    80000014:	00000313          	li	t1,0
    80000018:	00000393          	li	t2,0
    8000001c:	00000413          	li	s0,0
    80000020:	00000493          	li	s1,0
    80000024:	00000513          	li	a0,0
    80000028:	00000593          	li	a1,0
    8000002c:	00000613          	li	a2,0
    80000030:	00000693          	li	a3,0
    80000034:	00000713          	li	a4,0
    80000038:	00000793          	li	a5,0
    8000003c:	00000813          	li	a6,0
    80000040:	00000893          	li	a7,0
    80000044:	00000913          	li	s2,0
    80000048:	00000993          	li	s3,0
    8000004c:	00000a13          	li	s4,0
    80000050:	00000a93          	li	s5,0
    80000054:	00000b13          	li	s6,0
    80000058:	00000b93          	li	s7,0
    8000005c:	00000c13          	li	s8,0
    80000060:	00000c93          	li	s9,0
    80000064:	00000d13          	li	s10,0
    80000068:	00000d93          	li	s11,0
    8000006c:	00000e13          	li	t3,0
    80000070:	00000e93          	li	t4,0
    80000074:	00000f13          	li	t5,0
    80000078:	00000f93          	li	t6,0
    8000007c:	0001e2b7          	lui	t0,0x1e
    80000080:	3002a073          	csrs	mstatus,t0
    80000084:	00100293          	li	t0,1
    80000088:	01f29293          	slli	t0,t0,0x1f
    8000008c:	0002da63          	bgez	t0,800000a0 <_start+0xa0>
    80000090:	00100513          	li	a0,1
    80000094:	00001297          	auipc	t0,0x1
    80000098:	f6a2a623          	sw	a0,-148(t0) # 80001000 <tohost>
    8000009c:	ff5ff06f          	j	80000090 <_start+0x90>
    800000a0:	00000297          	auipc	t0,0x0
    800000a4:	09028293          	addi	t0,t0,144 # 80000130 <_start+0x130>
    800000a8:	30529073          	csrw	mtvec,t0
    800000ac:	00301073          	fssr	zero
    800000b0:	f0000053          	fmv.s.x	ft0,zero
    800000b4:	f00000d3          	fmv.s.x	ft1,zero
    800000b8:	f0000153          	fmv.s.x	ft2,zero
    800000bc:	f00001d3          	fmv.s.x	ft3,zero
    800000c0:	f0000253          	fmv.s.x	ft4,zero
    800000c4:	f00002d3          	fmv.s.x	ft5,zero
    800000c8:	f0000353          	fmv.s.x	ft6,zero
    800000cc:	f00003d3          	fmv.s.x	ft7,zero
    800000d0:	f0000453          	fmv.s.x	fs0,zero
    800000d4:	f00004d3          	fmv.s.x	fs1,zero
    800000d8:	f0000553          	fmv.s.x	fa0,zero
    800000dc:	f00005d3          	fmv.s.x	fa1,zero
    800000e0:	f0000653          	fmv.s.x	fa2,zero
    800000e4:	f00006d3          	fmv.s.x	fa3,zero
    800000e8:	f0000753          	fmv.s.x	fa4,zero
    800000ec:	f00007d3          	fmv.s.x	fa5,zero
    800000f0:	f0000853          	fmv.s.x	fa6,zero
    800000f4:	f00008d3          	fmv.s.x	fa7,zero
    800000f8:	f0000953          	fmv.s.x	fs2,zero
    800000fc:	f00009d3          	fmv.s.x	fs3,zero
    80000100:	f0000a53          	fmv.s.x	fs4,zero
    80000104:	f0000ad3          	fmv.s.x	fs5,zero
    80000108:	f0000b53          	fmv.s.x	fs6,zero
    8000010c:	f0000bd3          	fmv.s.x	fs7,zero
    80000110:	f0000c53          	fmv.s.x	fs8,zero
    80000114:	f0000cd3          	fmv.s.x	fs9,zero
    80000118:	f0000d53          	fmv.s.x	fs10,zero
    8000011c:	f0000dd3          	fmv.s.x	fs11,zero
    80000120:	f0000e53          	fmv.s.x	ft8,zero
    80000124:	f0000ed3          	fmv.s.x	ft9,zero
    80000128:	f0000f53          	fmv.s.x	ft10,zero
    8000012c:	f0000fd3          	fmv.s.x	ft11,zero
    80000130:	00000297          	auipc	t0,0x0
    80000134:	04028293          	addi	t0,t0,64 # 80000170 <trap_entry>
    80000138:	30529073          	csrw	mtvec,t0
    8000013c:	00008197          	auipc	gp,0x8
    80000140:	05c18193          	addi	gp,gp,92 # 80008198 <__global_pointer$>
    80000144:	89718213          	addi	tp,gp,-1897 # 80007a2f <_end+0x3f>
    80000148:	fc027213          	andi	tp,tp,-64
    8000014c:	f1402573          	csrr	a0,mhartid
    80000150:	00100593          	li	a1,1
    80000154:	00b57063          	bleu	a1,a0,80000154 <_start+0x154>
    80000158:	00c51613          	slli	a2,a0,0xc
    8000015c:	00c20233          	add	tp,tp,a2
    80000160:	00150113          	addi	sp,a0,1
    80000164:	00c11113          	slli	sp,sp,0xc
    80000168:	00410133          	add	sp,sp,tp
    8000016c:	34c0206f          	j	800024b8 <_init>

0000000080000170 <trap_entry>:
    80000170:	ef010113          	addi	sp,sp,-272
    80000174:	00113423          	sd	ra,8(sp)
    80000178:	00213823          	sd	sp,16(sp)
    8000017c:	00313c23          	sd	gp,24(sp)
    80000180:	02413023          	sd	tp,32(sp)
    80000184:	02513423          	sd	t0,40(sp)
    80000188:	02613823          	sd	t1,48(sp)
    8000018c:	02713c23          	sd	t2,56(sp)
    80000190:	04813023          	sd	s0,64(sp)
    80000194:	04913423          	sd	s1,72(sp)
    80000198:	04a13823          	sd	a0,80(sp)
    8000019c:	04b13c23          	sd	a1,88(sp)
    800001a0:	06c13023          	sd	a2,96(sp)
    800001a4:	06d13423          	sd	a3,104(sp)
    800001a8:	06e13823          	sd	a4,112(sp)
    800001ac:	06f13c23          	sd	a5,120(sp)
    800001b0:	09013023          	sd	a6,128(sp)
    800001b4:	09113423          	sd	a7,136(sp)
    800001b8:	09213823          	sd	s2,144(sp)
    800001bc:	09313c23          	sd	s3,152(sp)
    800001c0:	0b413023          	sd	s4,160(sp)
    800001c4:	0b513423          	sd	s5,168(sp)
    800001c8:	0b613823          	sd	s6,176(sp)
    800001cc:	0b713c23          	sd	s7,184(sp)
    800001d0:	0d813023          	sd	s8,192(sp)
    800001d4:	0d913423          	sd	s9,200(sp)
    800001d8:	0da13823          	sd	s10,208(sp)
    800001dc:	0db13c23          	sd	s11,216(sp)
    800001e0:	0fc13023          	sd	t3,224(sp)
    800001e4:	0fd13423          	sd	t4,232(sp)
    800001e8:	0fe13823          	sd	t5,240(sp)
    800001ec:	0ff13c23          	sd	t6,248(sp)
    800001f0:	34202573          	csrr	a0,mcause
    800001f4:	341025f3          	csrr	a1,mepc
    800001f8:	00010613          	mv	a2,sp
    800001fc:	6b8010ef          	jal	ra,800018b4 <handle_trap>
    80000200:	34151073          	csrw	mepc,a0
    80000204:	000022b7          	lui	t0,0x2
    80000208:	8002829b          	addiw	t0,t0,-2048
    8000020c:	3002a073          	csrs	mstatus,t0
    80000210:	00813083          	ld	ra,8(sp)
    80000214:	01013103          	ld	sp,16(sp)
    80000218:	01813183          	ld	gp,24(sp)
    8000021c:	02013203          	ld	tp,32(sp)
    80000220:	02813283          	ld	t0,40(sp)
    80000224:	03013303          	ld	t1,48(sp)
    80000228:	03813383          	ld	t2,56(sp)
    8000022c:	04013403          	ld	s0,64(sp)
    80000230:	04813483          	ld	s1,72(sp)
    80000234:	05013503          	ld	a0,80(sp)
    80000238:	05813583          	ld	a1,88(sp)
    8000023c:	06013603          	ld	a2,96(sp)
    80000240:	06813683          	ld	a3,104(sp)
    80000244:	07013703          	ld	a4,112(sp)
    80000248:	07813783          	ld	a5,120(sp)
    8000024c:	08013803          	ld	a6,128(sp)
    80000250:	08813883          	ld	a7,136(sp)
    80000254:	09013903          	ld	s2,144(sp)
    80000258:	09813983          	ld	s3,152(sp)
    8000025c:	0a013a03          	ld	s4,160(sp)
    80000260:	0a813a83          	ld	s5,168(sp)
    80000264:	0b013b03          	ld	s6,176(sp)
    80000268:	0b813b83          	ld	s7,184(sp)
    8000026c:	0c013c03          	ld	s8,192(sp)
    80000270:	0c813c83          	ld	s9,200(sp)
    80000274:	0d013d03          	ld	s10,208(sp)
    80000278:	0d813d83          	ld	s11,216(sp)
    8000027c:	0e013e03          	ld	t3,224(sp)
    80000280:	0e813e83          	ld	t4,232(sp)
    80000284:	0f013f03          	ld	t5,240(sp)
    80000288:	0f813f83          	ld	t6,248(sp)
    8000028c:	11010113          	addi	sp,sp,272
    80000290:	30200073          	mret

Disassembly of section .tohost:

0000000080001000 <tohost>:
	...

0000000080001040 <fromhost>:
	...

Disassembly of section .text:

0000000080001048 <get_i2c_shakti>:
    80001048:	fe010113          	addi	sp,sp,-32
    8000104c:	00813c23          	sd	s0,24(sp)
    80001050:	02010413          	addi	s0,sp,32
    80001054:	fea43423          	sd	a0,-24(s0)
    80001058:	fe843783          	ld	a5,-24(s0)
    8000105c:	0007a783          	lw	a5,0(a5)
    80001060:	00078513          	mv	a0,a5
    80001064:	01813403          	ld	s0,24(sp)
    80001068:	02010113          	addi	sp,sp,32
    8000106c:	00008067          	ret

0000000080001070 <set_i2c_shakti>:
    80001070:	fe010113          	addi	sp,sp,-32
    80001074:	00813c23          	sd	s0,24(sp)
    80001078:	02010413          	addi	s0,sp,32
    8000107c:	fea43423          	sd	a0,-24(s0)
    80001080:	00058793          	mv	a5,a1
    80001084:	fef42223          	sw	a5,-28(s0)
    80001088:	fe843783          	ld	a5,-24(s0)
    8000108c:	fe442703          	lw	a4,-28(s0)
    80001090:	00e7a023          	sw	a4,0(a5)
    80001094:	00000013          	nop
    80001098:	01813403          	ld	s0,24(sp)
    8000109c:	02010113          	addi	sp,sp,32
    800010a0:	00008067          	ret

00000000800010a4 <waitfor>:
    800010a4:	fd010113          	addi	sp,sp,-48
    800010a8:	02813423          	sd	s0,40(sp)
    800010ac:	03010413          	addi	s0,sp,48
    800010b0:	00050793          	mv	a5,a0
    800010b4:	fcf42e23          	sw	a5,-36(s0)
    800010b8:	fe042623          	sw	zero,-20(s0)
    800010bc:	00000013          	nop
    800010c0:	fec42783          	lw	a5,-20(s0)
    800010c4:	0017871b          	addiw	a4,a5,1
    800010c8:	fee42623          	sw	a4,-20(s0)
    800010cc:	fdc42703          	lw	a4,-36(s0)
    800010d0:	0007071b          	sext.w	a4,a4
    800010d4:	fee7e6e3          	bltu	a5,a4,800010c0 <waitfor+0x1c>
    800010d8:	00000013          	nop
    800010dc:	02813403          	ld	s0,40(sp)
    800010e0:	03010113          	addi	sp,sp,48
    800010e4:	00008067          	ret

00000000800010e8 <i2c_start>:
    800010e8:	ff010113          	addi	sp,sp,-16
    800010ec:	00113423          	sd	ra,8(sp)
    800010f0:	00813023          	sd	s0,0(sp)
    800010f4:	01010413          	addi	s0,sp,16
    800010f8:	00007797          	auipc	a5,0x7
    800010fc:	8a078793          	addi	a5,a5,-1888 # 80007998 <i2c_control>
    80001100:	0007b783          	ld	a5,0(a5)
    80001104:	0c500593          	li	a1,197
    80001108:	00078513          	mv	a0,a5
    8000110c:	f65ff0ef          	jal	ra,80001070 <set_i2c_shakti>
    80001110:	00000013          	nop
    80001114:	00813083          	ld	ra,8(sp)
    80001118:	00013403          	ld	s0,0(sp)
    8000111c:	01010113          	addi	sp,sp,16
    80001120:	00008067          	ret

0000000080001124 <i2c_start_eni>:
    80001124:	ff010113          	addi	sp,sp,-16
    80001128:	00113423          	sd	ra,8(sp)
    8000112c:	00813023          	sd	s0,0(sp)
    80001130:	01010413          	addi	s0,sp,16
    80001134:	00007797          	auipc	a5,0x7
    80001138:	86478793          	addi	a5,a5,-1948 # 80007998 <i2c_control>
    8000113c:	0007b783          	ld	a5,0(a5)
    80001140:	0c500593          	li	a1,197
    80001144:	00078513          	mv	a0,a5
    80001148:	f29ff0ef          	jal	ra,80001070 <set_i2c_shakti>
    8000114c:	00000013          	nop
    80001150:	00813083          	ld	ra,8(sp)
    80001154:	00013403          	ld	s0,0(sp)
    80001158:	01010113          	addi	sp,sp,16
    8000115c:	00008067          	ret

0000000080001160 <i2c_repstart>:
    80001160:	ff010113          	addi	sp,sp,-16
    80001164:	00113423          	sd	ra,8(sp)
    80001168:	00813023          	sd	s0,0(sp)
    8000116c:	01010413          	addi	s0,sp,16
    80001170:	00007797          	auipc	a5,0x7
    80001174:	82878793          	addi	a5,a5,-2008 # 80007998 <i2c_control>
    80001178:	0007b783          	ld	a5,0(a5)
    8000117c:	04500593          	li	a1,69
    80001180:	00078513          	mv	a0,a5
    80001184:	eedff0ef          	jal	ra,80001070 <set_i2c_shakti>
    80001188:	00000013          	nop
    8000118c:	00813083          	ld	ra,8(sp)
    80001190:	00013403          	ld	s0,0(sp)
    80001194:	01010113          	addi	sp,sp,16
    80001198:	00008067          	ret

000000008000119c <i2c_repstart_eni>:
    8000119c:	ff010113          	addi	sp,sp,-16
    800011a0:	00113423          	sd	ra,8(sp)
    800011a4:	00813023          	sd	s0,0(sp)
    800011a8:	01010413          	addi	s0,sp,16
    800011ac:	00006797          	auipc	a5,0x6
    800011b0:	7ec78793          	addi	a5,a5,2028 # 80007998 <i2c_control>
    800011b4:	0007b783          	ld	a5,0(a5)
    800011b8:	04500593          	li	a1,69
    800011bc:	00078513          	mv	a0,a5
    800011c0:	eb1ff0ef          	jal	ra,80001070 <set_i2c_shakti>
    800011c4:	00000013          	nop
    800011c8:	00813083          	ld	ra,8(sp)
    800011cc:	00013403          	ld	s0,0(sp)
    800011d0:	01010113          	addi	sp,sp,16
    800011d4:	00008067          	ret

00000000800011d8 <i2c_stop>:
    800011d8:	ff010113          	addi	sp,sp,-16
    800011dc:	00113423          	sd	ra,8(sp)
    800011e0:	00813023          	sd	s0,0(sp)
    800011e4:	01010413          	addi	s0,sp,16
    800011e8:	00006797          	auipc	a5,0x6
    800011ec:	7b078793          	addi	a5,a5,1968 # 80007998 <i2c_control>
    800011f0:	0007b783          	ld	a5,0(a5)
    800011f4:	0c300593          	li	a1,195
    800011f8:	00078513          	mv	a0,a5
    800011fc:	e75ff0ef          	jal	ra,80001070 <set_i2c_shakti>
    80001200:	00000013          	nop
    80001204:	00813083          	ld	ra,8(sp)
    80001208:	00013403          	ld	s0,0(sp)
    8000120c:	01010113          	addi	sp,sp,16
    80001210:	00008067          	ret

0000000080001214 <shakti_init_i2c>:
    80001214:	fe010113          	addi	sp,sp,-32
    80001218:	00113c23          	sd	ra,24(sp)
    8000121c:	00813823          	sd	s0,16(sp)
    80001220:	02010413          	addi	s0,sp,32
    80001224:	fe0407a3          	sb	zero,-17(s0)
    80001228:	00002517          	auipc	a0,0x2
    8000122c:	f2850513          	addi	a0,a0,-216 # 80003150 <atol+0x114>
    80001230:	2c9010ef          	jal	ra,80002cf8 <printf>
    80001234:	81818793          	addi	a5,gp,-2024 # 800079b0 <i2c_prescale>
    80001238:	0007b783          	ld	a5,0(a5)
    8000123c:	01f00593          	li	a1,31
    80001240:	00078513          	mv	a0,a5
    80001244:	e2dff0ef          	jal	ra,80001070 <set_i2c_shakti>
    80001248:	81818793          	addi	a5,gp,-2024 # 800079b0 <i2c_prescale>
    8000124c:	0007b783          	ld	a5,0(a5)
    80001250:	00078513          	mv	a0,a5
    80001254:	df5ff0ef          	jal	ra,80001048 <get_i2c_shakti>
    80001258:	00050793          	mv	a5,a0
    8000125c:	fef407a3          	sb	a5,-17(s0)
    80001260:	82018793          	addi	a5,gp,-2016 # 800079b8 <i2c_scl>
    80001264:	0007b783          	ld	a5,0(a5)
    80001268:	09100593          	li	a1,145
    8000126c:	00078513          	mv	a0,a5
    80001270:	e01ff0ef          	jal	ra,80001070 <set_i2c_shakti>
    80001274:	82018793          	addi	a5,gp,-2016 # 800079b8 <i2c_scl>
    80001278:	0007b783          	ld	a5,0(a5)
    8000127c:	00078513          	mv	a0,a5
    80001280:	dc9ff0ef          	jal	ra,80001048 <get_i2c_shakti>
    80001284:	00050793          	mv	a5,a0
    80001288:	fef407a3          	sb	a5,-17(s0)
    8000128c:	fef44783          	lbu	a5,-17(s0)
    80001290:	0ff7f713          	andi	a4,a5,255
    80001294:	09100793          	li	a5,145
    80001298:	02f70263          	beq	a4,a5,800012bc <shakti_init_i2c+0xa8>
    8000129c:	fef44783          	lbu	a5,-17(s0)
    800012a0:	0007879b          	sext.w	a5,a5
    800012a4:	00078593          	mv	a1,a5
    800012a8:	00002517          	auipc	a0,0x2
    800012ac:	ed050513          	addi	a0,a0,-304 # 80003178 <atol+0x13c>
    800012b0:	249010ef          	jal	ra,80002cf8 <printf>
    800012b4:	05200793          	li	a5,82
    800012b8:	14c0006f          	j	80001404 <shakti_init_i2c+0x1f0>
    800012bc:	00002517          	auipc	a0,0x2
    800012c0:	f0450513          	addi	a0,a0,-252 # 800031c0 <atol+0x184>
    800012c4:	235010ef          	jal	ra,80002cf8 <printf>
    800012c8:	00002517          	auipc	a0,0x2
    800012cc:	f1850513          	addi	a0,a0,-232 # 800031e0 <atol+0x1a4>
    800012d0:	229010ef          	jal	ra,80002cf8 <printf>
    800012d4:	00006797          	auipc	a5,0x6
    800012d8:	6c478793          	addi	a5,a5,1732 # 80007998 <i2c_control>
    800012dc:	0007b783          	ld	a5,0(a5)
    800012e0:	08000593          	li	a1,128
    800012e4:	00078513          	mv	a0,a5
    800012e8:	d89ff0ef          	jal	ra,80001070 <set_i2c_shakti>
    800012ec:	00002517          	auipc	a0,0x2
    800012f0:	f1c50513          	addi	a0,a0,-228 # 80003208 <atol+0x1cc>
    800012f4:	205010ef          	jal	ra,80002cf8 <printf>
    800012f8:	00002517          	auipc	a0,0x2
    800012fc:	f3850513          	addi	a0,a0,-200 # 80003230 <atol+0x1f4>
    80001300:	1f9010ef          	jal	ra,80002cf8 <printf>
    80001304:	00006797          	auipc	a5,0x6
    80001308:	69478793          	addi	a5,a5,1684 # 80007998 <i2c_control>
    8000130c:	0007b783          	ld	a5,0(a5)
    80001310:	00078513          	mv	a0,a5
    80001314:	d35ff0ef          	jal	ra,80001048 <get_i2c_shakti>
    80001318:	00050793          	mv	a5,a0
    8000131c:	fef407a3          	sb	a5,-17(s0)
    80001320:	fef44783          	lbu	a5,-17(s0)
    80001324:	0007879b          	sext.w	a5,a5
    80001328:	00078593          	mv	a1,a5
    8000132c:	00002517          	auipc	a0,0x2
    80001330:	f2450513          	addi	a0,a0,-220 # 80003250 <atol+0x214>
    80001334:	1c5010ef          	jal	ra,80002cf8 <printf>
    80001338:	fef44783          	lbu	a5,-17(s0)
    8000133c:	0007879b          	sext.w	a5,a5
    80001340:	07f7f793          	andi	a5,a5,127
    80001344:	0007879b          	sext.w	a5,a5
    80001348:	00078c63          	beqz	a5,80001360 <shakti_init_i2c+0x14c>
    8000134c:	00002517          	auipc	a0,0x2
    80001350:	f3450513          	addi	a0,a0,-204 # 80003280 <atol+0x244>
    80001354:	1a5010ef          	jal	ra,80002cf8 <printf>
    80001358:	05200793          	li	a5,82
    8000135c:	0a80006f          	j	80001404 <shakti_init_i2c+0x1f0>
    80001360:	00002517          	auipc	a0,0x2
    80001364:	f3850513          	addi	a0,a0,-200 # 80003298 <atol+0x25c>
    80001368:	191010ef          	jal	ra,80002cf8 <printf>
    8000136c:	38400513          	li	a0,900
    80001370:	d35ff0ef          	jal	ra,800010a4 <waitfor>
    80001374:	00002517          	auipc	a0,0x2
    80001378:	f4450513          	addi	a0,a0,-188 # 800032b8 <atol+0x27c>
    8000137c:	17d010ef          	jal	ra,80002cf8 <printf>
    80001380:	00006797          	auipc	a5,0x6
    80001384:	61878793          	addi	a5,a5,1560 # 80007998 <i2c_control>
    80001388:	0007b783          	ld	a5,0(a5)
    8000138c:	0c100593          	li	a1,193
    80001390:	00078513          	mv	a0,a5
    80001394:	cddff0ef          	jal	ra,80001070 <set_i2c_shakti>
    80001398:	81018793          	addi	a5,gp,-2032 # 800079a8 <i2c_status>
    8000139c:	0007b783          	ld	a5,0(a5)
    800013a0:	00078513          	mv	a0,a5
    800013a4:	ca5ff0ef          	jal	ra,80001048 <get_i2c_shakti>
    800013a8:	00050793          	mv	a5,a0
    800013ac:	fef407a3          	sb	a5,-17(s0)
    800013b0:	fef44783          	lbu	a5,-17(s0)
    800013b4:	0007879b          	sext.w	a5,a5
    800013b8:	00078593          	mv	a1,a5
    800013bc:	00002517          	auipc	a0,0x2
    800013c0:	f1450513          	addi	a0,a0,-236 # 800032d0 <atol+0x294>
    800013c4:	135010ef          	jal	ra,80002cf8 <printf>
    800013c8:	fef44783          	lbu	a5,-17(s0)
    800013cc:	0ff7f713          	andi	a4,a5,255
    800013d0:	08100793          	li	a5,129
    800013d4:	00f70c63          	beq	a4,a5,800013ec <shakti_init_i2c+0x1d8>
    800013d8:	00002517          	auipc	a0,0x2
    800013dc:	f1850513          	addi	a0,a0,-232 # 800032f0 <atol+0x2b4>
    800013e0:	119010ef          	jal	ra,80002cf8 <printf>
    800013e4:	05200793          	li	a5,82
    800013e8:	01c0006f          	j	80001404 <shakti_init_i2c+0x1f0>
    800013ec:	00002517          	auipc	a0,0x2
    800013f0:	f1c50513          	addi	a0,a0,-228 # 80003308 <atol+0x2cc>
    800013f4:	105010ef          	jal	ra,80002cf8 <printf>
    800013f8:	00002517          	auipc	a0,0x2
    800013fc:	f3050513          	addi	a0,a0,-208 # 80003328 <atol+0x2ec>
    80001400:	0f9010ef          	jal	ra,80002cf8 <printf>
    80001404:	00078513          	mv	a0,a5
    80001408:	01813083          	ld	ra,24(sp)
    8000140c:	01013403          	ld	s0,16(sp)
    80001410:	02010113          	addi	sp,sp,32
    80001414:	00008067          	ret

0000000080001418 <wait_for_bb>:
    80001418:	fe010113          	addi	sp,sp,-32
    8000141c:	00113c23          	sd	ra,24(sp)
    80001420:	00813823          	sd	s0,16(sp)
    80001424:	02010413          	addi	s0,sp,32
    80001428:	00002517          	auipc	a0,0x2
    8000142c:	f2050513          	addi	a0,a0,-224 # 80003348 <atol+0x30c>
    80001430:	0c9010ef          	jal	ra,80002cf8 <printf>
    80001434:	03c00793          	li	a5,60
    80001438:	fef42623          	sw	a5,-20(s0)
    8000143c:	81018793          	addi	a5,gp,-2032 # 800079a8 <i2c_status>
    80001440:	0007b783          	ld	a5,0(a5)
    80001444:	00078513          	mv	a0,a5
    80001448:	c01ff0ef          	jal	ra,80001048 <get_i2c_shakti>
    8000144c:	00050793          	mv	a5,a0
    80001450:	fef42423          	sw	a5,-24(s0)
    80001454:	0280006f          	j	8000147c <wait_for_bb+0x64>
    80001458:	000027b7          	lui	a5,0x2
    8000145c:	71078513          	addi	a0,a5,1808 # 2710 <_tbss_end+0x270c>
    80001460:	c45ff0ef          	jal	ra,800010a4 <waitfor>
    80001464:	81018793          	addi	a5,gp,-2032 # 800079a8 <i2c_status>
    80001468:	0007b783          	ld	a5,0(a5)
    8000146c:	00078513          	mv	a0,a5
    80001470:	bd9ff0ef          	jal	ra,80001048 <get_i2c_shakti>
    80001474:	00050793          	mv	a5,a0
    80001478:	fef42423          	sw	a5,-24(s0)
    8000147c:	fe842783          	lw	a5,-24(s0)
    80001480:	0017f793          	andi	a5,a5,1
    80001484:	0007879b          	sext.w	a5,a5
    80001488:	00079e63          	bnez	a5,800014a4 <wait_for_bb+0x8c>
    8000148c:	fec42783          	lw	a5,-20(s0)
    80001490:	fff7879b          	addiw	a5,a5,-1
    80001494:	fef42623          	sw	a5,-20(s0)
    80001498:	fec42783          	lw	a5,-20(s0)
    8000149c:	0007879b          	sext.w	a5,a5
    800014a0:	fa079ce3          	bnez	a5,80001458 <wait_for_bb+0x40>
    800014a4:	fec42783          	lw	a5,-20(s0)
    800014a8:	0007879b          	sext.w	a5,a5
    800014ac:	00079c63          	bnez	a5,800014c4 <wait_for_bb+0xac>
    800014b0:	00002517          	auipc	a0,0x2
    800014b4:	ea850513          	addi	a0,a0,-344 # 80003358 <atol+0x31c>
    800014b8:	041010ef          	jal	ra,80002cf8 <printf>
    800014bc:	fb000793          	li	a5,-80
    800014c0:	0080006f          	j	800014c8 <wait_for_bb+0xb0>
    800014c4:	00000793          	li	a5,0
    800014c8:	00078513          	mv	a0,a5
    800014cc:	01813083          	ld	ra,24(sp)
    800014d0:	01013403          	ld	s0,16(sp)
    800014d4:	02010113          	addi	sp,sp,32
    800014d8:	00008067          	ret

00000000800014dc <wait_for_pin>:
    800014dc:	fd010113          	addi	sp,sp,-48
    800014e0:	02113423          	sd	ra,40(sp)
    800014e4:	02813023          	sd	s0,32(sp)
    800014e8:	03010413          	addi	s0,sp,48
    800014ec:	fca43c23          	sd	a0,-40(s0)
    800014f0:	03c00793          	li	a5,60
    800014f4:	fef42623          	sw	a5,-20(s0)
    800014f8:	81018793          	addi	a5,gp,-2032 # 800079a8 <i2c_status>
    800014fc:	0007b783          	ld	a5,0(a5)
    80001500:	00078513          	mv	a0,a5
    80001504:	b45ff0ef          	jal	ra,80001048 <get_i2c_shakti>
    80001508:	00050793          	mv	a5,a0
    8000150c:	00078713          	mv	a4,a5
    80001510:	fd843783          	ld	a5,-40(s0)
    80001514:	00e7a023          	sw	a4,0(a5)
    80001518:	0300006f          	j	80001548 <wait_for_pin+0x6c>
    8000151c:	000027b7          	lui	a5,0x2
    80001520:	71078513          	addi	a0,a5,1808 # 2710 <_tbss_end+0x270c>
    80001524:	b81ff0ef          	jal	ra,800010a4 <waitfor>
    80001528:	81018793          	addi	a5,gp,-2032 # 800079a8 <i2c_status>
    8000152c:	0007b783          	ld	a5,0(a5)
    80001530:	00078513          	mv	a0,a5
    80001534:	b15ff0ef          	jal	ra,80001048 <get_i2c_shakti>
    80001538:	00050793          	mv	a5,a0
    8000153c:	00078713          	mv	a4,a5
    80001540:	fd843783          	ld	a5,-40(s0)
    80001544:	00e7a023          	sw	a4,0(a5)
    80001548:	fd843783          	ld	a5,-40(s0)
    8000154c:	0007a783          	lw	a5,0(a5)
    80001550:	0807f793          	andi	a5,a5,128
    80001554:	0007879b          	sext.w	a5,a5
    80001558:	00078e63          	beqz	a5,80001574 <wait_for_pin+0x98>
    8000155c:	fec42783          	lw	a5,-20(s0)
    80001560:	fff7879b          	addiw	a5,a5,-1
    80001564:	fef42623          	sw	a5,-20(s0)
    80001568:	fec42783          	lw	a5,-20(s0)
    8000156c:	0007879b          	sext.w	a5,a5
    80001570:	fa0796e3          	bnez	a5,8000151c <wait_for_pin+0x40>
    80001574:	fec42783          	lw	a5,-20(s0)
    80001578:	0007879b          	sext.w	a5,a5
    8000157c:	00079c63          	bnez	a5,80001594 <wait_for_pin+0xb8>
    80001580:	00002517          	auipc	a0,0x2
    80001584:	e0050513          	addi	a0,a0,-512 # 80003380 <atol+0x344>
    80001588:	770010ef          	jal	ra,80002cf8 <printf>
    8000158c:	fb000793          	li	a5,-80
    80001590:	0080006f          	j	80001598 <wait_for_pin+0xbc>
    80001594:	00000793          	li	a5,0
    80001598:	00078513          	mv	a0,a5
    8000159c:	02813083          	ld	ra,40(sp)
    800015a0:	02013403          	ld	s0,32(sp)
    800015a4:	03010113          	addi	sp,sp,48
    800015a8:	00008067          	ret

00000000800015ac <shakti_sendbytes>:
    800015ac:	fc010113          	addi	sp,sp,-64
    800015b0:	02113c23          	sd	ra,56(sp)
    800015b4:	02813823          	sd	s0,48(sp)
    800015b8:	04010413          	addi	s0,sp,64
    800015bc:	fca43c23          	sd	a0,-40(s0)
    800015c0:	00058793          	mv	a5,a1
    800015c4:	00068713          	mv	a4,a3
    800015c8:	fcf42a23          	sw	a5,-44(s0)
    800015cc:	00060793          	mv	a5,a2
    800015d0:	fcf42823          	sw	a5,-48(s0)
    800015d4:	00070793          	mv	a5,a4
    800015d8:	fcf42623          	sw	a5,-52(s0)
    800015dc:	00002517          	auipc	a0,0x2
    800015e0:	dc450513          	addi	a0,a0,-572 # 800033a0 <atol+0x364>
    800015e4:	714010ef          	jal	ra,80002cf8 <printf>
    800015e8:	fe042623          	sw	zero,-20(s0)
    800015ec:	09c0006f          	j	80001688 <shakti_sendbytes+0xdc>
    800015f0:	00006797          	auipc	a5,0x6
    800015f4:	3b078793          	addi	a5,a5,944 # 800079a0 <i2c_data>
    800015f8:	0007b683          	ld	a3,0(a5)
    800015fc:	fec42783          	lw	a5,-20(s0)
    80001600:	fd843703          	ld	a4,-40(s0)
    80001604:	00f707b3          	add	a5,a4,a5
    80001608:	0007c783          	lbu	a5,0(a5)
    8000160c:	0007879b          	sext.w	a5,a5
    80001610:	00078593          	mv	a1,a5
    80001614:	00068513          	mv	a0,a3
    80001618:	a59ff0ef          	jal	ra,80001070 <set_i2c_shakti>
    8000161c:	fe440793          	addi	a5,s0,-28
    80001620:	00078513          	mv	a0,a5
    80001624:	eb9ff0ef          	jal	ra,800014dc <wait_for_pin>
    80001628:	00050793          	mv	a5,a0
    8000162c:	fef42423          	sw	a5,-24(s0)
    80001630:	fe842783          	lw	a5,-24(s0)
    80001634:	0007879b          	sext.w	a5,a5
    80001638:	00078e63          	beqz	a5,80001654 <shakti_sendbytes+0xa8>
    8000163c:	00002517          	auipc	a0,0x2
    80001640:	dbc50513          	addi	a0,a0,-580 # 800033f8 <atol+0x3bc>
    80001644:	6b4010ef          	jal	ra,80002cf8 <printf>
    80001648:	b91ff0ef          	jal	ra,800011d8 <i2c_stop>
    8000164c:	faf00793          	li	a5,-81
    80001650:	0940006f          	j	800016e4 <shakti_sendbytes+0x138>
    80001654:	fe442783          	lw	a5,-28(s0)
    80001658:	0087f793          	andi	a5,a5,8
    8000165c:	0007879b          	sext.w	a5,a5
    80001660:	00078e63          	beqz	a5,8000167c <shakti_sendbytes+0xd0>
    80001664:	b75ff0ef          	jal	ra,800011d8 <i2c_stop>
    80001668:	00002517          	auipc	a0,0x2
    8000166c:	dd850513          	addi	a0,a0,-552 # 80003440 <atol+0x404>
    80001670:	688010ef          	jal	ra,80002cf8 <printf>
    80001674:	faf00793          	li	a5,-81
    80001678:	06c0006f          	j	800016e4 <shakti_sendbytes+0x138>
    8000167c:	fec42783          	lw	a5,-20(s0)
    80001680:	0017879b          	addiw	a5,a5,1
    80001684:	fef42623          	sw	a5,-20(s0)
    80001688:	fec42703          	lw	a4,-20(s0)
    8000168c:	fd442783          	lw	a5,-44(s0)
    80001690:	0007071b          	sext.w	a4,a4
    80001694:	0007879b          	sext.w	a5,a5
    80001698:	f4f74ce3          	blt	a4,a5,800015f0 <shakti_sendbytes+0x44>
    8000169c:	fd042783          	lw	a5,-48(s0)
    800016a0:	0007879b          	sext.w	a5,a5
    800016a4:	00078c63          	beqz	a5,800016bc <shakti_sendbytes+0x110>
    800016a8:	00002517          	auipc	a0,0x2
    800016ac:	db850513          	addi	a0,a0,-584 # 80003460 <atol+0x424>
    800016b0:	648010ef          	jal	ra,80002cf8 <printf>
    800016b4:	b25ff0ef          	jal	ra,800011d8 <i2c_stop>
    800016b8:	0280006f          	j	800016e0 <shakti_sendbytes+0x134>
    800016bc:	00002517          	auipc	a0,0x2
    800016c0:	dc450513          	addi	a0,a0,-572 # 80003480 <atol+0x444>
    800016c4:	634010ef          	jal	ra,80002cf8 <printf>
    800016c8:	fcc42783          	lw	a5,-52(s0)
    800016cc:	0007879b          	sext.w	a5,a5
    800016d0:	00079663          	bnez	a5,800016dc <shakti_sendbytes+0x130>
    800016d4:	a8dff0ef          	jal	ra,80001160 <i2c_repstart>
    800016d8:	0080006f          	j	800016e0 <shakti_sendbytes+0x134>
    800016dc:	ac1ff0ef          	jal	ra,8000119c <i2c_repstart_eni>
    800016e0:	fec42783          	lw	a5,-20(s0)
    800016e4:	00078513          	mv	a0,a5
    800016e8:	03813083          	ld	ra,56(sp)
    800016ec:	03013403          	ld	s0,48(sp)
    800016f0:	04010113          	addi	sp,sp,64
    800016f4:	00008067          	ret

00000000800016f8 <shakti_readbytes>:
    800016f8:	fd010113          	addi	sp,sp,-48
    800016fc:	02113423          	sd	ra,40(sp)
    80001700:	02813023          	sd	s0,32(sp)
    80001704:	03010413          	addi	s0,sp,48
    80001708:	fca43c23          	sd	a0,-40(s0)
    8000170c:	00058793          	mv	a5,a1
    80001710:	00060713          	mv	a4,a2
    80001714:	fcf42a23          	sw	a5,-44(s0)
    80001718:	00070793          	mv	a5,a4
    8000171c:	fcf42823          	sw	a5,-48(s0)
    80001720:	fe042423          	sw	zero,-24(s0)
    80001724:	fe042623          	sw	zero,-20(s0)
    80001728:	1580006f          	j	80001880 <shakti_readbytes+0x188>
    8000172c:	fe040793          	addi	a5,s0,-32
    80001730:	00078513          	mv	a0,a5
    80001734:	da9ff0ef          	jal	ra,800014dc <wait_for_pin>
    80001738:	00050793          	mv	a5,a0
    8000173c:	fef42223          	sw	a5,-28(s0)
    80001740:	fe442783          	lw	a5,-28(s0)
    80001744:	0007879b          	sext.w	a5,a5
    80001748:	00078863          	beqz	a5,80001758 <shakti_readbytes+0x60>
    8000174c:	a8dff0ef          	jal	ra,800011d8 <i2c_stop>
    80001750:	fff00793          	li	a5,-1
    80001754:	14c0006f          	j	800018a0 <shakti_readbytes+0x1a8>
    80001758:	fe042783          	lw	a5,-32(s0)
    8000175c:	0087f793          	andi	a5,a5,8
    80001760:	0007879b          	sext.w	a5,a5
    80001764:	02078863          	beqz	a5,80001794 <shakti_readbytes+0x9c>
    80001768:	fec42703          	lw	a4,-20(s0)
    8000176c:	fd442783          	lw	a5,-44(s0)
    80001770:	0007071b          	sext.w	a4,a4
    80001774:	0007879b          	sext.w	a5,a5
    80001778:	00f70e63          	beq	a4,a5,80001794 <shakti_readbytes+0x9c>
    8000177c:	a5dff0ef          	jal	ra,800011d8 <i2c_stop>
    80001780:	00002517          	auipc	a0,0x2
    80001784:	d4050513          	addi	a0,a0,-704 # 800034c0 <atol+0x484>
    80001788:	570010ef          	jal	ra,80002cf8 <printf>
    8000178c:	fff00793          	li	a5,-1
    80001790:	1100006f          	j	800018a0 <shakti_readbytes+0x1a8>
    80001794:	fec42783          	lw	a5,-20(s0)
    80001798:	0007879b          	sext.w	a5,a5
    8000179c:	06078263          	beqz	a5,80001800 <shakti_readbytes+0x108>
    800017a0:	00006797          	auipc	a5,0x6
    800017a4:	20078793          	addi	a5,a5,512 # 800079a0 <i2c_data>
    800017a8:	0007b783          	ld	a5,0(a5)
    800017ac:	00078513          	mv	a0,a5
    800017b0:	899ff0ef          	jal	ra,80001048 <get_i2c_shakti>
    800017b4:	00050793          	mv	a5,a0
    800017b8:	00078693          	mv	a3,a5
    800017bc:	fec42783          	lw	a5,-20(s0)
    800017c0:	fff78793          	addi	a5,a5,-1
    800017c4:	fd843703          	ld	a4,-40(s0)
    800017c8:	00f707b3          	add	a5,a4,a5
    800017cc:	0ff6f713          	andi	a4,a3,255
    800017d0:	00e78023          	sb	a4,0(a5)
    800017d4:	fec42783          	lw	a5,-20(s0)
    800017d8:	fff78793          	addi	a5,a5,-1
    800017dc:	fd843703          	ld	a4,-40(s0)
    800017e0:	00f707b3          	add	a5,a4,a5
    800017e4:	0007c783          	lbu	a5,0(a5)
    800017e8:	0007879b          	sext.w	a5,a5
    800017ec:	00078593          	mv	a1,a5
    800017f0:	00002517          	auipc	a0,0x2
    800017f4:	ce050513          	addi	a0,a0,-800 # 800034d0 <atol+0x494>
    800017f8:	500010ef          	jal	ra,80002cf8 <printf>
    800017fc:	0180006f          	j	80001814 <shakti_readbytes+0x11c>
    80001800:	00006797          	auipc	a5,0x6
    80001804:	1a078793          	addi	a5,a5,416 # 800079a0 <i2c_data>
    80001808:	0007b783          	ld	a5,0(a5)
    8000180c:	00078513          	mv	a0,a5
    80001810:	839ff0ef          	jal	ra,80001048 <get_i2c_shakti>
    80001814:	fd442783          	lw	a5,-44(s0)
    80001818:	fff7879b          	addiw	a5,a5,-1
    8000181c:	0007871b          	sext.w	a4,a5
    80001820:	fec42783          	lw	a5,-20(s0)
    80001824:	0007879b          	sext.w	a5,a5
    80001828:	02e79063          	bne	a5,a4,80001848 <shakti_readbytes+0x150>
    8000182c:	00006797          	auipc	a5,0x6
    80001830:	16c78793          	addi	a5,a5,364 # 80007998 <i2c_control>
    80001834:	0007b783          	ld	a5,0(a5)
    80001838:	04000593          	li	a1,64
    8000183c:	00078513          	mv	a0,a5
    80001840:	831ff0ef          	jal	ra,80001070 <set_i2c_shakti>
    80001844:	0300006f          	j	80001874 <shakti_readbytes+0x17c>
    80001848:	fec42703          	lw	a4,-20(s0)
    8000184c:	fd442783          	lw	a5,-44(s0)
    80001850:	0007071b          	sext.w	a4,a4
    80001854:	0007879b          	sext.w	a5,a5
    80001858:	00f71e63          	bne	a4,a5,80001874 <shakti_readbytes+0x17c>
    8000185c:	fd042783          	lw	a5,-48(s0)
    80001860:	0007879b          	sext.w	a5,a5
    80001864:	00078663          	beqz	a5,80001870 <shakti_readbytes+0x178>
    80001868:	971ff0ef          	jal	ra,800011d8 <i2c_stop>
    8000186c:	0080006f          	j	80001874 <shakti_readbytes+0x17c>
    80001870:	8f1ff0ef          	jal	ra,80001160 <i2c_repstart>
    80001874:	fec42783          	lw	a5,-20(s0)
    80001878:	0017879b          	addiw	a5,a5,1
    8000187c:	fef42623          	sw	a5,-20(s0)
    80001880:	fec42703          	lw	a4,-20(s0)
    80001884:	fd442783          	lw	a5,-44(s0)
    80001888:	0007071b          	sext.w	a4,a4
    8000188c:	0007879b          	sext.w	a5,a5
    80001890:	e8e7dee3          	ble	a4,a5,8000172c <shakti_readbytes+0x34>
    80001894:	fec42783          	lw	a5,-20(s0)
    80001898:	fff7879b          	addiw	a5,a5,-1
    8000189c:	0007879b          	sext.w	a5,a5
    800018a0:	00078513          	mv	a0,a5
    800018a4:	02813083          	ld	ra,40(sp)
    800018a8:	02013403          	ld	s0,32(sp)
    800018ac:	03010113          	addi	sp,sp,48
    800018b0:	00008067          	ret

00000000800018b4 <handle_trap>:
    800018b4:	fd010113          	addi	sp,sp,-48
    800018b8:	02113423          	sd	ra,40(sp)
    800018bc:	02813023          	sd	s0,32(sp)
    800018c0:	03010413          	addi	s0,sp,48
    800018c4:	fea43423          	sd	a0,-24(s0)
    800018c8:	feb43023          	sd	a1,-32(s0)
    800018cc:	fcc43c23          	sd	a2,-40(s0)
    800018d0:	fe043603          	ld	a2,-32(s0)
    800018d4:	fe843583          	ld	a1,-24(s0)
    800018d8:	00002517          	auipc	a0,0x2
    800018dc:	c1050513          	addi	a0,a0,-1008 # 800034e8 <atol+0x4ac>
    800018e0:	418010ef          	jal	ra,80002cf8 <printf>
    800018e4:	00000013          	nop
    800018e8:	00078513          	mv	a0,a5
    800018ec:	02813083          	ld	ra,40(sp)
    800018f0:	02013403          	ld	s0,32(sp)
    800018f4:	03010113          	addi	sp,sp,48
    800018f8:	00008067          	ret

00000000800018fc <main>:
    800018fc:	ea010113          	addi	sp,sp,-352
    80001900:	14113c23          	sd	ra,344(sp)
    80001904:	14813823          	sd	s0,336(sp)
    80001908:	16010413          	addi	s0,sp,352
    8000190c:	30d000ef          	jal	ra,80002418 <uart_init>
    80001910:	00002517          	auipc	a0,0x2
    80001914:	c0050513          	addi	a0,a0,-1024 # 80003510 <atol+0x4d4>
    80001918:	3e0010ef          	jal	ra,80002cf8 <printf>
    8000191c:	fc040823          	sb	zero,-48(s0)
    80001920:	fc0408a3          	sb	zero,-47(s0)
    80001924:	ec040423          	sb	zero,-312(s0)
    80001928:	ec0404a3          	sb	zero,-311(s0)
    8000192c:	fc042c23          	sw	zero,-40(s0)
    80001930:	fe042623          	sw	zero,-20(s0)
    80001934:	00200793          	li	a5,2
    80001938:	fef42423          	sw	a5,-24(s0)
    8000193c:	ea042223          	sw	zero,-348(s0)
    80001940:	0a000793          	li	a5,160
    80001944:	fcf42a23          	sw	a5,-44(s0)
    80001948:	fc0409a3          	sb	zero,-45(s0)
    8000194c:	00002797          	auipc	a5,0x2
    80001950:	04c78793          	addi	a5,a5,76 # 80003998 <eeprom_data>
    80001954:	fef43023          	sd	a5,-32(s0)
    80001958:	00002517          	auipc	a0,0x2
    8000195c:	bd850513          	addi	a0,a0,-1064 # 80003530 <atol+0x4f4>
    80001960:	398010ef          	jal	ra,80002cf8 <printf>
    80001964:	8b1ff0ef          	jal	ra,80001214 <shakti_init_i2c>
    80001968:	00050793          	mv	a5,a0
    8000196c:	00078c63          	beqz	a5,80001984 <main+0x88>
    80001970:	00002517          	auipc	a0,0x2
    80001974:	c1850513          	addi	a0,a0,-1000 # 80003588 <atol+0x54c>
    80001978:	380010ef          	jal	ra,80002cf8 <printf>
    8000197c:	00000793          	li	a5,0
    80001980:	3000006f          	j	80001c80 <main+0x384>
    80001984:	00002517          	auipc	a0,0x2
    80001988:	c2c50513          	addi	a0,a0,-980 # 800035b0 <atol+0x574>
    8000198c:	36c010ef          	jal	ra,80002cf8 <printf>
    80001990:	00000013          	nop
    80001994:	a85ff0ef          	jal	ra,80001418 <wait_for_bb>
    80001998:	00050793          	mv	a5,a0
    8000199c:	00078c63          	beqz	a5,800019b4 <main+0xb8>
    800019a0:	00002517          	auipc	a0,0x2
    800019a4:	c3050513          	addi	a0,a0,-976 # 800035d0 <atol+0x594>
    800019a8:	350010ef          	jal	ra,80002cf8 <printf>
    800019ac:	00000793          	li	a5,0
    800019b0:	2d00006f          	j	80001c80 <main+0x384>
    800019b4:	fc042e23          	sw	zero,-36(s0)
    800019b8:	1880006f          	j	80001b40 <main+0x244>
    800019bc:	fe042623          	sw	zero,-20(s0)
    800019c0:	0540006f          	j	80001a14 <main+0x118>
    800019c4:	fe043783          	ld	a5,-32(s0)
    800019c8:	0007c783          	lbu	a5,0(a5)
    800019cc:	0007879b          	sext.w	a5,a5
    800019d0:	00078593          	mv	a1,a5
    800019d4:	00002517          	auipc	a0,0x2
    800019d8:	c1c50513          	addi	a0,a0,-996 # 800035f0 <atol+0x5b4>
    800019dc:	31c010ef          	jal	ra,80002cf8 <printf>
    800019e0:	fe043703          	ld	a4,-32(s0)
    800019e4:	00170793          	addi	a5,a4,1
    800019e8:	fef43023          	sd	a5,-32(s0)
    800019ec:	fe842783          	lw	a5,-24(s0)
    800019f0:	0017869b          	addiw	a3,a5,1
    800019f4:	fed42423          	sw	a3,-24(s0)
    800019f8:	00074703          	lbu	a4,0(a4)
    800019fc:	ff040693          	addi	a3,s0,-16
    80001a00:	00f687b3          	add	a5,a3,a5
    80001a04:	ece78c23          	sb	a4,-296(a5)
    80001a08:	fec42783          	lw	a5,-20(s0)
    80001a0c:	0017879b          	addiw	a5,a5,1
    80001a10:	fef42623          	sw	a5,-20(s0)
    80001a14:	fec42783          	lw	a5,-20(s0)
    80001a18:	0007871b          	sext.w	a4,a5
    80001a1c:	0ff00793          	li	a5,255
    80001a20:	fae7d2e3          	ble	a4,a5,800019c4 <main+0xc8>
    80001a24:	00200793          	li	a5,2
    80001a28:	fef42423          	sw	a5,-24(s0)
    80001a2c:	fdc42783          	lw	a5,-36(s0)
    80001a30:	00078593          	mv	a1,a5
    80001a34:	00002517          	auipc	a0,0x2
    80001a38:	bdc50513          	addi	a0,a0,-1060 # 80003610 <atol+0x5d4>
    80001a3c:	2bc010ef          	jal	ra,80002cf8 <printf>
    80001a40:	00006797          	auipc	a5,0x6
    80001a44:	f6078793          	addi	a5,a5,-160 # 800079a0 <i2c_data>
    80001a48:	0007b783          	ld	a5,0(a5)
    80001a4c:	fd442703          	lw	a4,-44(s0)
    80001a50:	00070593          	mv	a1,a4
    80001a54:	00078513          	mv	a0,a5
    80001a58:	e18ff0ef          	jal	ra,80001070 <set_i2c_shakti>
    80001a5c:	00002517          	auipc	a0,0x2
    80001a60:	bd450513          	addi	a0,a0,-1068 # 80003630 <atol+0x5f4>
    80001a64:	294010ef          	jal	ra,80002cf8 <printf>
    80001a68:	00006797          	auipc	a5,0x6
    80001a6c:	f3878793          	addi	a5,a5,-200 # 800079a0 <i2c_data>
    80001a70:	0007b783          	ld	a5,0(a5)
    80001a74:	00078513          	mv	a0,a5
    80001a78:	dd0ff0ef          	jal	ra,80001048 <get_i2c_shakti>
    80001a7c:	00050793          	mv	a5,a0
    80001a80:	fcf409a3          	sb	a5,-45(s0)
    80001a84:	fd344783          	lbu	a5,-45(s0)
    80001a88:	0007879b          	sext.w	a5,a5
    80001a8c:	00078593          	mv	a1,a5
    80001a90:	00002517          	auipc	a0,0x2
    80001a94:	bb850513          	addi	a0,a0,-1096 # 80003648 <atol+0x60c>
    80001a98:	260010ef          	jal	ra,80002cf8 <printf>
    80001a9c:	fd344783          	lbu	a5,-45(s0)
    80001aa0:	0007871b          	sext.w	a4,a5
    80001aa4:	fd442783          	lw	a5,-44(s0)
    80001aa8:	0007879b          	sext.w	a5,a5
    80001aac:	00e78863          	beq	a5,a4,80001abc <main+0x1c0>
    80001ab0:	00002517          	auipc	a0,0x2
    80001ab4:	bc850513          	addi	a0,a0,-1080 # 80003678 <atol+0x63c>
    80001ab8:	240010ef          	jal	ra,80002cf8 <printf>
    80001abc:	e2cff0ef          	jal	ra,800010e8 <i2c_start>
    80001ac0:	ec840793          	addi	a5,s0,-312
    80001ac4:	00000693          	li	a3,0
    80001ac8:	00100613          	li	a2,1
    80001acc:	10200593          	li	a1,258
    80001ad0:	00078513          	mv	a0,a5
    80001ad4:	ad9ff0ef          	jal	ra,800015ac <shakti_sendbytes>
    80001ad8:	00050793          	mv	a5,a0
    80001adc:	00078713          	mv	a4,a5
    80001ae0:	10200793          	li	a5,258
    80001ae4:	00f70c63          	beq	a4,a5,80001afc <main+0x200>
    80001ae8:	00002517          	auipc	a0,0x2
    80001aec:	bf850513          	addi	a0,a0,-1032 # 800036e0 <atol+0x6a4>
    80001af0:	208010ef          	jal	ra,80002cf8 <printf>
    80001af4:	00000793          	li	a5,0
    80001af8:	1880006f          	j	80001c80 <main+0x384>
    80001afc:	000027b7          	lui	a5,0x2
    80001b00:	32878513          	addi	a0,a5,808 # 2328 <_tbss_end+0x2324>
    80001b04:	da0ff0ef          	jal	ra,800010a4 <waitfor>
    80001b08:	ec844783          	lbu	a5,-312(s0)
    80001b0c:	0017879b          	addiw	a5,a5,1
    80001b10:	0ff7f793          	andi	a5,a5,255
    80001b14:	ecf40423          	sb	a5,-312(s0)
    80001b18:	0100006f          	j	80001b28 <main+0x22c>
    80001b1c:	00002517          	auipc	a0,0x2
    80001b20:	bfc50513          	addi	a0,a0,-1028 # 80003718 <atol+0x6dc>
    80001b24:	1d4010ef          	jal	ra,80002cf8 <printf>
    80001b28:	8f1ff0ef          	jal	ra,80001418 <wait_for_bb>
    80001b2c:	00050793          	mv	a5,a0
    80001b30:	fe0796e3          	bnez	a5,80001b1c <main+0x220>
    80001b34:	fdc42783          	lw	a5,-36(s0)
    80001b38:	0017879b          	addiw	a5,a5,1
    80001b3c:	fcf42e23          	sw	a5,-36(s0)
    80001b40:	fdc42783          	lw	a5,-36(s0)
    80001b44:	0007871b          	sext.w	a4,a5
    80001b48:	03f00793          	li	a5,63
    80001b4c:	e6e7d8e3          	ble	a4,a5,800019bc <main+0xc0>
    80001b50:	00006797          	auipc	a5,0x6
    80001b54:	e5078793          	addi	a5,a5,-432 # 800079a0 <i2c_data>
    80001b58:	0007b783          	ld	a5,0(a5)
    80001b5c:	fd442703          	lw	a4,-44(s0)
    80001b60:	00070593          	mv	a1,a4
    80001b64:	00078513          	mv	a0,a5
    80001b68:	d08ff0ef          	jal	ra,80001070 <set_i2c_shakti>
    80001b6c:	d7cff0ef          	jal	ra,800010e8 <i2c_start>
    80001b70:	00002517          	auipc	a0,0x2
    80001b74:	bc050513          	addi	a0,a0,-1088 # 80003730 <atol+0x6f4>
    80001b78:	180010ef          	jal	ra,80002cf8 <printf>
    80001b7c:	0100006f          	j	80001b8c <main+0x290>
    80001b80:	00002517          	auipc	a0,0x2
    80001b84:	c0050513          	addi	a0,a0,-1024 # 80003780 <atol+0x744>
    80001b88:	170010ef          	jal	ra,80002cf8 <printf>
    80001b8c:	ea440793          	addi	a5,s0,-348
    80001b90:	00078513          	mv	a0,a5
    80001b94:	949ff0ef          	jal	ra,800014dc <wait_for_pin>
    80001b98:	00050793          	mv	a5,a0
    80001b9c:	fe0792e3          	bnez	a5,80001b80 <main+0x284>
    80001ba0:	fd040793          	addi	a5,s0,-48
    80001ba4:	00000693          	li	a3,0
    80001ba8:	00000613          	li	a2,0
    80001bac:	00200593          	li	a1,2
    80001bb0:	00078513          	mv	a0,a5
    80001bb4:	9f9ff0ef          	jal	ra,800015ac <shakti_sendbytes>
    80001bb8:	00050793          	mv	a5,a0
    80001bbc:	00078713          	mv	a4,a5
    80001bc0:	00200793          	li	a5,2
    80001bc4:	02f70263          	beq	a4,a5,80001be8 <main+0x2ec>
    80001bc8:	00002517          	auipc	a0,0x2
    80001bcc:	b1850513          	addi	a0,a0,-1256 # 800036e0 <atol+0x6a4>
    80001bd0:	128010ef          	jal	ra,80002cf8 <printf>
    80001bd4:	00000793          	li	a5,0
    80001bd8:	0a80006f          	j	80001c80 <main+0x384>
    80001bdc:	00002517          	auipc	a0,0x2
    80001be0:	bbc50513          	addi	a0,a0,-1092 # 80003798 <atol+0x75c>
    80001be4:	114010ef          	jal	ra,80002cf8 <printf>
    80001be8:	ea440793          	addi	a5,s0,-348
    80001bec:	00078513          	mv	a0,a5
    80001bf0:	8edff0ef          	jal	ra,800014dc <wait_for_pin>
    80001bf4:	00050793          	mv	a5,a0
    80001bf8:	fe0792e3          	bnez	a5,80001bdc <main+0x2e0>
    80001bfc:	00006797          	auipc	a5,0x6
    80001c00:	da478793          	addi	a5,a5,-604 # 800079a0 <i2c_data>
    80001c04:	0007b703          	ld	a4,0(a5)
    80001c08:	fd442783          	lw	a5,-44(s0)
    80001c0c:	0017879b          	addiw	a5,a5,1
    80001c10:	0007879b          	sext.w	a5,a5
    80001c14:	00078593          	mv	a1,a5
    80001c18:	00070513          	mv	a0,a4
    80001c1c:	c54ff0ef          	jal	ra,80001070 <set_i2c_shakti>
    80001c20:	0100006f          	j	80001c30 <main+0x334>
    80001c24:	00002517          	auipc	a0,0x2
    80001c28:	b8c50513          	addi	a0,a0,-1140 # 800037b0 <atol+0x774>
    80001c2c:	0cc010ef          	jal	ra,80002cf8 <printf>
    80001c30:	ea440793          	addi	a5,s0,-348
    80001c34:	00078513          	mv	a0,a5
    80001c38:	8a5ff0ef          	jal	ra,800014dc <wait_for_pin>
    80001c3c:	00050793          	mv	a5,a0
    80001c40:	fe0792e3          	bnez	a5,80001c24 <main+0x328>
    80001c44:	ea840793          	addi	a5,s0,-344
    80001c48:	00100613          	li	a2,1
    80001c4c:	000045b7          	lui	a1,0x4
    80001c50:	00078513          	mv	a0,a5
    80001c54:	aa5ff0ef          	jal	ra,800016f8 <shakti_readbytes>
    80001c58:	00050793          	mv	a5,a0
    80001c5c:	00078713          	mv	a4,a5
    80001c60:	000047b7          	lui	a5,0x4
    80001c64:	00f70c63          	beq	a4,a5,80001c7c <main+0x380>
    80001c68:	00002517          	auipc	a0,0x2
    80001c6c:	b6050513          	addi	a0,a0,-1184 # 800037c8 <atol+0x78c>
    80001c70:	088010ef          	jal	ra,80002cf8 <printf>
    80001c74:	00000793          	li	a5,0
    80001c78:	0080006f          	j	80001c80 <main+0x384>
    80001c7c:	00000793          	li	a5,0
    80001c80:	00078513          	mv	a0,a5
    80001c84:	15813083          	ld	ra,344(sp)
    80001c88:	15013403          	ld	s0,336(sp)
    80001c8c:	16010113          	addi	sp,sp,352
    80001c90:	00008067          	ret

0000000080001c94 <printArray>:
    80001c94:	fd010113          	addi	sp,sp,-48
    80001c98:	02813423          	sd	s0,40(sp)
    80001c9c:	03010413          	addi	s0,sp,48
    80001ca0:	fea43423          	sd	a0,-24(s0)
    80001ca4:	00058793          	mv	a5,a1
    80001ca8:	fcc43c23          	sd	a2,-40(s0)
    80001cac:	fef42223          	sw	a5,-28(s0)
    80001cb0:	00000013          	nop
    80001cb4:	02813403          	ld	s0,40(sp)
    80001cb8:	03010113          	addi	sp,sp,48
    80001cbc:	00008067          	ret

0000000080001cc0 <printDoubleArray>:
    80001cc0:	fd010113          	addi	sp,sp,-48
    80001cc4:	02813423          	sd	s0,40(sp)
    80001cc8:	03010413          	addi	s0,sp,48
    80001ccc:	fea43423          	sd	a0,-24(s0)
    80001cd0:	00058793          	mv	a5,a1
    80001cd4:	fcc43c23          	sd	a2,-40(s0)
    80001cd8:	fef42223          	sw	a5,-28(s0)
    80001cdc:	00000013          	nop
    80001ce0:	02813403          	ld	s0,40(sp)
    80001ce4:	03010113          	addi	sp,sp,48
    80001ce8:	00008067          	ret

0000000080001cec <verify>:
    80001cec:	fb010113          	addi	sp,sp,-80
    80001cf0:	04813423          	sd	s0,72(sp)
    80001cf4:	05010413          	addi	s0,sp,80
    80001cf8:	00050793          	mv	a5,a0
    80001cfc:	fcb43023          	sd	a1,-64(s0)
    80001d00:	fac43c23          	sd	a2,-72(s0)
    80001d04:	fcf42623          	sw	a5,-52(s0)
    80001d08:	fe042623          	sw	zero,-20(s0)
    80001d0c:	0c00006f          	j	80001dcc <verify+0xe0>
    80001d10:	fec42783          	lw	a5,-20(s0)
    80001d14:	00279793          	slli	a5,a5,0x2
    80001d18:	fc043703          	ld	a4,-64(s0)
    80001d1c:	00f707b3          	add	a5,a4,a5
    80001d20:	0007a783          	lw	a5,0(a5) # 4000 <_tbss_end+0x3ffc>
    80001d24:	fef42423          	sw	a5,-24(s0)
    80001d28:	fec42783          	lw	a5,-20(s0)
    80001d2c:	00178793          	addi	a5,a5,1
    80001d30:	00279793          	slli	a5,a5,0x2
    80001d34:	fc043703          	ld	a4,-64(s0)
    80001d38:	00f707b3          	add	a5,a4,a5
    80001d3c:	0007a783          	lw	a5,0(a5)
    80001d40:	fef42223          	sw	a5,-28(s0)
    80001d44:	fec42783          	lw	a5,-20(s0)
    80001d48:	00279793          	slli	a5,a5,0x2
    80001d4c:	fb843703          	ld	a4,-72(s0)
    80001d50:	00f707b3          	add	a5,a4,a5
    80001d54:	0007a783          	lw	a5,0(a5)
    80001d58:	fef42023          	sw	a5,-32(s0)
    80001d5c:	fec42783          	lw	a5,-20(s0)
    80001d60:	00178793          	addi	a5,a5,1
    80001d64:	00279793          	slli	a5,a5,0x2
    80001d68:	fb843703          	ld	a4,-72(s0)
    80001d6c:	00f707b3          	add	a5,a4,a5
    80001d70:	0007a783          	lw	a5,0(a5)
    80001d74:	fcf42e23          	sw	a5,-36(s0)
    80001d78:	fe842703          	lw	a4,-24(s0)
    80001d7c:	fe042783          	lw	a5,-32(s0)
    80001d80:	0007071b          	sext.w	a4,a4
    80001d84:	0007879b          	sext.w	a5,a5
    80001d88:	00f70a63          	beq	a4,a5,80001d9c <verify+0xb0>
    80001d8c:	fec42783          	lw	a5,-20(s0)
    80001d90:	0017879b          	addiw	a5,a5,1
    80001d94:	0007879b          	sext.w	a5,a5
    80001d98:	0b40006f          	j	80001e4c <verify+0x160>
    80001d9c:	fe442703          	lw	a4,-28(s0)
    80001da0:	fdc42783          	lw	a5,-36(s0)
    80001da4:	0007071b          	sext.w	a4,a4
    80001da8:	0007879b          	sext.w	a5,a5
    80001dac:	00f70a63          	beq	a4,a5,80001dc0 <verify+0xd4>
    80001db0:	fec42783          	lw	a5,-20(s0)
    80001db4:	0027879b          	addiw	a5,a5,2
    80001db8:	0007879b          	sext.w	a5,a5
    80001dbc:	0900006f          	j	80001e4c <verify+0x160>
    80001dc0:	fec42783          	lw	a5,-20(s0)
    80001dc4:	0027879b          	addiw	a5,a5,2
    80001dc8:	fef42623          	sw	a5,-20(s0)
    80001dcc:	fcc42783          	lw	a5,-52(s0)
    80001dd0:	01f7d71b          	srliw	a4,a5,0x1f
    80001dd4:	00f707bb          	addw	a5,a4,a5
    80001dd8:	4017d79b          	sraiw	a5,a5,0x1
    80001ddc:	0007879b          	sext.w	a5,a5
    80001de0:	0017979b          	slliw	a5,a5,0x1
    80001de4:	0007871b          	sext.w	a4,a5
    80001de8:	fec42783          	lw	a5,-20(s0)
    80001dec:	0007879b          	sext.w	a5,a5
    80001df0:	f2e7c0e3          	blt	a5,a4,80001d10 <verify+0x24>
    80001df4:	fcc42783          	lw	a5,-52(s0)
    80001df8:	0017f793          	andi	a5,a5,1
    80001dfc:	0007879b          	sext.w	a5,a5
    80001e00:	04078463          	beqz	a5,80001e48 <verify+0x15c>
    80001e04:	fcc42783          	lw	a5,-52(s0)
    80001e08:	00279793          	slli	a5,a5,0x2
    80001e0c:	ffc78793          	addi	a5,a5,-4
    80001e10:	fc043703          	ld	a4,-64(s0)
    80001e14:	00f707b3          	add	a5,a4,a5
    80001e18:	0007a783          	lw	a5,0(a5)
    80001e1c:	0007869b          	sext.w	a3,a5
    80001e20:	fcc42783          	lw	a5,-52(s0)
    80001e24:	00279793          	slli	a5,a5,0x2
    80001e28:	ffc78793          	addi	a5,a5,-4
    80001e2c:	fb843703          	ld	a4,-72(s0)
    80001e30:	00f707b3          	add	a5,a4,a5
    80001e34:	0007a783          	lw	a5,0(a5)
    80001e38:	00068713          	mv	a4,a3
    80001e3c:	00f70663          	beq	a4,a5,80001e48 <verify+0x15c>
    80001e40:	fcc42783          	lw	a5,-52(s0)
    80001e44:	0080006f          	j	80001e4c <verify+0x160>
    80001e48:	00000793          	li	a5,0
    80001e4c:	00078513          	mv	a0,a5
    80001e50:	04813403          	ld	s0,72(sp)
    80001e54:	05010113          	addi	sp,sp,80
    80001e58:	00008067          	ret

0000000080001e5c <verifyDouble>:
    80001e5c:	fa010113          	addi	sp,sp,-96
    80001e60:	04813c23          	sd	s0,88(sp)
    80001e64:	06010413          	addi	s0,sp,96
    80001e68:	00050793          	mv	a5,a0
    80001e6c:	fab43823          	sd	a1,-80(s0)
    80001e70:	fac43423          	sd	a2,-88(s0)
    80001e74:	faf42e23          	sw	a5,-68(s0)
    80001e78:	fe042623          	sw	zero,-20(s0)
    80001e7c:	0d80006f          	j	80001f54 <verifyDouble+0xf8>
    80001e80:	fec42783          	lw	a5,-20(s0)
    80001e84:	00379793          	slli	a5,a5,0x3
    80001e88:	fb043703          	ld	a4,-80(s0)
    80001e8c:	00f707b3          	add	a5,a4,a5
    80001e90:	0007b787          	fld	fa5,0(a5)
    80001e94:	fef43027          	fsd	fa5,-32(s0)
    80001e98:	fec42783          	lw	a5,-20(s0)
    80001e9c:	00178793          	addi	a5,a5,1
    80001ea0:	00379793          	slli	a5,a5,0x3
    80001ea4:	fb043703          	ld	a4,-80(s0)
    80001ea8:	00f707b3          	add	a5,a4,a5
    80001eac:	0007b787          	fld	fa5,0(a5)
    80001eb0:	fcf43c27          	fsd	fa5,-40(s0)
    80001eb4:	fec42783          	lw	a5,-20(s0)
    80001eb8:	00379793          	slli	a5,a5,0x3
    80001ebc:	fa843703          	ld	a4,-88(s0)
    80001ec0:	00f707b3          	add	a5,a4,a5
    80001ec4:	0007b787          	fld	fa5,0(a5)
    80001ec8:	fcf43827          	fsd	fa5,-48(s0)
    80001ecc:	fec42783          	lw	a5,-20(s0)
    80001ed0:	00178793          	addi	a5,a5,1
    80001ed4:	00379793          	slli	a5,a5,0x3
    80001ed8:	fa843703          	ld	a4,-88(s0)
    80001edc:	00f707b3          	add	a5,a4,a5
    80001ee0:	0007b787          	fld	fa5,0(a5)
    80001ee4:	fcf43427          	fsd	fa5,-56(s0)
    80001ee8:	fe043707          	fld	fa4,-32(s0)
    80001eec:	fd043787          	fld	fa5,-48(s0)
    80001ef0:	a2f727d3          	feq.d	a5,fa4,fa5
    80001ef4:	00f037b3          	snez	a5,a5
    80001ef8:	0ff7f793          	andi	a5,a5,255
    80001efc:	fcf42223          	sw	a5,-60(s0)
    80001f00:	fd843707          	fld	fa4,-40(s0)
    80001f04:	fc843787          	fld	fa5,-56(s0)
    80001f08:	a2f727d3          	feq.d	a5,fa4,fa5
    80001f0c:	00f037b3          	snez	a5,a5
    80001f10:	0ff7f793          	andi	a5,a5,255
    80001f14:	fcf42023          	sw	a5,-64(s0)
    80001f18:	fc442703          	lw	a4,-60(s0)
    80001f1c:	fc042783          	lw	a5,-64(s0)
    80001f20:	00f777b3          	and	a5,a4,a5
    80001f24:	0007879b          	sext.w	a5,a5
    80001f28:	02079063          	bnez	a5,80001f48 <verifyDouble+0xec>
    80001f2c:	fec42783          	lw	a5,-20(s0)
    80001f30:	0017879b          	addiw	a5,a5,1
    80001f34:	0007879b          	sext.w	a5,a5
    80001f38:	fc442703          	lw	a4,-60(s0)
    80001f3c:	00f707bb          	addw	a5,a4,a5
    80001f40:	0007879b          	sext.w	a5,a5
    80001f44:	08c0006f          	j	80001fd0 <verifyDouble+0x174>
    80001f48:	fec42783          	lw	a5,-20(s0)
    80001f4c:	0027879b          	addiw	a5,a5,2
    80001f50:	fef42623          	sw	a5,-20(s0)
    80001f54:	fbc42783          	lw	a5,-68(s0)
    80001f58:	01f7d71b          	srliw	a4,a5,0x1f
    80001f5c:	00f707bb          	addw	a5,a4,a5
    80001f60:	4017d79b          	sraiw	a5,a5,0x1
    80001f64:	0007879b          	sext.w	a5,a5
    80001f68:	0017979b          	slliw	a5,a5,0x1
    80001f6c:	0007871b          	sext.w	a4,a5
    80001f70:	fec42783          	lw	a5,-20(s0)
    80001f74:	0007879b          	sext.w	a5,a5
    80001f78:	f0e7c4e3          	blt	a5,a4,80001e80 <verifyDouble+0x24>
    80001f7c:	fbc42783          	lw	a5,-68(s0)
    80001f80:	0017f793          	andi	a5,a5,1
    80001f84:	0007879b          	sext.w	a5,a5
    80001f88:	04078263          	beqz	a5,80001fcc <verifyDouble+0x170>
    80001f8c:	fbc42783          	lw	a5,-68(s0)
    80001f90:	00379793          	slli	a5,a5,0x3
    80001f94:	ff878793          	addi	a5,a5,-8
    80001f98:	fb043703          	ld	a4,-80(s0)
    80001f9c:	00f707b3          	add	a5,a4,a5
    80001fa0:	0007b707          	fld	fa4,0(a5)
    80001fa4:	fbc42783          	lw	a5,-68(s0)
    80001fa8:	00379793          	slli	a5,a5,0x3
    80001fac:	ff878793          	addi	a5,a5,-8
    80001fb0:	fa843703          	ld	a4,-88(s0)
    80001fb4:	00f707b3          	add	a5,a4,a5
    80001fb8:	0007b787          	fld	fa5,0(a5)
    80001fbc:	a2f727d3          	feq.d	a5,fa4,fa5
    80001fc0:	00079663          	bnez	a5,80001fcc <verifyDouble+0x170>
    80001fc4:	fbc42783          	lw	a5,-68(s0)
    80001fc8:	0080006f          	j	80001fd0 <verifyDouble+0x174>
    80001fcc:	00000793          	li	a5,0
    80001fd0:	00078513          	mv	a0,a5
    80001fd4:	05813403          	ld	s0,88(sp)
    80001fd8:	06010113          	addi	sp,sp,96
    80001fdc:	00008067          	ret

0000000080001fe0 <barrier>:
    80001fe0:	fe010113          	addi	sp,sp,-32
    80001fe4:	00813c23          	sd	s0,24(sp)
    80001fe8:	02010413          	addi	s0,sp,32
    80001fec:	00050793          	mv	a5,a0
    80001ff0:	fef42623          	sw	a5,-20(s0)
    80001ff4:	00022783          	lw	a5,0(tp) # 0 <_tdata_begin>
    80001ff8:	0017b793          	seqz	a5,a5
    80001ffc:	0ff7f793          	andi	a5,a5,255
    80002000:	0007871b          	sext.w	a4,a5
    80002004:	00e22023          	sw	a4,0(tp) # 0 <_tdata_begin>
    80002008:	85018793          	addi	a5,gp,-1968 # 800079e8 <count.2710>
    8000200c:	00100713          	li	a4,1
    80002010:	0f50000f          	fence	iorw,ow
    80002014:	04e7a6af          	amoadd.w.aq	a3,a4,(a5)
    80002018:	0006879b          	sext.w	a5,a3
    8000201c:	0007871b          	sext.w	a4,a5
    80002020:	fec42783          	lw	a5,-20(s0)
    80002024:	fff7879b          	addiw	a5,a5,-1
    80002028:	0007879b          	sext.w	a5,a5
    8000202c:	00f71e63          	bne	a4,a5,80002048 <barrier+0x68>
    80002030:	85018793          	addi	a5,gp,-1968 # 800079e8 <count.2710>
    80002034:	0007a023          	sw	zero,0(a5)
    80002038:	00022703          	lw	a4,0(tp) # 0 <_tdata_begin>
    8000203c:	85418793          	addi	a5,gp,-1964 # 800079ec <sense.2709>
    80002040:	00e7a023          	sw	a4,0(a5)
    80002044:	01c0006f          	j	80002060 <barrier+0x80>
    80002048:	00000013          	nop
    8000204c:	85418793          	addi	a5,gp,-1964 # 800079ec <sense.2709>
    80002050:	0007a783          	lw	a5,0(a5)
    80002054:	0007871b          	sext.w	a4,a5
    80002058:	00022783          	lw	a5,0(tp) # 0 <_tdata_begin>
    8000205c:	fef718e3          	bne	a4,a5,8000204c <barrier+0x6c>
    80002060:	00000013          	nop
    80002064:	01813403          	ld	s0,24(sp)
    80002068:	02010113          	addi	sp,sp,32
    8000206c:	00008067          	ret

0000000080002070 <lfsr>:
    80002070:	fd010113          	addi	sp,sp,-48
    80002074:	02813423          	sd	s0,40(sp)
    80002078:	03010413          	addi	s0,sp,48
    8000207c:	fca43c23          	sd	a0,-40(s0)
    80002080:	fd843783          	ld	a5,-40(s0)
    80002084:	0017d713          	srli	a4,a5,0x1
    80002088:	fd843783          	ld	a5,-40(s0)
    8000208c:	00f747b3          	xor	a5,a4,a5
    80002090:	0017f793          	andi	a5,a5,1
    80002094:	fef43423          	sd	a5,-24(s0)
    80002098:	fd843783          	ld	a5,-40(s0)
    8000209c:	0017d713          	srli	a4,a5,0x1
    800020a0:	fe843783          	ld	a5,-24(s0)
    800020a4:	03e79793          	slli	a5,a5,0x3e
    800020a8:	00f767b3          	or	a5,a4,a5
    800020ac:	00078513          	mv	a0,a5
    800020b0:	02813403          	ld	s0,40(sp)
    800020b4:	03010113          	addi	sp,sp,48
    800020b8:	00008067          	ret

00000000800020bc <syscall>:
    800020bc:	f5010113          	addi	sp,sp,-176
    800020c0:	0a813423          	sd	s0,168(sp)
    800020c4:	0b010413          	addi	s0,sp,176
    800020c8:	f6a43423          	sd	a0,-152(s0)
    800020cc:	f6b43023          	sd	a1,-160(s0)
    800020d0:	f4c43c23          	sd	a2,-168(s0)
    800020d4:	f4d43823          	sd	a3,-176(s0)
    800020d8:	ff040793          	addi	a5,s0,-16
    800020dc:	f8078793          	addi	a5,a5,-128
    800020e0:	03f78793          	addi	a5,a5,63
    800020e4:	0067d793          	srli	a5,a5,0x6
    800020e8:	00679793          	slli	a5,a5,0x6
    800020ec:	f6843703          	ld	a4,-152(s0)
    800020f0:	00e7b023          	sd	a4,0(a5)
    800020f4:	f6043703          	ld	a4,-160(s0)
    800020f8:	00e7b423          	sd	a4,8(a5)
    800020fc:	f5843703          	ld	a4,-168(s0)
    80002100:	00e7b823          	sd	a4,16(a5)
    80002104:	f5043703          	ld	a4,-176(s0)
    80002108:	00e7bc23          	sd	a4,24(a5)
    8000210c:	00078693          	mv	a3,a5
    80002110:	fffff717          	auipc	a4,0xfffff
    80002114:	ef070713          	addi	a4,a4,-272 # 80001000 <tohost>
    80002118:	00d73023          	sd	a3,0(a4)
    8000211c:	00000013          	nop
    80002120:	fffff717          	auipc	a4,0xfffff
    80002124:	f2070713          	addi	a4,a4,-224 # 80001040 <fromhost>
    80002128:	00073703          	ld	a4,0(a4)
    8000212c:	fe070ae3          	beqz	a4,80002120 <syscall+0x64>
    80002130:	0007b783          	ld	a5,0(a5)
    80002134:	00078513          	mv	a0,a5
    80002138:	0a813403          	ld	s0,168(sp)
    8000213c:	0b010113          	addi	sp,sp,176
    80002140:	00008067          	ret

0000000080002144 <setStats>:
    80002144:	fb010113          	addi	sp,sp,-80
    80002148:	04813423          	sd	s0,72(sp)
    8000214c:	05010413          	addi	s0,sp,80
    80002150:	00050793          	mv	a5,a0
    80002154:	faf42e23          	sw	a5,-68(s0)
    80002158:	fc042e23          	sw	zero,-36(s0)
    8000215c:	fdc42783          	lw	a5,-36(s0)
    80002160:	0007871b          	sext.w	a4,a5
    80002164:	00100793          	li	a5,1
    80002168:	fee7cae3          	blt	a5,a4,8000215c <setStats+0x18>
    8000216c:	b00027f3          	csrr	a5,mcycle
    80002170:	fcf43823          	sd	a5,-48(s0)
    80002174:	fd043783          	ld	a5,-48(s0)
    80002178:	fef43423          	sd	a5,-24(s0)
    8000217c:	fbc42783          	lw	a5,-68(s0)
    80002180:	0007879b          	sext.w	a5,a5
    80002184:	04079463          	bnez	a5,800021cc <setStats+0x88>
    80002188:	00006717          	auipc	a4,0x6
    8000218c:	84070713          	addi	a4,a4,-1984 # 800079c8 <counters>
    80002190:	fdc42783          	lw	a5,-36(s0)
    80002194:	00379793          	slli	a5,a5,0x3
    80002198:	00f707b3          	add	a5,a4,a5
    8000219c:	0007b783          	ld	a5,0(a5)
    800021a0:	fe843703          	ld	a4,-24(s0)
    800021a4:	40f707b3          	sub	a5,a4,a5
    800021a8:	fef43423          	sd	a5,-24(s0)
    800021ac:	00006717          	auipc	a4,0x6
    800021b0:	82c70713          	addi	a4,a4,-2004 # 800079d8 <counter_names>
    800021b4:	fdc42783          	lw	a5,-36(s0)
    800021b8:	00379793          	slli	a5,a5,0x3
    800021bc:	00f707b3          	add	a5,a4,a5
    800021c0:	00001717          	auipc	a4,0x1
    800021c4:	63870713          	addi	a4,a4,1592 # 800037f8 <atol+0x7bc>
    800021c8:	00e7b023          	sd	a4,0(a5)
    800021cc:	fdc42783          	lw	a5,-36(s0)
    800021d0:	0017871b          	addiw	a4,a5,1
    800021d4:	fce42e23          	sw	a4,-36(s0)
    800021d8:	00005717          	auipc	a4,0x5
    800021dc:	7f070713          	addi	a4,a4,2032 # 800079c8 <counters>
    800021e0:	00379793          	slli	a5,a5,0x3
    800021e4:	00f707b3          	add	a5,a4,a5
    800021e8:	fe843703          	ld	a4,-24(s0)
    800021ec:	00e7b023          	sd	a4,0(a5)
    800021f0:	fdc42783          	lw	a5,-36(s0)
    800021f4:	0007871b          	sext.w	a4,a5
    800021f8:	00100793          	li	a5,1
    800021fc:	fee7cae3          	blt	a5,a4,800021f0 <setStats+0xac>
    80002200:	b02027f3          	csrr	a5,minstret
    80002204:	fcf43423          	sd	a5,-56(s0)
    80002208:	fc843783          	ld	a5,-56(s0)
    8000220c:	fef43023          	sd	a5,-32(s0)
    80002210:	fbc42783          	lw	a5,-68(s0)
    80002214:	0007879b          	sext.w	a5,a5
    80002218:	04079463          	bnez	a5,80002260 <setStats+0x11c>
    8000221c:	00005717          	auipc	a4,0x5
    80002220:	7ac70713          	addi	a4,a4,1964 # 800079c8 <counters>
    80002224:	fdc42783          	lw	a5,-36(s0)
    80002228:	00379793          	slli	a5,a5,0x3
    8000222c:	00f707b3          	add	a5,a4,a5
    80002230:	0007b783          	ld	a5,0(a5)
    80002234:	fe043703          	ld	a4,-32(s0)
    80002238:	40f707b3          	sub	a5,a4,a5
    8000223c:	fef43023          	sd	a5,-32(s0)
    80002240:	00005717          	auipc	a4,0x5
    80002244:	79870713          	addi	a4,a4,1944 # 800079d8 <counter_names>
    80002248:	fdc42783          	lw	a5,-36(s0)
    8000224c:	00379793          	slli	a5,a5,0x3
    80002250:	00f707b3          	add	a5,a4,a5
    80002254:	00001717          	auipc	a4,0x1
    80002258:	5ac70713          	addi	a4,a4,1452 # 80003800 <atol+0x7c4>
    8000225c:	00e7b023          	sd	a4,0(a5)
    80002260:	fdc42783          	lw	a5,-36(s0)
    80002264:	0017871b          	addiw	a4,a5,1
    80002268:	fce42e23          	sw	a4,-36(s0)
    8000226c:	00005717          	auipc	a4,0x5
    80002270:	75c70713          	addi	a4,a4,1884 # 800079c8 <counters>
    80002274:	00379793          	slli	a5,a5,0x3
    80002278:	00f707b3          	add	a5,a4,a5
    8000227c:	fe043703          	ld	a4,-32(s0)
    80002280:	00e7b023          	sd	a4,0(a5)
    80002284:	00000013          	nop
    80002288:	04813403          	ld	s0,72(sp)
    8000228c:	05010113          	addi	sp,sp,80
    80002290:	00008067          	ret

0000000080002294 <tohost_exit>:
    80002294:	fe010113          	addi	sp,sp,-32
    80002298:	00813c23          	sd	s0,24(sp)
    8000229c:	02010413          	addi	s0,sp,32
    800022a0:	fea43423          	sd	a0,-24(s0)
    800022a4:	00011337          	lui	t1,0x11
    800022a8:	2003031b          	addiw	t1,t1,512

00000000800022ac <uart0_status>:
    800022ac:	02830383          	lb	t2,40(t1) # 11028 <_tbss_end+0x11024>
    800022b0:	0403f393          	andi	t2,t2,64
    800022b4:	fe038ce3          	beqz	t2,800022ac <uart0_status>
    800022b8:	00011337          	lui	t1,0x11
    800022bc:	3003031b          	addiw	t1,t1,768

00000000800022c0 <uart1_status>:
    800022c0:	00830383          	lb	t2,8(t1) # 11008 <_tbss_end+0x11004>
    800022c4:	0013f393          	andi	t2,t2,1
    800022c8:	fe038ce3          	beqz	t2,800022c0 <uart1_status>
    800022cc:	fe843783          	ld	a5,-24(s0)
    800022d0:	00179793          	slli	a5,a5,0x1
    800022d4:	0017e713          	ori	a4,a5,1
    800022d8:	fffff797          	auipc	a5,0xfffff
    800022dc:	d2878793          	addi	a5,a5,-728 # 80001000 <tohost>
    800022e0:	00e7b023          	sd	a4,0(a5)
    800022e4:	0000006f          	j	800022e4 <uart1_status+0x24>
    800022e8:	fd010113          	addi	sp,sp,-48
    800022ec:	02113423          	sd	ra,40(sp)
    800022f0:	02813023          	sd	s0,32(sp)
    800022f4:	03010413          	addi	s0,sp,48
    800022f8:	fea43423          	sd	a0,-24(s0)
    800022fc:	feb43023          	sd	a1,-32(s0)
    80002300:	fcc43c23          	sd	a2,-40(s0)
    80002304:	53900513          	li	a0,1337
    80002308:	f8dff0ef          	jal	ra,80002294 <tohost_exit>

000000008000230c <exit>:
    8000230c:	fe010113          	addi	sp,sp,-32
    80002310:	00113c23          	sd	ra,24(sp)
    80002314:	00813823          	sd	s0,16(sp)
    80002318:	02010413          	addi	s0,sp,32
    8000231c:	00050793          	mv	a5,a0
    80002320:	fef42623          	sw	a5,-20(s0)
    80002324:	fec42783          	lw	a5,-20(s0)
    80002328:	00078513          	mv	a0,a5
    8000232c:	f69ff0ef          	jal	ra,80002294 <tohost_exit>

0000000080002330 <abort>:
    80002330:	ff010113          	addi	sp,sp,-16
    80002334:	00113423          	sd	ra,8(sp)
    80002338:	00813023          	sd	s0,0(sp)
    8000233c:	01010413          	addi	s0,sp,16
    80002340:	08600513          	li	a0,134
    80002344:	fc9ff0ef          	jal	ra,8000230c <exit>

0000000080002348 <printstr>:
    80002348:	fd010113          	addi	sp,sp,-48
    8000234c:	02113423          	sd	ra,40(sp)
    80002350:	02813023          	sd	s0,32(sp)
    80002354:	00913c23          	sd	s1,24(sp)
    80002358:	03010413          	addi	s0,sp,48
    8000235c:	fca43c23          	sd	a0,-40(s0)
    80002360:	fd843483          	ld	s1,-40(s0)
    80002364:	fd843503          	ld	a0,-40(s0)
    80002368:	341000ef          	jal	ra,80002ea8 <strlen>
    8000236c:	00050793          	mv	a5,a0
    80002370:	00078693          	mv	a3,a5
    80002374:	00048613          	mv	a2,s1
    80002378:	00100593          	li	a1,1
    8000237c:	04000513          	li	a0,64
    80002380:	d3dff0ef          	jal	ra,800020bc <syscall>
    80002384:	00000013          	nop
    80002388:	02813083          	ld	ra,40(sp)
    8000238c:	02013403          	ld	s0,32(sp)
    80002390:	01813483          	ld	s1,24(sp)
    80002394:	03010113          	addi	sp,sp,48
    80002398:	00008067          	ret
    8000239c:	fe010113          	addi	sp,sp,-32
    800023a0:	00113c23          	sd	ra,24(sp)
    800023a4:	00813823          	sd	s0,16(sp)
    800023a8:	02010413          	addi	s0,sp,32
    800023ac:	00050793          	mv	a5,a0
    800023b0:	feb43023          	sd	a1,-32(s0)
    800023b4:	fef42623          	sw	a5,-20(s0)
    800023b8:	00001517          	auipc	a0,0x1
    800023bc:	45850513          	addi	a0,a0,1112 # 80003810 <atol+0x7d4>
    800023c0:	f89ff0ef          	jal	ra,80002348 <printstr>
    800023c4:	fff00793          	li	a5,-1
    800023c8:	00078513          	mv	a0,a5
    800023cc:	01813083          	ld	ra,24(sp)
    800023d0:	01013403          	ld	s0,16(sp)
    800023d4:	02010113          	addi	sp,sp,32
    800023d8:	00008067          	ret

00000000800023dc <getchar>:
    800023dc:	ff010113          	addi	sp,sp,-16
    800023e0:	00813423          	sd	s0,8(sp)
    800023e4:	01010413          	addi	s0,sp,16
    800023e8:	00011337          	lui	t1,0x11
    800023ec:	2003031b          	addiw	t1,t1,512

00000000800023f0 <uart_statusr>:
    800023f0:	02830383          	lb	t2,40(t1) # 11028 <_tbss_end+0x11024>
    800023f4:	0013f393          	andi	t2,t2,1
    800023f8:	fe038ce3          	beqz	t2,800023f0 <uart_statusr>
    800023fc:	00030503          	lb	a0,0(t1)
    80002400:	0ff57793          	andi	a5,a0,255
    80002404:	0007879b          	sext.w	a5,a5
    80002408:	00078513          	mv	a0,a5
    8000240c:	00813403          	ld	s0,8(sp)
    80002410:	01010113          	addi	sp,sp,16
    80002414:	00008067          	ret

0000000080002418 <uart_init>:
    80002418:	ff010113          	addi	sp,sp,-16
    8000241c:	00813423          	sd	s0,8(sp)
    80002420:	01010413          	addi	s0,sp,16
    80002424:	00011337          	lui	t1,0x11
    80002428:	2003031b          	addiw	t1,t1,512
    8000242c:	08300393          	li	t2,131
    80002430:	00730c23          	sb	t2,24(t1) # 11018 <_tbss_end+0x11014>
    80002434:	00000393          	li	t2,0
    80002438:	00030423          	sb	zero,8(t1)
    8000243c:	00b00393          	li	t2,11
    80002440:	00730023          	sb	t2,0(t1)
    80002444:	00300393          	li	t2,3
    80002448:	00730c23          	sb	t2,24(t1)
    8000244c:	00600393          	li	t2,6
    80002450:	00730823          	sb	t2,16(t1)
    80002454:	00030423          	sb	zero,8(t1)
    80002458:	00000793          	li	a5,0
    8000245c:	00078513          	mv	a0,a5
    80002460:	00813403          	ld	s0,8(sp)
    80002464:	01010113          	addi	sp,sp,16
    80002468:	00008067          	ret

000000008000246c <putchar>:
    8000246c:	fe010113          	addi	sp,sp,-32
    80002470:	00813c23          	sd	s0,24(sp)
    80002474:	02010413          	addi	s0,sp,32
    80002478:	00050793          	mv	a5,a0
    8000247c:	fef42623          	sw	a5,-20(s0)
    80002480:	fec42783          	lw	a5,-20(s0)
    80002484:	0ff7f793          	andi	a5,a5,255
    80002488:	00078513          	mv	a0,a5
    8000248c:	00011337          	lui	t1,0x11
    80002490:	2003031b          	addiw	t1,t1,512

0000000080002494 <uart_status>:
    80002494:	02830383          	lb	t2,40(t1) # 11028 <_tbss_end+0x11024>
    80002498:	0203f393          	andi	t2,t2,32
    8000249c:	fe038ce3          	beqz	t2,80002494 <uart_status>
    800024a0:	00a30023          	sb	a0,0(t1)
    800024a4:	00000793          	li	a5,0
    800024a8:	00078513          	mv	a0,a5
    800024ac:	01813403          	ld	s0,24(sp)
    800024b0:	02010113          	addi	sp,sp,32
    800024b4:	00008067          	ret

00000000800024b8 <_init>:
    800024b8:	f4010113          	addi	sp,sp,-192
    800024bc:	0a113c23          	sd	ra,184(sp)
    800024c0:	0a813823          	sd	s0,176(sp)
    800024c4:	0a913423          	sd	s1,168(sp)
    800024c8:	0c010413          	addi	s0,sp,192
    800024cc:	00050793          	mv	a5,a0
    800024d0:	00058713          	mv	a4,a1
    800024d4:	f4f42623          	sw	a5,-180(s0)
    800024d8:	00070793          	mv	a5,a4
    800024dc:	f4f42423          	sw	a5,-184(s0)
    800024e0:	fe040793          	addi	a5,s0,-32
    800024e4:	f7078793          	addi	a5,a5,-144
    800024e8:	03f78793          	addi	a5,a5,63
    800024ec:	0067d793          	srli	a5,a5,0x6
    800024f0:	00679493          	slli	s1,a5,0x6
    800024f4:	00000593          	li	a1,0
    800024f8:	00000513          	li	a0,0
    800024fc:	c00ff0ef          	jal	ra,800018fc <main>
    80002500:	00050793          	mv	a5,a0
    80002504:	fcf42c23          	sw	a5,-40(s0)
    80002508:	fc943823          	sd	s1,-48(s0)
    8000250c:	fc042e23          	sw	zero,-36(s0)
    80002510:	0700006f          	j	80002580 <_init+0xc8>
    80002514:	00005717          	auipc	a4,0x5
    80002518:	4b470713          	addi	a4,a4,1204 # 800079c8 <counters>
    8000251c:	fdc42783          	lw	a5,-36(s0)
    80002520:	00379793          	slli	a5,a5,0x3
    80002524:	00f707b3          	add	a5,a4,a5
    80002528:	0007b783          	ld	a5,0(a5)
    8000252c:	04078463          	beqz	a5,80002574 <_init+0xbc>
    80002530:	00005717          	auipc	a4,0x5
    80002534:	4a870713          	addi	a4,a4,1192 # 800079d8 <counter_names>
    80002538:	fdc42783          	lw	a5,-36(s0)
    8000253c:	00379793          	slli	a5,a5,0x3
    80002540:	00f707b3          	add	a5,a4,a5
    80002544:	0007b683          	ld	a3,0(a5)
    80002548:	00005717          	auipc	a4,0x5
    8000254c:	48070713          	addi	a4,a4,1152 # 800079c8 <counters>
    80002550:	fdc42783          	lw	a5,-36(s0)
    80002554:	00379793          	slli	a5,a5,0x3
    80002558:	00f707b3          	add	a5,a4,a5
    8000255c:	0007b783          	ld	a5,0(a5)
    80002560:	00078613          	mv	a2,a5
    80002564:	00068593          	mv	a1,a3
    80002568:	00001517          	auipc	a0,0x1
    8000256c:	2c050513          	addi	a0,a0,704 # 80003828 <atol+0x7ec>
    80002570:	788000ef          	jal	ra,80002cf8 <printf>
    80002574:	fdc42783          	lw	a5,-36(s0)
    80002578:	0017879b          	addiw	a5,a5,1
    8000257c:	fcf42e23          	sw	a5,-36(s0)
    80002580:	fdc42783          	lw	a5,-36(s0)
    80002584:	0007871b          	sext.w	a4,a5
    80002588:	00100793          	li	a5,1
    8000258c:	f8e7d4e3          	ble	a4,a5,80002514 <_init+0x5c>
    80002590:	fd842783          	lw	a5,-40(s0)
    80002594:	00078513          	mv	a0,a5
    80002598:	d75ff0ef          	jal	ra,8000230c <exit>

000000008000259c <printhex>:
    8000259c:	fc010113          	addi	sp,sp,-64
    800025a0:	02113c23          	sd	ra,56(sp)
    800025a4:	02813823          	sd	s0,48(sp)
    800025a8:	04010413          	addi	s0,sp,64
    800025ac:	fca43423          	sd	a0,-56(s0)
    800025b0:	fe042623          	sw	zero,-20(s0)
    800025b4:	06c0006f          	j	80002620 <printhex+0x84>
    800025b8:	fc843783          	ld	a5,-56(s0)
    800025bc:	0ff7f793          	andi	a5,a5,255
    800025c0:	00f7f793          	andi	a5,a5,15
    800025c4:	0ff7f713          	andi	a4,a5,255
    800025c8:	fc843783          	ld	a5,-56(s0)
    800025cc:	00f7f693          	andi	a3,a5,15
    800025d0:	00900793          	li	a5,9
    800025d4:	00d7e663          	bltu	a5,a3,800025e0 <printhex+0x44>
    800025d8:	03000793          	li	a5,48
    800025dc:	0080006f          	j	800025e4 <printhex+0x48>
    800025e0:	05700793          	li	a5,87
    800025e4:	00f00613          	li	a2,15
    800025e8:	fec42683          	lw	a3,-20(s0)
    800025ec:	40d606bb          	subw	a3,a2,a3
    800025f0:	0006869b          	sext.w	a3,a3
    800025f4:	00e787bb          	addw	a5,a5,a4
    800025f8:	0ff7f713          	andi	a4,a5,255
    800025fc:	ff040793          	addi	a5,s0,-16
    80002600:	00d787b3          	add	a5,a5,a3
    80002604:	fee78423          	sb	a4,-24(a5)
    80002608:	fc843783          	ld	a5,-56(s0)
    8000260c:	0047d793          	srli	a5,a5,0x4
    80002610:	fcf43423          	sd	a5,-56(s0)
    80002614:	fec42783          	lw	a5,-20(s0)
    80002618:	0017879b          	addiw	a5,a5,1
    8000261c:	fef42623          	sw	a5,-20(s0)
    80002620:	fec42783          	lw	a5,-20(s0)
    80002624:	0007871b          	sext.w	a4,a5
    80002628:	00f00793          	li	a5,15
    8000262c:	f8e7d6e3          	ble	a4,a5,800025b8 <printhex+0x1c>
    80002630:	fe040423          	sb	zero,-24(s0)
    80002634:	fd840793          	addi	a5,s0,-40
    80002638:	00078513          	mv	a0,a5
    8000263c:	d0dff0ef          	jal	ra,80002348 <printstr>
    80002640:	00000013          	nop
    80002644:	03813083          	ld	ra,56(sp)
    80002648:	03013403          	ld	s0,48(sp)
    8000264c:	04010113          	addi	sp,sp,64
    80002650:	00008067          	ret

0000000080002654 <printnum>:
    80002654:	eb010113          	addi	sp,sp,-336
    80002658:	14113423          	sd	ra,328(sp)
    8000265c:	14813023          	sd	s0,320(sp)
    80002660:	15010413          	addi	s0,sp,336
    80002664:	eca43c23          	sd	a0,-296(s0)
    80002668:	ecb43823          	sd	a1,-304(s0)
    8000266c:	ecc43423          	sd	a2,-312(s0)
    80002670:	00068613          	mv	a2,a3
    80002674:	00070693          	mv	a3,a4
    80002678:	00078713          	mv	a4,a5
    8000267c:	00060793          	mv	a5,a2
    80002680:	ecf42223          	sw	a5,-316(s0)
    80002684:	00068793          	mv	a5,a3
    80002688:	ecf42023          	sw	a5,-320(s0)
    8000268c:	00070793          	mv	a5,a4
    80002690:	eaf42e23          	sw	a5,-324(s0)
    80002694:	fe042623          	sw	zero,-20(s0)
    80002698:	ec446783          	lwu	a5,-316(s0)
    8000269c:	ec843703          	ld	a4,-312(s0)
    800026a0:	02f776b3          	remu	a3,a4,a5
    800026a4:	fec42783          	lw	a5,-20(s0)
    800026a8:	0017871b          	addiw	a4,a5,1
    800026ac:	fee42623          	sw	a4,-20(s0)
    800026b0:	0006871b          	sext.w	a4,a3
    800026b4:	00279793          	slli	a5,a5,0x2
    800026b8:	ff040693          	addi	a3,s0,-16
    800026bc:	00f687b3          	add	a5,a3,a5
    800026c0:	eee7ac23          	sw	a4,-264(a5)
    800026c4:	ec446783          	lwu	a5,-316(s0)
    800026c8:	ec843703          	ld	a4,-312(s0)
    800026cc:	00f76c63          	bltu	a4,a5,800026e4 <printnum+0x90>
    800026d0:	ec446783          	lwu	a5,-316(s0)
    800026d4:	ec843703          	ld	a4,-312(s0)
    800026d8:	02f757b3          	divu	a5,a4,a5
    800026dc:	ecf43423          	sd	a5,-312(s0)
    800026e0:	fb9ff06f          	j	80002698 <printnum+0x44>
    800026e4:	00000013          	nop
    800026e8:	0180006f          	j	80002700 <printnum+0xac>
    800026ec:	ebc42783          	lw	a5,-324(s0)
    800026f0:	ed843703          	ld	a4,-296(s0)
    800026f4:	ed043583          	ld	a1,-304(s0)
    800026f8:	00078513          	mv	a0,a5
    800026fc:	000700e7          	jalr	a4
    80002700:	ec042783          	lw	a5,-320(s0)
    80002704:	fff7871b          	addiw	a4,a5,-1
    80002708:	ece42023          	sw	a4,-320(s0)
    8000270c:	fec42703          	lw	a4,-20(s0)
    80002710:	0007071b          	sext.w	a4,a4
    80002714:	fcf74ce3          	blt	a4,a5,800026ec <printnum+0x98>
    80002718:	0600006f          	j	80002778 <printnum+0x124>
    8000271c:	fec42783          	lw	a5,-20(s0)
    80002720:	00279793          	slli	a5,a5,0x2
    80002724:	ff040713          	addi	a4,s0,-16
    80002728:	00f707b3          	add	a5,a4,a5
    8000272c:	ef87a703          	lw	a4,-264(a5)
    80002730:	fec42783          	lw	a5,-20(s0)
    80002734:	00279793          	slli	a5,a5,0x2
    80002738:	ff040693          	addi	a3,s0,-16
    8000273c:	00f687b3          	add	a5,a3,a5
    80002740:	ef87a783          	lw	a5,-264(a5)
    80002744:	00078693          	mv	a3,a5
    80002748:	00900793          	li	a5,9
    8000274c:	00d7f663          	bleu	a3,a5,80002758 <printnum+0x104>
    80002750:	05700793          	li	a5,87
    80002754:	0080006f          	j	8000275c <printnum+0x108>
    80002758:	03000793          	li	a5,48
    8000275c:	00e787bb          	addw	a5,a5,a4
    80002760:	0007879b          	sext.w	a5,a5
    80002764:	0007879b          	sext.w	a5,a5
    80002768:	ed843703          	ld	a4,-296(s0)
    8000276c:	ed043583          	ld	a1,-304(s0)
    80002770:	00078513          	mv	a0,a5
    80002774:	000700e7          	jalr	a4
    80002778:	fec42783          	lw	a5,-20(s0)
    8000277c:	fff7871b          	addiw	a4,a5,-1
    80002780:	fee42623          	sw	a4,-20(s0)
    80002784:	f8f04ce3          	bgtz	a5,8000271c <printnum+0xc8>
    80002788:	00000013          	nop
    8000278c:	14813083          	ld	ra,328(sp)
    80002790:	14013403          	ld	s0,320(sp)
    80002794:	15010113          	addi	sp,sp,336
    80002798:	00008067          	ret

000000008000279c <getuint>:
    8000279c:	fe010113          	addi	sp,sp,-32
    800027a0:	00813c23          	sd	s0,24(sp)
    800027a4:	02010413          	addi	s0,sp,32
    800027a8:	fea43423          	sd	a0,-24(s0)
    800027ac:	00058793          	mv	a5,a1
    800027b0:	fef42223          	sw	a5,-28(s0)
    800027b4:	fe442783          	lw	a5,-28(s0)
    800027b8:	0007871b          	sext.w	a4,a5
    800027bc:	00100793          	li	a5,1
    800027c0:	02e7d063          	ble	a4,a5,800027e0 <getuint+0x44>
    800027c4:	fe843783          	ld	a5,-24(s0)
    800027c8:	0007b783          	ld	a5,0(a5)
    800027cc:	00878693          	addi	a3,a5,8
    800027d0:	fe843703          	ld	a4,-24(s0)
    800027d4:	00d73023          	sd	a3,0(a4)
    800027d8:	0007b783          	ld	a5,0(a5)
    800027dc:	04c0006f          	j	80002828 <getuint+0x8c>
    800027e0:	fe442783          	lw	a5,-28(s0)
    800027e4:	0007879b          	sext.w	a5,a5
    800027e8:	02078063          	beqz	a5,80002808 <getuint+0x6c>
    800027ec:	fe843783          	ld	a5,-24(s0)
    800027f0:	0007b783          	ld	a5,0(a5)
    800027f4:	00878693          	addi	a3,a5,8
    800027f8:	fe843703          	ld	a4,-24(s0)
    800027fc:	00d73023          	sd	a3,0(a4)
    80002800:	0007b783          	ld	a5,0(a5)
    80002804:	0240006f          	j	80002828 <getuint+0x8c>
    80002808:	fe843783          	ld	a5,-24(s0)
    8000280c:	0007b783          	ld	a5,0(a5)
    80002810:	00878693          	addi	a3,a5,8
    80002814:	fe843703          	ld	a4,-24(s0)
    80002818:	00d73023          	sd	a3,0(a4)
    8000281c:	0007a783          	lw	a5,0(a5)
    80002820:	02079793          	slli	a5,a5,0x20
    80002824:	0207d793          	srli	a5,a5,0x20
    80002828:	00078513          	mv	a0,a5
    8000282c:	01813403          	ld	s0,24(sp)
    80002830:	02010113          	addi	sp,sp,32
    80002834:	00008067          	ret

0000000080002838 <getint>:
    80002838:	fe010113          	addi	sp,sp,-32
    8000283c:	00813c23          	sd	s0,24(sp)
    80002840:	02010413          	addi	s0,sp,32
    80002844:	fea43423          	sd	a0,-24(s0)
    80002848:	00058793          	mv	a5,a1
    8000284c:	fef42223          	sw	a5,-28(s0)
    80002850:	fe442783          	lw	a5,-28(s0)
    80002854:	0007871b          	sext.w	a4,a5
    80002858:	00100793          	li	a5,1
    8000285c:	02e7d063          	ble	a4,a5,8000287c <getint+0x44>
    80002860:	fe843783          	ld	a5,-24(s0)
    80002864:	0007b783          	ld	a5,0(a5)
    80002868:	00878693          	addi	a3,a5,8
    8000286c:	fe843703          	ld	a4,-24(s0)
    80002870:	00d73023          	sd	a3,0(a4)
    80002874:	0007b783          	ld	a5,0(a5)
    80002878:	0440006f          	j	800028bc <getint+0x84>
    8000287c:	fe442783          	lw	a5,-28(s0)
    80002880:	0007879b          	sext.w	a5,a5
    80002884:	02078063          	beqz	a5,800028a4 <getint+0x6c>
    80002888:	fe843783          	ld	a5,-24(s0)
    8000288c:	0007b783          	ld	a5,0(a5)
    80002890:	00878693          	addi	a3,a5,8
    80002894:	fe843703          	ld	a4,-24(s0)
    80002898:	00d73023          	sd	a3,0(a4)
    8000289c:	0007b783          	ld	a5,0(a5)
    800028a0:	01c0006f          	j	800028bc <getint+0x84>
    800028a4:	fe843783          	ld	a5,-24(s0)
    800028a8:	0007b783          	ld	a5,0(a5)
    800028ac:	00878693          	addi	a3,a5,8
    800028b0:	fe843703          	ld	a4,-24(s0)
    800028b4:	00d73023          	sd	a3,0(a4)
    800028b8:	0007a783          	lw	a5,0(a5)
    800028bc:	00078513          	mv	a0,a5
    800028c0:	01813403          	ld	s0,24(sp)
    800028c4:	02010113          	addi	sp,sp,32
    800028c8:	00008067          	ret

00000000800028cc <vprintfmt>:
    800028cc:	f9010113          	addi	sp,sp,-112
    800028d0:	06113423          	sd	ra,104(sp)
    800028d4:	06813023          	sd	s0,96(sp)
    800028d8:	04913c23          	sd	s1,88(sp)
    800028dc:	05213823          	sd	s2,80(sp)
    800028e0:	07010413          	addi	s0,sp,112
    800028e4:	faa43423          	sd	a0,-88(s0)
    800028e8:	fab43023          	sd	a1,-96(s0)
    800028ec:	f8c43c23          	sd	a2,-104(s0)
    800028f0:	f8d43823          	sd	a3,-112(s0)
    800028f4:	0240006f          	j	80002918 <vprintfmt+0x4c>
    800028f8:	3e048263          	beqz	s1,80002cdc <vprintfmt+0x410>
    800028fc:	f9843783          	ld	a5,-104(s0)
    80002900:	00178793          	addi	a5,a5,1
    80002904:	f8f43c23          	sd	a5,-104(s0)
    80002908:	fa843783          	ld	a5,-88(s0)
    8000290c:	fa043583          	ld	a1,-96(s0)
    80002910:	00048513          	mv	a0,s1
    80002914:	000780e7          	jalr	a5
    80002918:	f9843783          	ld	a5,-104(s0)
    8000291c:	0007c783          	lbu	a5,0(a5)
    80002920:	0007849b          	sext.w	s1,a5
    80002924:	00048713          	mv	a4,s1
    80002928:	02500793          	li	a5,37
    8000292c:	fcf716e3          	bne	a4,a5,800028f8 <vprintfmt+0x2c>
    80002930:	f9843783          	ld	a5,-104(s0)
    80002934:	00178793          	addi	a5,a5,1
    80002938:	f8f43c23          	sd	a5,-104(s0)
    8000293c:	f9843783          	ld	a5,-104(s0)
    80002940:	faf43c23          	sd	a5,-72(s0)
    80002944:	02000793          	li	a5,32
    80002948:	fcf403a3          	sb	a5,-57(s0)
    8000294c:	fff00793          	li	a5,-1
    80002950:	fcf42623          	sw	a5,-52(s0)
    80002954:	fff00793          	li	a5,-1
    80002958:	fcf42423          	sw	a5,-56(s0)
    8000295c:	fc042823          	sw	zero,-48(s0)
    80002960:	fa042a23          	sw	zero,-76(s0)
    80002964:	f9843783          	ld	a5,-104(s0)
    80002968:	00178713          	addi	a4,a5,1
    8000296c:	f8e43c23          	sd	a4,-104(s0)
    80002970:	0007c783          	lbu	a5,0(a5)
    80002974:	0007849b          	sext.w	s1,a5
    80002978:	fdd4869b          	addiw	a3,s1,-35
    8000297c:	0006871b          	sext.w	a4,a3
    80002980:	05500793          	li	a5,85
    80002984:	32e7ec63          	bltu	a5,a4,80002cbc <vprintfmt+0x3f0>
    80002988:	02069793          	slli	a5,a3,0x20
    8000298c:	0207d793          	srli	a5,a5,0x20
    80002990:	00279713          	slli	a4,a5,0x2
    80002994:	00001797          	auipc	a5,0x1
    80002998:	eac78793          	addi	a5,a5,-340 # 80003840 <atol+0x804>
    8000299c:	00f707b3          	add	a5,a4,a5
    800029a0:	0007a783          	lw	a5,0(a5)
    800029a4:	0007871b          	sext.w	a4,a5
    800029a8:	00001797          	auipc	a5,0x1
    800029ac:	e9878793          	addi	a5,a5,-360 # 80003840 <atol+0x804>
    800029b0:	00f707b3          	add	a5,a4,a5
    800029b4:	00078067          	jr	a5
    800029b8:	02d00793          	li	a5,45
    800029bc:	fcf403a3          	sb	a5,-57(s0)
    800029c0:	fa5ff06f          	j	80002964 <vprintfmt+0x98>
    800029c4:	03000793          	li	a5,48
    800029c8:	fcf403a3          	sb	a5,-57(s0)
    800029cc:	f99ff06f          	j	80002964 <vprintfmt+0x98>
    800029d0:	fc042423          	sw	zero,-56(s0)
    800029d4:	fc842703          	lw	a4,-56(s0)
    800029d8:	00070793          	mv	a5,a4
    800029dc:	0027979b          	slliw	a5,a5,0x2
    800029e0:	00e787bb          	addw	a5,a5,a4
    800029e4:	0017979b          	slliw	a5,a5,0x1
    800029e8:	0007879b          	sext.w	a5,a5
    800029ec:	00f487bb          	addw	a5,s1,a5
    800029f0:	0007879b          	sext.w	a5,a5
    800029f4:	fd07879b          	addiw	a5,a5,-48
    800029f8:	fcf42423          	sw	a5,-56(s0)
    800029fc:	f9843783          	ld	a5,-104(s0)
    80002a00:	0007c783          	lbu	a5,0(a5)
    80002a04:	0007849b          	sext.w	s1,a5
    80002a08:	00048713          	mv	a4,s1
    80002a0c:	02f00793          	li	a5,47
    80002a10:	04e7dc63          	ble	a4,a5,80002a68 <vprintfmt+0x19c>
    80002a14:	00048713          	mv	a4,s1
    80002a18:	03900793          	li	a5,57
    80002a1c:	04e7c663          	blt	a5,a4,80002a68 <vprintfmt+0x19c>
    80002a20:	f9843783          	ld	a5,-104(s0)
    80002a24:	00178793          	addi	a5,a5,1
    80002a28:	f8f43c23          	sd	a5,-104(s0)
    80002a2c:	fa9ff06f          	j	800029d4 <vprintfmt+0x108>
    80002a30:	f9043783          	ld	a5,-112(s0)
    80002a34:	00878713          	addi	a4,a5,8
    80002a38:	f8e43823          	sd	a4,-112(s0)
    80002a3c:	0007a783          	lw	a5,0(a5)
    80002a40:	fcf42423          	sw	a5,-56(s0)
    80002a44:	0280006f          	j	80002a6c <vprintfmt+0x1a0>
    80002a48:	fcc42783          	lw	a5,-52(s0)
    80002a4c:	0007879b          	sext.w	a5,a5
    80002a50:	f007dae3          	bgez	a5,80002964 <vprintfmt+0x98>
    80002a54:	fc042623          	sw	zero,-52(s0)
    80002a58:	f0dff06f          	j	80002964 <vprintfmt+0x98>
    80002a5c:	00100793          	li	a5,1
    80002a60:	faf42a23          	sw	a5,-76(s0)
    80002a64:	f01ff06f          	j	80002964 <vprintfmt+0x98>
    80002a68:	00000013          	nop
    80002a6c:	fcc42783          	lw	a5,-52(s0)
    80002a70:	0007879b          	sext.w	a5,a5
    80002a74:	ee07d8e3          	bgez	a5,80002964 <vprintfmt+0x98>
    80002a78:	fc842783          	lw	a5,-56(s0)
    80002a7c:	fcf42623          	sw	a5,-52(s0)
    80002a80:	fff00793          	li	a5,-1
    80002a84:	fcf42423          	sw	a5,-56(s0)
    80002a88:	eddff06f          	j	80002964 <vprintfmt+0x98>
    80002a8c:	fd042783          	lw	a5,-48(s0)
    80002a90:	0017879b          	addiw	a5,a5,1
    80002a94:	fcf42823          	sw	a5,-48(s0)
    80002a98:	ecdff06f          	j	80002964 <vprintfmt+0x98>
    80002a9c:	f9043783          	ld	a5,-112(s0)
    80002aa0:	00878713          	addi	a4,a5,8
    80002aa4:	f8e43823          	sd	a4,-112(s0)
    80002aa8:	0007a783          	lw	a5,0(a5)
    80002aac:	fa843703          	ld	a4,-88(s0)
    80002ab0:	fa043583          	ld	a1,-96(s0)
    80002ab4:	00078513          	mv	a0,a5
    80002ab8:	000700e7          	jalr	a4
    80002abc:	21c0006f          	j	80002cd8 <vprintfmt+0x40c>
    80002ac0:	f9043783          	ld	a5,-112(s0)
    80002ac4:	00878713          	addi	a4,a5,8
    80002ac8:	f8e43823          	sd	a4,-112(s0)
    80002acc:	0007b903          	ld	s2,0(a5)
    80002ad0:	00091663          	bnez	s2,80002adc <vprintfmt+0x210>
    80002ad4:	00001917          	auipc	s2,0x1
    80002ad8:	d6490913          	addi	s2,s2,-668 # 80003838 <atol+0x7fc>
    80002adc:	fcc42783          	lw	a5,-52(s0)
    80002ae0:	0007879b          	sext.w	a5,a5
    80002ae4:	08f05a63          	blez	a5,80002b78 <vprintfmt+0x2ac>
    80002ae8:	fc744783          	lbu	a5,-57(s0)
    80002aec:	0ff7f713          	andi	a4,a5,255
    80002af0:	02d00793          	li	a5,45
    80002af4:	08f70263          	beq	a4,a5,80002b78 <vprintfmt+0x2ac>
    80002af8:	fc842783          	lw	a5,-56(s0)
    80002afc:	00078593          	mv	a1,a5
    80002b00:	00090513          	mv	a0,s2
    80002b04:	3f4000ef          	jal	ra,80002ef8 <strnlen>
    80002b08:	00050793          	mv	a5,a0
    80002b0c:	fcc42703          	lw	a4,-52(s0)
    80002b10:	0007879b          	sext.w	a5,a5
    80002b14:	40f707bb          	subw	a5,a4,a5
    80002b18:	0007879b          	sext.w	a5,a5
    80002b1c:	fcf42623          	sw	a5,-52(s0)
    80002b20:	0280006f          	j	80002b48 <vprintfmt+0x27c>
    80002b24:	fc744783          	lbu	a5,-57(s0)
    80002b28:	0007879b          	sext.w	a5,a5
    80002b2c:	fa843703          	ld	a4,-88(s0)
    80002b30:	fa043583          	ld	a1,-96(s0)
    80002b34:	00078513          	mv	a0,a5
    80002b38:	000700e7          	jalr	a4
    80002b3c:	fcc42783          	lw	a5,-52(s0)
    80002b40:	fff7879b          	addiw	a5,a5,-1
    80002b44:	fcf42623          	sw	a5,-52(s0)
    80002b48:	fcc42783          	lw	a5,-52(s0)
    80002b4c:	0007879b          	sext.w	a5,a5
    80002b50:	fcf04ae3          	bgtz	a5,80002b24 <vprintfmt+0x258>
    80002b54:	0240006f          	j	80002b78 <vprintfmt+0x2ac>
    80002b58:	fa843783          	ld	a5,-88(s0)
    80002b5c:	fa043583          	ld	a1,-96(s0)
    80002b60:	00048513          	mv	a0,s1
    80002b64:	000780e7          	jalr	a5
    80002b68:	00190913          	addi	s2,s2,1
    80002b6c:	fcc42783          	lw	a5,-52(s0)
    80002b70:	fff7879b          	addiw	a5,a5,-1
    80002b74:	fcf42623          	sw	a5,-52(s0)
    80002b78:	00094783          	lbu	a5,0(s2)
    80002b7c:	0007849b          	sext.w	s1,a5
    80002b80:	04048463          	beqz	s1,80002bc8 <vprintfmt+0x2fc>
    80002b84:	fc842783          	lw	a5,-56(s0)
    80002b88:	0007879b          	sext.w	a5,a5
    80002b8c:	fc07c6e3          	bltz	a5,80002b58 <vprintfmt+0x28c>
    80002b90:	fc842783          	lw	a5,-56(s0)
    80002b94:	fff7879b          	addiw	a5,a5,-1
    80002b98:	fcf42423          	sw	a5,-56(s0)
    80002b9c:	fc842783          	lw	a5,-56(s0)
    80002ba0:	0007879b          	sext.w	a5,a5
    80002ba4:	fa07dae3          	bgez	a5,80002b58 <vprintfmt+0x28c>
    80002ba8:	0200006f          	j	80002bc8 <vprintfmt+0x2fc>
    80002bac:	fa843783          	ld	a5,-88(s0)
    80002bb0:	fa043583          	ld	a1,-96(s0)
    80002bb4:	02000513          	li	a0,32
    80002bb8:	000780e7          	jalr	a5
    80002bbc:	fcc42783          	lw	a5,-52(s0)
    80002bc0:	fff7879b          	addiw	a5,a5,-1
    80002bc4:	fcf42623          	sw	a5,-52(s0)
    80002bc8:	fcc42783          	lw	a5,-52(s0)
    80002bcc:	0007879b          	sext.w	a5,a5
    80002bd0:	fcf04ee3          	bgtz	a5,80002bac <vprintfmt+0x2e0>
    80002bd4:	1040006f          	j	80002cd8 <vprintfmt+0x40c>
    80002bd8:	fd042703          	lw	a4,-48(s0)
    80002bdc:	f9040793          	addi	a5,s0,-112
    80002be0:	00070593          	mv	a1,a4
    80002be4:	00078513          	mv	a0,a5
    80002be8:	c51ff0ef          	jal	ra,80002838 <getint>
    80002bec:	00050793          	mv	a5,a0
    80002bf0:	fcf43c23          	sd	a5,-40(s0)
    80002bf4:	fd843783          	ld	a5,-40(s0)
    80002bf8:	0207d063          	bgez	a5,80002c18 <vprintfmt+0x34c>
    80002bfc:	fa843783          	ld	a5,-88(s0)
    80002c00:	fa043583          	ld	a1,-96(s0)
    80002c04:	02d00513          	li	a0,45
    80002c08:	000780e7          	jalr	a5
    80002c0c:	fd843783          	ld	a5,-40(s0)
    80002c10:	40f007b3          	neg	a5,a5
    80002c14:	fcf43c23          	sd	a5,-40(s0)
    80002c18:	00a00793          	li	a5,10
    80002c1c:	fcf42a23          	sw	a5,-44(s0)
    80002c20:	0640006f          	j	80002c84 <vprintfmt+0x3b8>
    80002c24:	00a00793          	li	a5,10
    80002c28:	fcf42a23          	sw	a5,-44(s0)
    80002c2c:	0400006f          	j	80002c6c <vprintfmt+0x3a0>
    80002c30:	00800793          	li	a5,8
    80002c34:	fcf42a23          	sw	a5,-44(s0)
    80002c38:	0340006f          	j	80002c6c <vprintfmt+0x3a0>
    80002c3c:	00100793          	li	a5,1
    80002c40:	fcf42823          	sw	a5,-48(s0)
    80002c44:	fa843783          	ld	a5,-88(s0)
    80002c48:	fa043583          	ld	a1,-96(s0)
    80002c4c:	03000513          	li	a0,48
    80002c50:	000780e7          	jalr	a5
    80002c54:	fa843783          	ld	a5,-88(s0)
    80002c58:	fa043583          	ld	a1,-96(s0)
    80002c5c:	07800513          	li	a0,120
    80002c60:	000780e7          	jalr	a5
    80002c64:	01000793          	li	a5,16
    80002c68:	fcf42a23          	sw	a5,-44(s0)
    80002c6c:	fd042703          	lw	a4,-48(s0)
    80002c70:	f9040793          	addi	a5,s0,-112
    80002c74:	00070593          	mv	a1,a4
    80002c78:	00078513          	mv	a0,a5
    80002c7c:	b21ff0ef          	jal	ra,8000279c <getuint>
    80002c80:	fca43c23          	sd	a0,-40(s0)
    80002c84:	fd442683          	lw	a3,-44(s0)
    80002c88:	fc744783          	lbu	a5,-57(s0)
    80002c8c:	0007879b          	sext.w	a5,a5
    80002c90:	fcc42703          	lw	a4,-52(s0)
    80002c94:	fd843603          	ld	a2,-40(s0)
    80002c98:	fa043583          	ld	a1,-96(s0)
    80002c9c:	fa843503          	ld	a0,-88(s0)
    80002ca0:	9b5ff0ef          	jal	ra,80002654 <printnum>
    80002ca4:	0340006f          	j	80002cd8 <vprintfmt+0x40c>
    80002ca8:	fa843783          	ld	a5,-88(s0)
    80002cac:	fa043583          	ld	a1,-96(s0)
    80002cb0:	00048513          	mv	a0,s1
    80002cb4:	000780e7          	jalr	a5
    80002cb8:	0200006f          	j	80002cd8 <vprintfmt+0x40c>
    80002cbc:	fa843783          	ld	a5,-88(s0)
    80002cc0:	fa043583          	ld	a1,-96(s0)
    80002cc4:	02500513          	li	a0,37
    80002cc8:	000780e7          	jalr	a5
    80002ccc:	fb843783          	ld	a5,-72(s0)
    80002cd0:	f8f43c23          	sd	a5,-104(s0)
    80002cd4:	00000013          	nop
    80002cd8:	c41ff06f          	j	80002918 <vprintfmt+0x4c>
    80002cdc:	00000013          	nop
    80002ce0:	06813083          	ld	ra,104(sp)
    80002ce4:	06013403          	ld	s0,96(sp)
    80002ce8:	05813483          	ld	s1,88(sp)
    80002cec:	05013903          	ld	s2,80(sp)
    80002cf0:	07010113          	addi	sp,sp,112
    80002cf4:	00008067          	ret

0000000080002cf8 <printf>:
    80002cf8:	f9010113          	addi	sp,sp,-112
    80002cfc:	02113423          	sd	ra,40(sp)
    80002d00:	02813023          	sd	s0,32(sp)
    80002d04:	03010413          	addi	s0,sp,48
    80002d08:	fca43c23          	sd	a0,-40(s0)
    80002d0c:	00b43423          	sd	a1,8(s0)
    80002d10:	00c43823          	sd	a2,16(s0)
    80002d14:	00d43c23          	sd	a3,24(s0)
    80002d18:	02e43023          	sd	a4,32(s0)
    80002d1c:	02f43423          	sd	a5,40(s0)
    80002d20:	03043823          	sd	a6,48(s0)
    80002d24:	03143c23          	sd	a7,56(s0)
    80002d28:	04040793          	addi	a5,s0,64
    80002d2c:	fc878793          	addi	a5,a5,-56
    80002d30:	fef43423          	sd	a5,-24(s0)
    80002d34:	fe843783          	ld	a5,-24(s0)
    80002d38:	00078693          	mv	a3,a5
    80002d3c:	fd843603          	ld	a2,-40(s0)
    80002d40:	00000593          	li	a1,0
    80002d44:	fffff517          	auipc	a0,0xfffff
    80002d48:	72850513          	addi	a0,a0,1832 # 8000246c <putchar>
    80002d4c:	b81ff0ef          	jal	ra,800028cc <vprintfmt>
    80002d50:	00000793          	li	a5,0
    80002d54:	00078513          	mv	a0,a5
    80002d58:	02813083          	ld	ra,40(sp)
    80002d5c:	02013403          	ld	s0,32(sp)
    80002d60:	07010113          	addi	sp,sp,112
    80002d64:	00008067          	ret

0000000080002d68 <sprintf_putch.2903>:
    80002d68:	fc010113          	addi	sp,sp,-64
    80002d6c:	02813c23          	sd	s0,56(sp)
    80002d70:	04010413          	addi	s0,sp,64
    80002d74:	00050793          	mv	a5,a0
    80002d78:	fcb43823          	sd	a1,-48(s0)
    80002d7c:	fcf42e23          	sw	a5,-36(s0)
    80002d80:	fc743423          	sd	t2,-56(s0)
    80002d84:	fd043783          	ld	a5,-48(s0)
    80002d88:	fef43423          	sd	a5,-24(s0)
    80002d8c:	fe843783          	ld	a5,-24(s0)
    80002d90:	0007b783          	ld	a5,0(a5)
    80002d94:	fdc42703          	lw	a4,-36(s0)
    80002d98:	0ff77713          	andi	a4,a4,255
    80002d9c:	00e78023          	sb	a4,0(a5)
    80002da0:	fe843783          	ld	a5,-24(s0)
    80002da4:	0007b783          	ld	a5,0(a5)
    80002da8:	00178713          	addi	a4,a5,1
    80002dac:	fe843783          	ld	a5,-24(s0)
    80002db0:	00e7b023          	sd	a4,0(a5)
    80002db4:	00000013          	nop
    80002db8:	03813403          	ld	s0,56(sp)
    80002dbc:	04010113          	addi	sp,sp,64
    80002dc0:	00008067          	ret

0000000080002dc4 <sprintf>:
    80002dc4:	f0010113          	addi	sp,sp,-256
    80002dc8:	0c113423          	sd	ra,200(sp)
    80002dcc:	0c813023          	sd	s0,192(sp)
    80002dd0:	0d010413          	addi	s0,sp,208
    80002dd4:	f2a43c23          	sd	a0,-200(s0)
    80002dd8:	f2b43823          	sd	a1,-208(s0)
    80002ddc:	00c43023          	sd	a2,0(s0)
    80002de0:	00d43423          	sd	a3,8(s0)
    80002de4:	00e43823          	sd	a4,16(s0)
    80002de8:	00f43c23          	sd	a5,24(s0)
    80002dec:	03043023          	sd	a6,32(s0)
    80002df0:	03143423          	sd	a7,40(s0)
    80002df4:	03040793          	addi	a5,s0,48
    80002df8:	fcf43c23          	sd	a5,-40(s0)
    80002dfc:	f4840793          	addi	a5,s0,-184
    80002e00:	f4840713          	addi	a4,s0,-184
    80002e04:	39700693          	li	a3,919
    80002e08:	00d7a023          	sw	a3,0(a5)
    80002e0c:	0183b6b7          	lui	a3,0x183b
    80002e10:	3036869b          	addiw	a3,a3,771
    80002e14:	00d7a223          	sw	a3,4(a5)
    80002e18:	0103b6b7          	lui	a3,0x103b
    80002e1c:	3836869b          	addiw	a3,a3,899
    80002e20:	00d7a423          	sw	a3,8(a5)
    80002e24:	000306b7          	lui	a3,0x30
    80002e28:	0676869b          	addiw	a3,a3,103
    80002e2c:	00d7a623          	sw	a3,12(a5)
    80002e30:	00e7b823          	sd	a4,16(a5)
    80002e34:	00000717          	auipc	a4,0x0
    80002e38:	f3470713          	addi	a4,a4,-204 # 80002d68 <sprintf_putch.2903>
    80002e3c:	00e7bc23          	sd	a4,24(a5)
    80002e40:	0000100f          	fence.i
    80002e44:	f3843783          	ld	a5,-200(s0)
    80002e48:	fef43423          	sd	a5,-24(s0)
    80002e4c:	03040793          	addi	a5,s0,48
    80002e50:	fd078793          	addi	a5,a5,-48
    80002e54:	fef43023          	sd	a5,-32(s0)
    80002e58:	fe043703          	ld	a4,-32(s0)
    80002e5c:	f4840793          	addi	a5,s0,-184
    80002e60:	00078513          	mv	a0,a5
    80002e64:	f3840793          	addi	a5,s0,-200
    80002e68:	00070693          	mv	a3,a4
    80002e6c:	f3043603          	ld	a2,-208(s0)
    80002e70:	00078593          	mv	a1,a5
    80002e74:	a59ff0ef          	jal	ra,800028cc <vprintfmt>
    80002e78:	f3843783          	ld	a5,-200(s0)
    80002e7c:	00078023          	sb	zero,0(a5)
    80002e80:	f3843783          	ld	a5,-200(s0)
    80002e84:	00078713          	mv	a4,a5
    80002e88:	fe843783          	ld	a5,-24(s0)
    80002e8c:	40f707b3          	sub	a5,a4,a5
    80002e90:	0007879b          	sext.w	a5,a5
    80002e94:	00078513          	mv	a0,a5
    80002e98:	0c813083          	ld	ra,200(sp)
    80002e9c:	0c013403          	ld	s0,192(sp)
    80002ea0:	10010113          	addi	sp,sp,256
    80002ea4:	00008067          	ret

0000000080002ea8 <strlen>:
    80002ea8:	fd010113          	addi	sp,sp,-48
    80002eac:	02813423          	sd	s0,40(sp)
    80002eb0:	03010413          	addi	s0,sp,48
    80002eb4:	fca43c23          	sd	a0,-40(s0)
    80002eb8:	fd843783          	ld	a5,-40(s0)
    80002ebc:	fef43423          	sd	a5,-24(s0)
    80002ec0:	0100006f          	j	80002ed0 <strlen+0x28>
    80002ec4:	fe843783          	ld	a5,-24(s0)
    80002ec8:	00178793          	addi	a5,a5,1
    80002ecc:	fef43423          	sd	a5,-24(s0)
    80002ed0:	fe843783          	ld	a5,-24(s0)
    80002ed4:	0007c783          	lbu	a5,0(a5)
    80002ed8:	fe0796e3          	bnez	a5,80002ec4 <strlen+0x1c>
    80002edc:	fe843703          	ld	a4,-24(s0)
    80002ee0:	fd843783          	ld	a5,-40(s0)
    80002ee4:	40f707b3          	sub	a5,a4,a5
    80002ee8:	00078513          	mv	a0,a5
    80002eec:	02813403          	ld	s0,40(sp)
    80002ef0:	03010113          	addi	sp,sp,48
    80002ef4:	00008067          	ret

0000000080002ef8 <strnlen>:
    80002ef8:	fd010113          	addi	sp,sp,-48
    80002efc:	02813423          	sd	s0,40(sp)
    80002f00:	03010413          	addi	s0,sp,48
    80002f04:	fca43c23          	sd	a0,-40(s0)
    80002f08:	fcb43823          	sd	a1,-48(s0)
    80002f0c:	fd843783          	ld	a5,-40(s0)
    80002f10:	fef43423          	sd	a5,-24(s0)
    80002f14:	0100006f          	j	80002f24 <strnlen+0x2c>
    80002f18:	fe843783          	ld	a5,-24(s0)
    80002f1c:	00178793          	addi	a5,a5,1
    80002f20:	fef43423          	sd	a5,-24(s0)
    80002f24:	fd043783          	ld	a5,-48(s0)
    80002f28:	fff78713          	addi	a4,a5,-1
    80002f2c:	fce43823          	sd	a4,-48(s0)
    80002f30:	00078863          	beqz	a5,80002f40 <strnlen+0x48>
    80002f34:	fe843783          	ld	a5,-24(s0)
    80002f38:	0007c783          	lbu	a5,0(a5)
    80002f3c:	fc079ee3          	bnez	a5,80002f18 <strnlen+0x20>
    80002f40:	fe843703          	ld	a4,-24(s0)
    80002f44:	fd843783          	ld	a5,-40(s0)
    80002f48:	40f707b3          	sub	a5,a4,a5
    80002f4c:	00078513          	mv	a0,a5
    80002f50:	02813403          	ld	s0,40(sp)
    80002f54:	03010113          	addi	sp,sp,48
    80002f58:	00008067          	ret

0000000080002f5c <strcmp>:
    80002f5c:	fd010113          	addi	sp,sp,-48
    80002f60:	02813423          	sd	s0,40(sp)
    80002f64:	03010413          	addi	s0,sp,48
    80002f68:	fca43c23          	sd	a0,-40(s0)
    80002f6c:	fcb43823          	sd	a1,-48(s0)
    80002f70:	fd843783          	ld	a5,-40(s0)
    80002f74:	00178713          	addi	a4,a5,1
    80002f78:	fce43c23          	sd	a4,-40(s0)
    80002f7c:	0007c783          	lbu	a5,0(a5)
    80002f80:	fef407a3          	sb	a5,-17(s0)
    80002f84:	fd043783          	ld	a5,-48(s0)
    80002f88:	00178713          	addi	a4,a5,1
    80002f8c:	fce43823          	sd	a4,-48(s0)
    80002f90:	0007c783          	lbu	a5,0(a5)
    80002f94:	fef40723          	sb	a5,-18(s0)
    80002f98:	fef44783          	lbu	a5,-17(s0)
    80002f9c:	0ff7f793          	andi	a5,a5,255
    80002fa0:	00078c63          	beqz	a5,80002fb8 <strcmp+0x5c>
    80002fa4:	fef44703          	lbu	a4,-17(s0)
    80002fa8:	fee44783          	lbu	a5,-18(s0)
    80002fac:	0ff77713          	andi	a4,a4,255
    80002fb0:	0ff7f793          	andi	a5,a5,255
    80002fb4:	faf70ee3          	beq	a4,a5,80002f70 <strcmp+0x14>
    80002fb8:	fef44783          	lbu	a5,-17(s0)
    80002fbc:	0007871b          	sext.w	a4,a5
    80002fc0:	fee44783          	lbu	a5,-18(s0)
    80002fc4:	0007879b          	sext.w	a5,a5
    80002fc8:	40f707bb          	subw	a5,a4,a5
    80002fcc:	0007879b          	sext.w	a5,a5
    80002fd0:	00078513          	mv	a0,a5
    80002fd4:	02813403          	ld	s0,40(sp)
    80002fd8:	03010113          	addi	sp,sp,48
    80002fdc:	00008067          	ret

0000000080002fe0 <strcpy>:
    80002fe0:	fd010113          	addi	sp,sp,-48
    80002fe4:	02813423          	sd	s0,40(sp)
    80002fe8:	03010413          	addi	s0,sp,48
    80002fec:	fca43c23          	sd	a0,-40(s0)
    80002ff0:	fcb43823          	sd	a1,-48(s0)
    80002ff4:	fd843783          	ld	a5,-40(s0)
    80002ff8:	fef43423          	sd	a5,-24(s0)
    80002ffc:	00000013          	nop
    80003000:	fd043703          	ld	a4,-48(s0)
    80003004:	00170793          	addi	a5,a4,1
    80003008:	fcf43823          	sd	a5,-48(s0)
    8000300c:	fe843783          	ld	a5,-24(s0)
    80003010:	00178693          	addi	a3,a5,1
    80003014:	fed43423          	sd	a3,-24(s0)
    80003018:	00074703          	lbu	a4,0(a4)
    8000301c:	00e78023          	sb	a4,0(a5)
    80003020:	0007c783          	lbu	a5,0(a5)
    80003024:	fc079ee3          	bnez	a5,80003000 <strcpy+0x20>
    80003028:	fd843783          	ld	a5,-40(s0)
    8000302c:	00078513          	mv	a0,a5
    80003030:	02813403          	ld	s0,40(sp)
    80003034:	03010113          	addi	sp,sp,48
    80003038:	00008067          	ret

000000008000303c <atol>:
    8000303c:	fd010113          	addi	sp,sp,-48
    80003040:	02813423          	sd	s0,40(sp)
    80003044:	03010413          	addi	s0,sp,48
    80003048:	fca43c23          	sd	a0,-40(s0)
    8000304c:	fe043423          	sd	zero,-24(s0)
    80003050:	fe042223          	sw	zero,-28(s0)
    80003054:	0100006f          	j	80003064 <atol+0x28>
    80003058:	fd843783          	ld	a5,-40(s0)
    8000305c:	00178793          	addi	a5,a5,1
    80003060:	fcf43c23          	sd	a5,-40(s0)
    80003064:	fd843783          	ld	a5,-40(s0)
    80003068:	0007c783          	lbu	a5,0(a5)
    8000306c:	00078713          	mv	a4,a5
    80003070:	02000793          	li	a5,32
    80003074:	fef702e3          	beq	a4,a5,80003058 <atol+0x1c>
    80003078:	fd843783          	ld	a5,-40(s0)
    8000307c:	0007c783          	lbu	a5,0(a5)
    80003080:	00078713          	mv	a4,a5
    80003084:	02d00793          	li	a5,45
    80003088:	00f70c63          	beq	a4,a5,800030a0 <atol+0x64>
    8000308c:	fd843783          	ld	a5,-40(s0)
    80003090:	0007c783          	lbu	a5,0(a5)
    80003094:	00078713          	mv	a4,a5
    80003098:	02b00793          	li	a5,43
    8000309c:	06f71c63          	bne	a4,a5,80003114 <atol+0xd8>
    800030a0:	fd843783          	ld	a5,-40(s0)
    800030a4:	0007c783          	lbu	a5,0(a5)
    800030a8:	0007871b          	sext.w	a4,a5
    800030ac:	02d00793          	li	a5,45
    800030b0:	40f707b3          	sub	a5,a4,a5
    800030b4:	0017b793          	seqz	a5,a5
    800030b8:	0ff7f793          	andi	a5,a5,255
    800030bc:	fef42223          	sw	a5,-28(s0)
    800030c0:	fd843783          	ld	a5,-40(s0)
    800030c4:	00178793          	addi	a5,a5,1
    800030c8:	fcf43c23          	sd	a5,-40(s0)
    800030cc:	0480006f          	j	80003114 <atol+0xd8>
    800030d0:	fe843703          	ld	a4,-24(s0)
    800030d4:	00070793          	mv	a5,a4
    800030d8:	00279793          	slli	a5,a5,0x2
    800030dc:	00e787b3          	add	a5,a5,a4
    800030e0:	00179793          	slli	a5,a5,0x1
    800030e4:	fef43423          	sd	a5,-24(s0)
    800030e8:	fd843783          	ld	a5,-40(s0)
    800030ec:	00178713          	addi	a4,a5,1
    800030f0:	fce43c23          	sd	a4,-40(s0)
    800030f4:	0007c783          	lbu	a5,0(a5)
    800030f8:	0007879b          	sext.w	a5,a5
    800030fc:	fd07879b          	addiw	a5,a5,-48
    80003100:	0007879b          	sext.w	a5,a5
    80003104:	00078713          	mv	a4,a5
    80003108:	fe843783          	ld	a5,-24(s0)
    8000310c:	00e787b3          	add	a5,a5,a4
    80003110:	fef43423          	sd	a5,-24(s0)
    80003114:	fd843783          	ld	a5,-40(s0)
    80003118:	0007c783          	lbu	a5,0(a5)
    8000311c:	fa079ae3          	bnez	a5,800030d0 <atol+0x94>
    80003120:	fe442783          	lw	a5,-28(s0)
    80003124:	0007879b          	sext.w	a5,a5
    80003128:	00078863          	beqz	a5,80003138 <atol+0xfc>
    8000312c:	fe843783          	ld	a5,-24(s0)
    80003130:	40f007b3          	neg	a5,a5
    80003134:	0080006f          	j	8000313c <atol+0x100>
    80003138:	fe843783          	ld	a5,-24(s0)
    8000313c:	00078513          	mv	a0,a5
    80003140:	02813403          	ld	s0,40(sp)
    80003144:	03010113          	addi	sp,sp,48
    80003148:	00008067          	ret
