
./I2C/outputs//i2c_eeprom_write.shakti:     file format elf64-littleriscv


Disassembly of section .text.init:

0000000080000000 <_start>:
    80000000:	00000093          	li	ra,0
    80000004:	00000113          	li	sp,0
    80000008:	00000193          	li	gp,0
    8000000c:	00000213          	li	tp,0
    80000010:	00000293          	li	t0,0
    80000014:	00000313          	li	t1,0
    80000018:	00000393          	li	t2,0
    8000001c:	00000413          	li	s0,0
    80000020:	00000493          	li	s1,0
    80000024:	00000513          	li	a0,0
    80000028:	00000593          	li	a1,0
    8000002c:	00000613          	li	a2,0
    80000030:	00000693          	li	a3,0
    80000034:	00000713          	li	a4,0
    80000038:	00000793          	li	a5,0
    8000003c:	00000813          	li	a6,0
    80000040:	00000893          	li	a7,0
    80000044:	00000913          	li	s2,0
    80000048:	00000993          	li	s3,0
    8000004c:	00000a13          	li	s4,0
    80000050:	00000a93          	li	s5,0
    80000054:	00000b13          	li	s6,0
    80000058:	00000b93          	li	s7,0
    8000005c:	00000c13          	li	s8,0
    80000060:	00000c93          	li	s9,0
    80000064:	00000d13          	li	s10,0
    80000068:	00000d93          	li	s11,0
    8000006c:	00000e13          	li	t3,0
    80000070:	00000e93          	li	t4,0
    80000074:	00000f13          	li	t5,0
    80000078:	00000f93          	li	t6,0
    8000007c:	0001e2b7          	lui	t0,0x1e
    80000080:	3002a073          	csrs	mstatus,t0
    80000084:	00100293          	li	t0,1
    80000088:	01f29293          	slli	t0,t0,0x1f
    8000008c:	0002da63          	bgez	t0,800000a0 <_start+0xa0>
    80000090:	00100513          	li	a0,1
    80000094:	00001297          	auipc	t0,0x1
    80000098:	f6a2a623          	sw	a0,-148(t0) # 80001000 <tohost>
    8000009c:	ff5ff06f          	j	80000090 <_start+0x90>
    800000a0:	00000297          	auipc	t0,0x0
    800000a4:	09028293          	addi	t0,t0,144 # 80000130 <_start+0x130>
    800000a8:	30529073          	csrw	mtvec,t0
    800000ac:	00301073          	fssr	zero
    800000b0:	f0000053          	fmv.s.x	ft0,zero
    800000b4:	f00000d3          	fmv.s.x	ft1,zero
    800000b8:	f0000153          	fmv.s.x	ft2,zero
    800000bc:	f00001d3          	fmv.s.x	ft3,zero
    800000c0:	f0000253          	fmv.s.x	ft4,zero
    800000c4:	f00002d3          	fmv.s.x	ft5,zero
    800000c8:	f0000353          	fmv.s.x	ft6,zero
    800000cc:	f00003d3          	fmv.s.x	ft7,zero
    800000d0:	f0000453          	fmv.s.x	fs0,zero
    800000d4:	f00004d3          	fmv.s.x	fs1,zero
    800000d8:	f0000553          	fmv.s.x	fa0,zero
    800000dc:	f00005d3          	fmv.s.x	fa1,zero
    800000e0:	f0000653          	fmv.s.x	fa2,zero
    800000e4:	f00006d3          	fmv.s.x	fa3,zero
    800000e8:	f0000753          	fmv.s.x	fa4,zero
    800000ec:	f00007d3          	fmv.s.x	fa5,zero
    800000f0:	f0000853          	fmv.s.x	fa6,zero
    800000f4:	f00008d3          	fmv.s.x	fa7,zero
    800000f8:	f0000953          	fmv.s.x	fs2,zero
    800000fc:	f00009d3          	fmv.s.x	fs3,zero
    80000100:	f0000a53          	fmv.s.x	fs4,zero
    80000104:	f0000ad3          	fmv.s.x	fs5,zero
    80000108:	f0000b53          	fmv.s.x	fs6,zero
    8000010c:	f0000bd3          	fmv.s.x	fs7,zero
    80000110:	f0000c53          	fmv.s.x	fs8,zero
    80000114:	f0000cd3          	fmv.s.x	fs9,zero
    80000118:	f0000d53          	fmv.s.x	fs10,zero
    8000011c:	f0000dd3          	fmv.s.x	fs11,zero
    80000120:	f0000e53          	fmv.s.x	ft8,zero
    80000124:	f0000ed3          	fmv.s.x	ft9,zero
    80000128:	f0000f53          	fmv.s.x	ft10,zero
    8000012c:	f0000fd3          	fmv.s.x	ft11,zero
    80000130:	00000297          	auipc	t0,0x0
    80000134:	04028293          	addi	t0,t0,64 # 80000170 <trap_entry>
    80000138:	30529073          	csrw	mtvec,t0
    8000013c:	00008197          	auipc	gp,0x8
    80000140:	05c18193          	addi	gp,gp,92 # 80008198 <__global_pointer$>
    80000144:	89718213          	addi	tp,gp,-1897 # 80007a2f <_end+0x3f>
    80000148:	fc027213          	andi	tp,tp,-64
    8000014c:	f1402573          	csrr	a0,mhartid
    80000150:	00100593          	li	a1,1
    80000154:	00b57063          	bleu	a1,a0,80000154 <_start+0x154>
    80000158:	00c51613          	slli	a2,a0,0xc
    8000015c:	00c20233          	add	tp,tp,a2
    80000160:	00150113          	addi	sp,a0,1
    80000164:	00c11113          	slli	sp,sp,0xc
    80000168:	00410133          	add	sp,sp,tp
    8000016c:	34c0206f          	j	800024b8 <_init>

0000000080000170 <trap_entry>:
    80000170:	ef010113          	addi	sp,sp,-272
    80000174:	00113423          	sd	ra,8(sp)
    80000178:	00213823          	sd	sp,16(sp)
    8000017c:	00313c23          	sd	gp,24(sp)
    80000180:	02413023          	sd	tp,32(sp)
    80000184:	02513423          	sd	t0,40(sp)
    80000188:	02613823          	sd	t1,48(sp)
    8000018c:	02713c23          	sd	t2,56(sp)
    80000190:	04813023          	sd	s0,64(sp)
    80000194:	04913423          	sd	s1,72(sp)
    80000198:	04a13823          	sd	a0,80(sp)
    8000019c:	04b13c23          	sd	a1,88(sp)
    800001a0:	06c13023          	sd	a2,96(sp)
    800001a4:	06d13423          	sd	a3,104(sp)
    800001a8:	06e13823          	sd	a4,112(sp)
    800001ac:	06f13c23          	sd	a5,120(sp)
    800001b0:	09013023          	sd	a6,128(sp)
    800001b4:	09113423          	sd	a7,136(sp)
    800001b8:	09213823          	sd	s2,144(sp)
    800001bc:	09313c23          	sd	s3,152(sp)
    800001c0:	0b413023          	sd	s4,160(sp)
    800001c4:	0b513423          	sd	s5,168(sp)
    800001c8:	0b613823          	sd	s6,176(sp)
    800001cc:	0b713c23          	sd	s7,184(sp)
    800001d0:	0d813023          	sd	s8,192(sp)
    800001d4:	0d913423          	sd	s9,200(sp)
    800001d8:	0da13823          	sd	s10,208(sp)
    800001dc:	0db13c23          	sd	s11,216(sp)
    800001e0:	0fc13023          	sd	t3,224(sp)
    800001e4:	0fd13423          	sd	t4,232(sp)
    800001e8:	0fe13823          	sd	t5,240(sp)
    800001ec:	0ff13c23          	sd	t6,248(sp)
    800001f0:	34202573          	csrr	a0,mcause
    800001f4:	341025f3          	csrr	a1,mepc
    800001f8:	00010613          	mv	a2,sp
    800001fc:	6b8010ef          	jal	ra,800018b4 <handle_trap>
    80000200:	34151073          	csrw	mepc,a0
    80000204:	000022b7          	lui	t0,0x2
    80000208:	8002829b          	addiw	t0,t0,-2048
    8000020c:	3002a073          	csrs	mstatus,t0
    80000210:	00813083          	ld	ra,8(sp)
    80000214:	01013103          	ld	sp,16(sp)
    80000218:	01813183          	ld	gp,24(sp)
    8000021c:	02013203          	ld	tp,32(sp)
    80000220:	02813283          	ld	t0,40(sp)
    80000224:	03013303          	ld	t1,48(sp)
    80000228:	03813383          	ld	t2,56(sp)
    8000022c:	04013403          	ld	s0,64(sp)
    80000230:	04813483          	ld	s1,72(sp)
    80000234:	05013503          	ld	a0,80(sp)
    80000238:	05813583          	ld	a1,88(sp)
    8000023c:	06013603          	ld	a2,96(sp)
    80000240:	06813683          	ld	a3,104(sp)
    80000244:	07013703          	ld	a4,112(sp)
    80000248:	07813783          	ld	a5,120(sp)
    8000024c:	08013803          	ld	a6,128(sp)
    80000250:	08813883          	ld	a7,136(sp)
    80000254:	09013903          	ld	s2,144(sp)
    80000258:	09813983          	ld	s3,152(sp)
    8000025c:	0a013a03          	ld	s4,160(sp)
    80000260:	0a813a83          	ld	s5,168(sp)
    80000264:	0b013b03          	ld	s6,176(sp)
    80000268:	0b813b83          	ld	s7,184(sp)
    8000026c:	0c013c03          	ld	s8,192(sp)
    80000270:	0c813c83          	ld	s9,200(sp)
    80000274:	0d013d03          	ld	s10,208(sp)
    80000278:	0d813d83          	ld	s11,216(sp)
    8000027c:	0e013e03          	ld	t3,224(sp)
    80000280:	0e813e83          	ld	t4,232(sp)
    80000284:	0f013f03          	ld	t5,240(sp)
    80000288:	0f813f83          	ld	t6,248(sp)
    8000028c:	11010113          	addi	sp,sp,272
    80000290:	30200073          	mret

Disassembly of section .tohost:

0000000080001000 <tohost>:
	...

0000000080001040 <fromhost>:
	...

Disassembly of section .text:

0000000080001048 <get_i2c_shakti>:
    80001048:	fe010113          	addi	sp,sp,-32
    8000104c:	00813c23          	sd	s0,24(sp)
    80001050:	02010413          	addi	s0,sp,32
    80001054:	fea43423          	sd	a0,-24(s0)
    80001058:	fe843783          	ld	a5,-24(s0)
    8000105c:	0007a783          	lw	a5,0(a5)
    80001060:	00078513          	mv	a0,a5
    80001064:	01813403          	ld	s0,24(sp)
    80001068:	02010113          	addi	sp,sp,32
    8000106c:	00008067          	ret

0000000080001070 <set_i2c_shakti>:
    80001070:	fe010113          	addi	sp,sp,-32
    80001074:	00813c23          	sd	s0,24(sp)
    80001078:	02010413          	addi	s0,sp,32
    8000107c:	fea43423          	sd	a0,-24(s0)
    80001080:	00058793          	mv	a5,a1
    80001084:	fef42223          	sw	a5,-28(s0)
    80001088:	fe843783          	ld	a5,-24(s0)
    8000108c:	fe442703          	lw	a4,-28(s0)
    80001090:	00e7a023          	sw	a4,0(a5)
    80001094:	00000013          	nop
    80001098:	01813403          	ld	s0,24(sp)
    8000109c:	02010113          	addi	sp,sp,32
    800010a0:	00008067          	ret

00000000800010a4 <waitfor>:
    800010a4:	fd010113          	addi	sp,sp,-48
    800010a8:	02813423          	sd	s0,40(sp)
    800010ac:	03010413          	addi	s0,sp,48
    800010b0:	00050793          	mv	a5,a0
    800010b4:	fcf42e23          	sw	a5,-36(s0)
    800010b8:	fe042623          	sw	zero,-20(s0)
    800010bc:	00000013          	nop
    800010c0:	fec42783          	lw	a5,-20(s0)
    800010c4:	0017871b          	addiw	a4,a5,1
    800010c8:	fee42623          	sw	a4,-20(s0)
    800010cc:	fdc42703          	lw	a4,-36(s0)
    800010d0:	0007071b          	sext.w	a4,a4
    800010d4:	fee7e6e3          	bltu	a5,a4,800010c0 <waitfor+0x1c>
    800010d8:	00000013          	nop
    800010dc:	02813403          	ld	s0,40(sp)
    800010e0:	03010113          	addi	sp,sp,48
    800010e4:	00008067          	ret

00000000800010e8 <i2c_start>:
    800010e8:	ff010113          	addi	sp,sp,-16
    800010ec:	00113423          	sd	ra,8(sp)
    800010f0:	00813023          	sd	s0,0(sp)
    800010f4:	01010413          	addi	s0,sp,16
    800010f8:	00007797          	auipc	a5,0x7
    800010fc:	8a078793          	addi	a5,a5,-1888 # 80007998 <i2c_control>
    80001100:	0007b783          	ld	a5,0(a5)
    80001104:	0c500593          	li	a1,197
    80001108:	00078513          	mv	a0,a5
    8000110c:	f65ff0ef          	jal	ra,80001070 <set_i2c_shakti>
    80001110:	00000013          	nop
    80001114:	00813083          	ld	ra,8(sp)
    80001118:	00013403          	ld	s0,0(sp)
    8000111c:	01010113          	addi	sp,sp,16
    80001120:	00008067          	ret

0000000080001124 <i2c_start_eni>:
    80001124:	ff010113          	addi	sp,sp,-16
    80001128:	00113423          	sd	ra,8(sp)
    8000112c:	00813023          	sd	s0,0(sp)
    80001130:	01010413          	addi	s0,sp,16
    80001134:	00007797          	auipc	a5,0x7
    80001138:	86478793          	addi	a5,a5,-1948 # 80007998 <i2c_control>
    8000113c:	0007b783          	ld	a5,0(a5)
    80001140:	0c500593          	li	a1,197
    80001144:	00078513          	mv	a0,a5
    80001148:	f29ff0ef          	jal	ra,80001070 <set_i2c_shakti>
    8000114c:	00000013          	nop
    80001150:	00813083          	ld	ra,8(sp)
    80001154:	00013403          	ld	s0,0(sp)
    80001158:	01010113          	addi	sp,sp,16
    8000115c:	00008067          	ret

0000000080001160 <i2c_repstart>:
    80001160:	ff010113          	addi	sp,sp,-16
    80001164:	00113423          	sd	ra,8(sp)
    80001168:	00813023          	sd	s0,0(sp)
    8000116c:	01010413          	addi	s0,sp,16
    80001170:	00007797          	auipc	a5,0x7
    80001174:	82878793          	addi	a5,a5,-2008 # 80007998 <i2c_control>
    80001178:	0007b783          	ld	a5,0(a5)
    8000117c:	04500593          	li	a1,69
    80001180:	00078513          	mv	a0,a5
    80001184:	eedff0ef          	jal	ra,80001070 <set_i2c_shakti>
    80001188:	00000013          	nop
    8000118c:	00813083          	ld	ra,8(sp)
    80001190:	00013403          	ld	s0,0(sp)
    80001194:	01010113          	addi	sp,sp,16
    80001198:	00008067          	ret

000000008000119c <i2c_repstart_eni>:
    8000119c:	ff010113          	addi	sp,sp,-16
    800011a0:	00113423          	sd	ra,8(sp)
    800011a4:	00813023          	sd	s0,0(sp)
    800011a8:	01010413          	addi	s0,sp,16
    800011ac:	00006797          	auipc	a5,0x6
    800011b0:	7ec78793          	addi	a5,a5,2028 # 80007998 <i2c_control>
    800011b4:	0007b783          	ld	a5,0(a5)
    800011b8:	04500593          	li	a1,69
    800011bc:	00078513          	mv	a0,a5
    800011c0:	eb1ff0ef          	jal	ra,80001070 <set_i2c_shakti>
    800011c4:	00000013          	nop
    800011c8:	00813083          	ld	ra,8(sp)
    800011cc:	00013403          	ld	s0,0(sp)
    800011d0:	01010113          	addi	sp,sp,16
    800011d4:	00008067          	ret

00000000800011d8 <i2c_stop>:
    800011d8:	ff010113          	addi	sp,sp,-16
    800011dc:	00113423          	sd	ra,8(sp)
    800011e0:	00813023          	sd	s0,0(sp)
    800011e4:	01010413          	addi	s0,sp,16
    800011e8:	00006797          	auipc	a5,0x6
    800011ec:	7b078793          	addi	a5,a5,1968 # 80007998 <i2c_control>
    800011f0:	0007b783          	ld	a5,0(a5)
    800011f4:	0c300593          	li	a1,195
    800011f8:	00078513          	mv	a0,a5
    800011fc:	e75ff0ef          	jal	ra,80001070 <set_i2c_shakti>
    80001200:	00000013          	nop
    80001204:	00813083          	ld	ra,8(sp)
    80001208:	00013403          	ld	s0,0(sp)
    8000120c:	01010113          	addi	sp,sp,16
    80001210:	00008067          	ret

0000000080001214 <shakti_init_i2c>:
    80001214:	fe010113          	addi	sp,sp,-32
    80001218:	00113c23          	sd	ra,24(sp)
    8000121c:	00813823          	sd	s0,16(sp)
    80001220:	02010413          	addi	s0,sp,32
    80001224:	fe0407a3          	sb	zero,-17(s0)
    80001228:	00002517          	auipc	a0,0x2
    8000122c:	f2850513          	addi	a0,a0,-216 # 80003150 <atol+0x114>
    80001230:	2c9010ef          	jal	ra,80002cf8 <printf>
    80001234:	81818793          	addi	a5,gp,-2024 # 800079b0 <i2c_prescale>
    80001238:	0007b783          	ld	a5,0(a5)
    8000123c:	01f00593          	li	a1,31
    80001240:	00078513          	mv	a0,a5
    80001244:	e2dff0ef          	jal	ra,80001070 <set_i2c_shakti>
    80001248:	81818793          	addi	a5,gp,-2024 # 800079b0 <i2c_prescale>
    8000124c:	0007b783          	ld	a5,0(a5)
    80001250:	00078513          	mv	a0,a5
    80001254:	df5ff0ef          	jal	ra,80001048 <get_i2c_shakti>
    80001258:	00050793          	mv	a5,a0
    8000125c:	fef407a3          	sb	a5,-17(s0)
    80001260:	82018793          	addi	a5,gp,-2016 # 800079b8 <i2c_scl>
    80001264:	0007b783          	ld	a5,0(a5)
    80001268:	09100593          	li	a1,145
    8000126c:	00078513          	mv	a0,a5
    80001270:	e01ff0ef          	jal	ra,80001070 <set_i2c_shakti>
    80001274:	82018793          	addi	a5,gp,-2016 # 800079b8 <i2c_scl>
    80001278:	0007b783          	ld	a5,0(a5)
    8000127c:	00078513          	mv	a0,a5
    80001280:	dc9ff0ef          	jal	ra,80001048 <get_i2c_shakti>
    80001284:	00050793          	mv	a5,a0
    80001288:	fef407a3          	sb	a5,-17(s0)
    8000128c:	fef44783          	lbu	a5,-17(s0)
    80001290:	0ff7f713          	andi	a4,a5,255
    80001294:	09100793          	li	a5,145
    80001298:	02f70263          	beq	a4,a5,800012bc <shakti_init_i2c+0xa8>
    8000129c:	fef44783          	lbu	a5,-17(s0)
    800012a0:	0007879b          	sext.w	a5,a5
    800012a4:	00078593          	mv	a1,a5
    800012a8:	00002517          	auipc	a0,0x2
    800012ac:	ed050513          	addi	a0,a0,-304 # 80003178 <atol+0x13c>
    800012b0:	249010ef          	jal	ra,80002cf8 <printf>
    800012b4:	05200793          	li	a5,82
    800012b8:	14c0006f          	j	80001404 <shakti_init_i2c+0x1f0>
    800012bc:	00002517          	auipc	a0,0x2
    800012c0:	f0450513          	addi	a0,a0,-252 # 800031c0 <atol+0x184>
    800012c4:	235010ef          	jal	ra,80002cf8 <printf>
    800012c8:	00002517          	auipc	a0,0x2
    800012cc:	f1850513          	addi	a0,a0,-232 # 800031e0 <atol+0x1a4>
    800012d0:	229010ef          	jal	ra,80002cf8 <printf>
    800012d4:	00006797          	auipc	a5,0x6
    800012d8:	6c478793          	addi	a5,a5,1732 # 80007998 <i2c_control>
    800012dc:	0007b783          	ld	a5,0(a5)
    800012e0:	08000593          	li	a1,128
    800012e4:	00078513          	mv	a0,a5
    800012e8:	d89ff0ef          	jal	ra,80001070 <set_i2c_shakti>
    800012ec:	00002517          	auipc	a0,0x2
    800012f0:	f1c50513          	addi	a0,a0,-228 # 80003208 <atol+0x1cc>
    800012f4:	205010ef          	jal	ra,80002cf8 <printf>
    800012f8:	00002517          	auipc	a0,0x2
    800012fc:	f3850513          	addi	a0,a0,-200 # 80003230 <atol+0x1f4>
    80001300:	1f9010ef          	jal	ra,80002cf8 <printf>
    80001304:	00006797          	auipc	a5,0x6
    80001308:	69478793          	addi	a5,a5,1684 # 80007998 <i2c_control>
    8000130c:	0007b783          	ld	a5,0(a5)
    80001310:	00078513          	mv	a0,a5
    80001314:	d35ff0ef          	jal	ra,80001048 <get_i2c_shakti>
    80001318:	00050793          	mv	a5,a0
    8000131c:	fef407a3          	sb	a5,-17(s0)
    80001320:	fef44783          	lbu	a5,-17(s0)
    80001324:	0007879b          	sext.w	a5,a5
    80001328:	00078593          	mv	a1,a5
    8000132c:	00002517          	auipc	a0,0x2
    80001330:	f2450513          	addi	a0,a0,-220 # 80003250 <atol+0x214>
    80001334:	1c5010ef          	jal	ra,80002cf8 <printf>
    80001338:	fef44783          	lbu	a5,-17(s0)
    8000133c:	0007879b          	sext.w	a5,a5
    80001340:	07f7f793          	andi	a5,a5,127
    80001344:	0007879b          	sext.w	a5,a5
    80001348:	00078c63          	beqz	a5,80001360 <shakti_init_i2c+0x14c>
    8000134c:	00002517          	auipc	a0,0x2
    80001350:	f3450513          	addi	a0,a0,-204 # 80003280 <atol+0x244>
    80001354:	1a5010ef          	jal	ra,80002cf8 <printf>
    80001358:	05200793          	li	a5,82
    8000135c:	0a80006f          	j	80001404 <shakti_init_i2c+0x1f0>
    80001360:	00002517          	auipc	a0,0x2
    80001364:	f3850513          	addi	a0,a0,-200 # 80003298 <atol+0x25c>
    80001368:	191010ef          	jal	ra,80002cf8 <printf>
    8000136c:	38400513          	li	a0,900
    80001370:	d35ff0ef          	jal	ra,800010a4 <waitfor>
    80001374:	00002517          	auipc	a0,0x2
    80001378:	f4450513          	addi	a0,a0,-188 # 800032b8 <atol+0x27c>
    8000137c:	17d010ef          	jal	ra,80002cf8 <printf>
    80001380:	00006797          	auipc	a5,0x6
    80001384:	61878793          	addi	a5,a5,1560 # 80007998 <i2c_control>
    80001388:	0007b783          	ld	a5,0(a5)
    8000138c:	0c100593          	li	a1,193
    80001390:	00078513          	mv	a0,a5
    80001394:	cddff0ef          	jal	ra,80001070 <set_i2c_shakti>
    80001398:	81018793          	addi	a5,gp,-2032 # 800079a8 <i2c_status>
    8000139c:	0007b783          	ld	a5,0(a5)
    800013a0:	00078513          	mv	a0,a5
    800013a4:	ca5ff0ef          	jal	ra,80001048 <get_i2c_shakti>
    800013a8:	00050793          	mv	a5,a0
    800013ac:	fef407a3          	sb	a5,-17(s0)
    800013b0:	fef44783          	lbu	a5,-17(s0)
    800013b4:	0007879b          	sext.w	a5,a5
    800013b8:	00078593          	mv	a1,a5
    800013bc:	00002517          	auipc	a0,0x2
    800013c0:	f1450513          	addi	a0,a0,-236 # 800032d0 <atol+0x294>
    800013c4:	135010ef          	jal	ra,80002cf8 <printf>
    800013c8:	fef44783          	lbu	a5,-17(s0)
    800013cc:	0ff7f713          	andi	a4,a5,255
    800013d0:	08100793          	li	a5,129
    800013d4:	00f70c63          	beq	a4,a5,800013ec <shakti_init_i2c+0x1d8>
    800013d8:	00002517          	auipc	a0,0x2
    800013dc:	f1850513          	addi	a0,a0,-232 # 800032f0 <atol+0x2b4>
    800013e0:	119010ef          	jal	ra,80002cf8 <printf>
    800013e4:	05200793          	li	a5,82
    800013e8:	01c0006f          	j	80001404 <shakti_init_i2c+0x1f0>
    800013ec:	00002517          	auipc	a0,0x2
    800013f0:	f1c50513          	addi	a0,a0,-228 # 80003308 <atol+0x2cc>
    800013f4:	105010ef          	jal	ra,80002cf8 <printf>
    800013f8:	00002517          	auipc	a0,0x2
    800013fc:	f3050513          	addi	a0,a0,-208 # 80003328 <atol+0x2ec>
    80001400:	0f9010ef          	jal	ra,80002cf8 <printf>
    80001404:	00078513          	mv	a0,a5
    80001408:	01813083          	ld	ra,24(sp)
    8000140c:	01013403          	ld	s0,16(sp)
    80001410:	02010113          	addi	sp,sp,32
    80001414:	00008067          	ret

0000000080001418 <wait_for_bb>:
    80001418:	fe010113          	addi	sp,sp,-32
    8000141c:	00113c23          	sd	ra,24(sp)
    80001420:	00813823          	sd	s0,16(sp)
    80001424:	02010413          	addi	s0,sp,32
    80001428:	00002517          	auipc	a0,0x2
    8000142c:	f2050513          	addi	a0,a0,-224 # 80003348 <atol+0x30c>
    80001430:	0c9010ef          	jal	ra,80002cf8 <printf>
    80001434:	03c00793          	li	a5,60
    80001438:	fef42623          	sw	a5,-20(s0)
    8000143c:	81018793          	addi	a5,gp,-2032 # 800079a8 <i2c_status>
    80001440:	0007b783          	ld	a5,0(a5)
    80001444:	00078513          	mv	a0,a5
    80001448:	c01ff0ef          	jal	ra,80001048 <get_i2c_shakti>
    8000144c:	00050793          	mv	a5,a0
    80001450:	fef42423          	sw	a5,-24(s0)
    80001454:	0280006f          	j	8000147c <wait_for_bb+0x64>
    80001458:	000027b7          	lui	a5,0x2
    8000145c:	71078513          	addi	a0,a5,1808 # 2710 <_tbss_end+0x270c>
    80001460:	c45ff0ef          	jal	ra,800010a4 <waitfor>
    80001464:	81018793          	addi	a5,gp,-2032 # 800079a8 <i2c_status>
    80001468:	0007b783          	ld	a5,0(a5)
    8000146c:	00078513          	mv	a0,a5
    80001470:	bd9ff0ef          	jal	ra,80001048 <get_i2c_shakti>
    80001474:	00050793          	mv	a5,a0
    80001478:	fef42423          	sw	a5,-24(s0)
    8000147c:	fe842783          	lw	a5,-24(s0)
    80001480:	0017f793          	andi	a5,a5,1
    80001484:	0007879b          	sext.w	a5,a5
    80001488:	00079e63          	bnez	a5,800014a4 <wait_for_bb+0x8c>
    8000148c:	fec42783          	lw	a5,-20(s0)
    80001490:	fff7879b          	addiw	a5,a5,-1
    80001494:	fef42623          	sw	a5,-20(s0)
    80001498:	fec42783          	lw	a5,-20(s0)
    8000149c:	0007879b          	sext.w	a5,a5
    800014a0:	fa079ce3          	bnez	a5,80001458 <wait_for_bb+0x40>
    800014a4:	fec42783          	lw	a5,-20(s0)
    800014a8:	0007879b          	sext.w	a5,a5
    800014ac:	00079c63          	bnez	a5,800014c4 <wait_for_bb+0xac>
    800014b0:	00002517          	auipc	a0,0x2
    800014b4:	ea850513          	addi	a0,a0,-344 # 80003358 <atol+0x31c>
    800014b8:	041010ef          	jal	ra,80002cf8 <printf>
    800014bc:	fb000793          	li	a5,-80
    800014c0:	0080006f          	j	800014c8 <wait_for_bb+0xb0>
    800014c4:	00000793          	li	a5,0
    800014c8:	00078513          	mv	a0,a5
    800014cc:	01813083          	ld	ra,24(sp)
    800014d0:	01013403          	ld	s0,16(sp)
    800014d4:	02010113          	addi	sp,sp,32
    800014d8:	00008067          	ret

00000000800014dc <wait_for_pin>:
    800014dc:	fd010113          	addi	sp,sp,-48
    800014e0:	02113423          	sd	ra,40(sp)
    800014e4:	02813023          	sd	s0,32(sp)
    800014e8:	03010413          	addi	s0,sp,48
    800014ec:	fca43c23          	sd	a0,-40(s0)
    800014f0:	03c00793          	li	a5,60
    800014f4:	fef42623          	sw	a5,-20(s0)
    800014f8:	81018793          	addi	a5,gp,-2032 # 800079a8 <i2c_status>
    800014fc:	0007b783          	ld	a5,0(a5)
    80001500:	00078513          	mv	a0,a5
    80001504:	b45ff0ef          	jal	ra,80001048 <get_i2c_shakti>
    80001508:	00050793          	mv	a5,a0
    8000150c:	00078713          	mv	a4,a5
    80001510:	fd843783          	ld	a5,-40(s0)
    80001514:	00e7a023          	sw	a4,0(a5)
    80001518:	0300006f          	j	80001548 <wait_for_pin+0x6c>
    8000151c:	000027b7          	lui	a5,0x2
    80001520:	71078513          	addi	a0,a5,1808 # 2710 <_tbss_end+0x270c>
    80001524:	b81ff0ef          	jal	ra,800010a4 <waitfor>
    80001528:	81018793          	addi	a5,gp,-2032 # 800079a8 <i2c_status>
    8000152c:	0007b783          	ld	a5,0(a5)
    80001530:	00078513          	mv	a0,a5
    80001534:	b15ff0ef          	jal	ra,80001048 <get_i2c_shakti>
    80001538:	00050793          	mv	a5,a0
    8000153c:	00078713          	mv	a4,a5
    80001540:	fd843783          	ld	a5,-40(s0)
    80001544:	00e7a023          	sw	a4,0(a5)
    80001548:	fd843783          	ld	a5,-40(s0)
    8000154c:	0007a783          	lw	a5,0(a5)
    80001550:	0807f793          	andi	a5,a5,128
    80001554:	0007879b          	sext.w	a5,a5
    80001558:	00078e63          	beqz	a5,80001574 <wait_for_pin+0x98>
    8000155c:	fec42783          	lw	a5,-20(s0)
    80001560:	fff7879b          	addiw	a5,a5,-1
    80001564:	fef42623          	sw	a5,-20(s0)
    80001568:	fec42783          	lw	a5,-20(s0)
    8000156c:	0007879b          	sext.w	a5,a5
    80001570:	fa0796e3          	bnez	a5,8000151c <wait_for_pin+0x40>
    80001574:	fec42783          	lw	a5,-20(s0)
    80001578:	0007879b          	sext.w	a5,a5
    8000157c:	00079c63          	bnez	a5,80001594 <wait_for_pin+0xb8>
    80001580:	00002517          	auipc	a0,0x2
    80001584:	e0050513          	addi	a0,a0,-512 # 80003380 <atol+0x344>
    80001588:	770010ef          	jal	ra,80002cf8 <printf>
    8000158c:	fb000793          	li	a5,-80
    80001590:	0080006f          	j	80001598 <wait_for_pin+0xbc>
    80001594:	00000793          	li	a5,0
    80001598:	00078513          	mv	a0,a5
    8000159c:	02813083          	ld	ra,40(sp)
    800015a0:	02013403          	ld	s0,32(sp)
    800015a4:	03010113          	addi	sp,sp,48
    800015a8:	00008067          	ret

00000000800015ac <shakti_sendbytes>:
    800015ac:	fc010113          	addi	sp,sp,-64
    800015b0:	02113c23          	sd	ra,56(sp)
    800015b4:	02813823          	sd	s0,48(sp)
    800015b8:	04010413          	addi	s0,sp,64
    800015bc:	fca43c23          	sd	a0,-40(s0)
    800015c0:	00058793          	mv	a5,a1
    800015c4:	00068713          	mv	a4,a3
    800015c8:	fcf42a23          	sw	a5,-44(s0)
    800015cc:	00060793          	mv	a5,a2
    800015d0:	fcf42823          	sw	a5,-48(s0)
    800015d4:	00070793          	mv	a5,a4
    800015d8:	fcf42623          	sw	a5,-52(s0)
    800015dc:	00002517          	auipc	a0,0x2
    800015e0:	dc450513          	addi	a0,a0,-572 # 800033a0 <atol+0x364>
    800015e4:	714010ef          	jal	ra,80002cf8 <printf>
    800015e8:	fe042623          	sw	zero,-20(s0)
    800015ec:	09c0006f          	j	80001688 <shakti_sendbytes+0xdc>
    800015f0:	00006797          	auipc	a5,0x6
    800015f4:	3b078793          	addi	a5,a5,944 # 800079a0 <i2c_data>
    800015f8:	0007b683          	ld	a3,0(a5)
    800015fc:	fec42783          	lw	a5,-20(s0)
    80001600:	fd843703          	ld	a4,-40(s0)
    80001604:	00f707b3          	add	a5,a4,a5
    80001608:	0007c783          	lbu	a5,0(a5)
    8000160c:	0007879b          	sext.w	a5,a5
    80001610:	00078593          	mv	a1,a5
    80001614:	00068513          	mv	a0,a3
    80001618:	a59ff0ef          	jal	ra,80001070 <set_i2c_shakti>
    8000161c:	fe440793          	addi	a5,s0,-28
    80001620:	00078513          	mv	a0,a5
    80001624:	eb9ff0ef          	jal	ra,800014dc <wait_for_pin>
    80001628:	00050793          	mv	a5,a0
    8000162c:	fef42423          	sw	a5,-24(s0)
    80001630:	fe842783          	lw	a5,-24(s0)
    80001634:	0007879b          	sext.w	a5,a5
    80001638:	00078e63          	beqz	a5,80001654 <shakti_sendbytes+0xa8>
    8000163c:	00002517          	auipc	a0,0x2
    80001640:	dbc50513          	addi	a0,a0,-580 # 800033f8 <atol+0x3bc>
    80001644:	6b4010ef          	jal	ra,80002cf8 <printf>
    80001648:	b91ff0ef          	jal	ra,800011d8 <i2c_stop>
    8000164c:	faf00793          	li	a5,-81
    80001650:	0940006f          	j	800016e4 <shakti_sendbytes+0x138>
    80001654:	fe442783          	lw	a5,-28(s0)
    80001658:	0087f793          	andi	a5,a5,8
    8000165c:	0007879b          	sext.w	a5,a5
    80001660:	00078e63          	beqz	a5,8000167c <shakti_sendbytes+0xd0>
    80001664:	b75ff0ef          	jal	ra,800011d8 <i2c_stop>
    80001668:	00002517          	auipc	a0,0x2
    8000166c:	dd850513          	addi	a0,a0,-552 # 80003440 <atol+0x404>
    80001670:	688010ef          	jal	ra,80002cf8 <printf>
    80001674:	faf00793          	li	a5,-81
    80001678:	06c0006f          	j	800016e4 <shakti_sendbytes+0x138>
    8000167c:	fec42783          	lw	a5,-20(s0)
    80001680:	0017879b          	addiw	a5,a5,1
    80001684:	fef42623          	sw	a5,-20(s0)
    80001688:	fec42703          	lw	a4,-20(s0)
    8000168c:	fd442783          	lw	a5,-44(s0)
    80001690:	0007071b          	sext.w	a4,a4
    80001694:	0007879b          	sext.w	a5,a5
    80001698:	f4f74ce3          	blt	a4,a5,800015f0 <shakti_sendbytes+0x44>
    8000169c:	fd042783          	lw	a5,-48(s0)
    800016a0:	0007879b          	sext.w	a5,a5
    800016a4:	00078c63          	beqz	a5,800016bc <shakti_sendbytes+0x110>
    800016a8:	00002517          	auipc	a0,0x2
    800016ac:	db850513          	addi	a0,a0,-584 # 80003460 <atol+0x424>
    800016b0:	648010ef          	jal	ra,80002cf8 <printf>
    800016b4:	b25ff0ef          	jal	ra,800011d8 <i2c_stop>
    800016b8:	0280006f          	j	800016e0 <shakti_sendbytes+0x134>
    800016bc:	00002517          	auipc	a0,0x2
    800016c0:	dc450513          	addi	a0,a0,-572 # 80003480 <atol+0x444>
    800016c4:	634010ef          	jal	ra,80002cf8 <printf>
    800016c8:	fcc42783          	lw	a5,-52(s0)
    800016cc:	0007879b          	sext.w	a5,a5
    800016d0:	00079663          	bnez	a5,800016dc <shakti_sendbytes+0x130>
    800016d4:	a8dff0ef          	jal	ra,80001160 <i2c_repstart>
    800016d8:	0080006f          	j	800016e0 <shakti_sendbytes+0x134>
    800016dc:	ac1ff0ef          	jal	ra,8000119c <i2c_repstart_eni>
    800016e0:	fec42783          	lw	a5,-20(s0)
    800016e4:	00078513          	mv	a0,a5
    800016e8:	03813083          	ld	ra,56(sp)
    800016ec:	03013403          	ld	s0,48(sp)
    800016f0:	04010113          	addi	sp,sp,64
    800016f4:	00008067          	ret

00000000800016f8 <shakti_readbytes>:
    800016f8:	fd010113          	addi	sp,sp,-48
    800016fc:	02113423          	sd	ra,40(sp)
    80001700:	02813023          	sd	s0,32(sp)
    80001704:	03010413          	addi	s0,sp,48
    80001708:	fca43c23          	sd	a0,-40(s0)
    8000170c:	00058793          	mv	a5,a1
    80001710:	00060713          	mv	a4,a2
    80001714:	fcf42a23          	sw	a5,-44(s0)
    80001718:	00070793          	mv	a5,a4
    8000171c:	fcf42823          	sw	a5,-48(s0)
    80001720:	fe042423          	sw	zero,-24(s0)
    80001724:	fe042623          	sw	zero,-20(s0)
    80001728:	1580006f          	j	80001880 <shakti_readbytes+0x188>
    8000172c:	fe040793          	addi	a5,s0,-32
    80001730:	00078513          	mv	a0,a5
    80001734:	da9ff0ef          	jal	ra,800014dc <wait_for_pin>
    80001738:	00050793          	mv	a5,a0
    8000173c:	fef42223          	sw	a5,-28(s0)
    80001740:	fe442783          	lw	a5,-28(s0)
    80001744:	0007879b          	sext.w	a5,a5
    80001748:	00078863          	beqz	a5,80001758 <shakti_readbytes+0x60>
    8000174c:	a8dff0ef          	jal	ra,800011d8 <i2c_stop>
    80001750:	fff00793          	li	a5,-1
    80001754:	14c0006f          	j	800018a0 <shakti_readbytes+0x1a8>
    80001758:	fe042783          	lw	a5,-32(s0)
    8000175c:	0087f793          	andi	a5,a5,8
    80001760:	0007879b          	sext.w	a5,a5
    80001764:	02078863          	beqz	a5,80001794 <shakti_readbytes+0x9c>
    80001768:	fec42703          	lw	a4,-20(s0)
    8000176c:	fd442783          	lw	a5,-44(s0)
    80001770:	0007071b          	sext.w	a4,a4
    80001774:	0007879b          	sext.w	a5,a5
    80001778:	00f70e63          	beq	a4,a5,80001794 <shakti_readbytes+0x9c>
    8000177c:	a5dff0ef          	jal	ra,800011d8 <i2c_stop>
    80001780:	00002517          	auipc	a0,0x2
    80001784:	d4050513          	addi	a0,a0,-704 # 800034c0 <atol+0x484>
    80001788:	570010ef          	jal	ra,80002cf8 <printf>
    8000178c:	fff00793          	li	a5,-1
    80001790:	1100006f          	j	800018a0 <shakti_readbytes+0x1a8>
    80001794:	fec42783          	lw	a5,-20(s0)
    80001798:	0007879b          	sext.w	a5,a5
    8000179c:	06078263          	beqz	a5,80001800 <shakti_readbytes+0x108>
    800017a0:	00006797          	auipc	a5,0x6
    800017a4:	20078793          	addi	a5,a5,512 # 800079a0 <i2c_data>
    800017a8:	0007b783          	ld	a5,0(a5)
    800017ac:	00078513          	mv	a0,a5
    800017b0:	899ff0ef          	jal	ra,80001048 <get_i2c_shakti>
    800017b4:	00050793          	mv	a5,a0
    800017b8:	00078693          	mv	a3,a5
    800017bc:	fec42783          	lw	a5,-20(s0)
    800017c0:	fff78793          	addi	a5,a5,-1
    800017c4:	fd843703          	ld	a4,-40(s0)
    800017c8:	00f707b3          	add	a5,a4,a5
    800017cc:	0ff6f713          	andi	a4,a3,255
    800017d0:	00e78023          	sb	a4,0(a5)
    800017d4:	fec42783          	lw	a5,-20(s0)
    800017d8:	fff78793          	addi	a5,a5,-1
    800017dc:	fd843703          	ld	a4,-40(s0)
    800017e0:	00f707b3          	add	a5,a4,a5
    800017e4:	0007c783          	lbu	a5,0(a5)
    800017e8:	0007879b          	sext.w	a5,a5
    800017ec:	00078593          	mv	a1,a5
    800017f0:	00002517          	auipc	a0,0x2
    800017f4:	ce050513          	addi	a0,a0,-800 # 800034d0 <atol+0x494>
    800017f8:	500010ef          	jal	ra,80002cf8 <printf>
    800017fc:	0180006f          	j	80001814 <shakti_readbytes+0x11c>
    80001800:	00006797          	auipc	a5,0x6
    80001804:	1a078793          	addi	a5,a5,416 # 800079a0 <i2c_data>
    80001808:	0007b783          	ld	a5,0(a5)
    8000180c:	00078513          	mv	a0,a5
    80001810:	839ff0ef          	jal	ra,80001048 <get_i2c_shakti>
    80001814:	fd442783          	lw	a5,-44(s0)
    80001818:	fff7879b          	addiw	a5,a5,-1
    8000181c:	0007871b          	sext.w	a4,a5
    80001820:	fec42783          	lw	a5,-20(s0)
    80001824:	0007879b          	sext.w	a5,a5
    80001828:	02e79063          	bne	a5,a4,80001848 <shakti_readbytes+0x150>
    8000182c:	00006797          	auipc	a5,0x6
    80001830:	16c78793          	addi	a5,a5,364 # 80007998 <i2c_control>
    80001834:	0007b783          	ld	a5,0(a5)
    80001838:	04000593          	li	a1,64
    8000183c:	00078513          	mv	a0,a5
    80001840:	831ff0ef          	jal	ra,80001070 <set_i2c_shakti>
    80001844:	0300006f          	j	80001874 <shakti_readbytes+0x17c>
    80001848:	fec42703          	lw	a4,-20(s0)
    8000184c:	fd442783          	lw	a5,-44(s0)
    80001850:	0007071b          	sext.w	a4,a4
    80001854:	0007879b          	sext.w	a5,a5
    80001858:	00f71e63          	bne	a4,a5,80001874 <shakti_readbytes+0x17c>
    8000185c:	fd042783          	lw	a5,-48(s0)
    80001860:	0007879b          	sext.w	a5,a5
    80001864:	00078663          	beqz	a5,80001870 <shakti_readbytes+0x178>
    80001868:	971ff0ef          	jal	ra,800011d8 <i2c_stop>
    8000186c:	0080006f          	j	80001874 <shakti_readbytes+0x17c>
    80001870:	8f1ff0ef          	jal	ra,80001160 <i2c_repstart>
    80001874:	fec42783          	lw	a5,-20(s0)
    80001878:	0017879b          	addiw	a5,a5,1
    8000187c:	fef42623          	sw	a5,-20(s0)
    80001880:	fec42703          	lw	a4,-20(s0)
    80001884:	fd442783          	lw	a5,-44(s0)
    80001888:	0007071b          	sext.w	a4,a4
    8000188c:	0007879b          	sext.w	a5,a5
    80001890:	e8e7dee3          	ble	a4,a5,8000172c <shakti_readbytes+0x34>
    80001894:	fec42783          	lw	a5,-20(s0)
    80001898:	fff7879b          	addiw	a5,a5,-1
    8000189c:	0007879b          	sext.w	a5,a5
    800018a0:	00078513          	mv	a0,a5
    800018a4:	02813083          	ld	ra,40(sp)
    800018a8:	02013403          	ld	s0,32(sp)
    800018ac:	03010113          	addi	sp,sp,48
    800018b0:	00008067          	ret

00000000800018b4 <handle_trap>:
    800018b4:	fd010113          	addi	sp,sp,-48
    800018b8:	02113423          	sd	ra,40(sp)
    800018bc:	02813023          	sd	s0,32(sp)
    800018c0:	03010413          	addi	s0,sp,48
    800018c4:	fea43423          	sd	a0,-24(s0)
    800018c8:	feb43023          	sd	a1,-32(s0)
    800018cc:	fcc43c23          	sd	a2,-40(s0)
    800018d0:	fe043603          	ld	a2,-32(s0)
    800018d4:	fe843583          	ld	a1,-24(s0)
    800018d8:	00002517          	auipc	a0,0x2
    800018dc:	c1050513          	addi	a0,a0,-1008 # 800034e8 <atol+0x4ac>
    800018e0:	418010ef          	jal	ra,80002cf8 <printf>
    800018e4:	00000013          	nop
    800018e8:	00078513          	mv	a0,a5
    800018ec:	02813083          	ld	ra,40(sp)
    800018f0:	02013403          	ld	s0,32(sp)
    800018f4:	03010113          	addi	sp,sp,48
    800018f8:	00008067          	ret

00000000800018fc <main>:
    800018fc:	ea010113          	addi	sp,sp,-352
    80001900:	14113c23          	sd	ra,344(sp)
    80001904:	14813823          	sd	s0,336(sp)
    80001908:	16010413          	addi	s0,sp,352
    8000190c:	30d000ef          	jal	ra,80002418 <uart_init>
    80001910:	00002517          	auipc	a0,0x2
    80001914:	c0050513          	addi	a0,a0,-1024 # 80003510 <atol+0x4d4>
    80001918:	3e0010ef          	jal	ra,80002cf8 <printf>
    8000191c:	fc040823          	sb	zero,-48(s0)
    80001920:	fc0408a3          	sb	zero,-47(s0)
    80001924:	ec040423          	sb	zero,-312(s0)
    80001928:	ec0404a3          	sb	zero,-311(s0)
    8000192c:	fc042c23          	sw	zero,-40(s0)
    80001930:	fe042623          	sw	zero,-20(s0)
    80001934:	00200793          	li	a5,2
    80001938:	fef42423          	sw	a5,-24(s0)
    8000193c:	ea042223          	sw	zero,-348(s0)
    80001940:	0a000793          	li	a5,160
    80001944:	fcf42a23          	sw	a5,-44(s0)
    80001948:	fc0409a3          	sb	zero,-45(s0)
    8000194c:	00002797          	auipc	a5,0x2
    80001950:	04c78793          	addi	a5,a5,76 # 80003998 <eeprom_data>
    80001954:	fef43023          	sd	a5,-32(s0)
    80001958:	00002517          	auipc	a0,0x2
    8000195c:	bd850513          	addi	a0,a0,-1064 # 80003530 <atol+0x4f4>
    80001960:	398010ef          	jal	ra,80002cf8 <printf>
    80001964:	8b1ff0ef          	jal	ra,80001214 <shakti_init_i2c>
    80001968:	00050793          	mv	a5,a0
    8000196c:	00078c63          	beqz	a5,80001984 <main+0x88>
    80001970:	00002517          	auipc	a0,0x2
    80001974:	c1850513          	addi	a0,a0,-1000 # 80003588 <atol+0x54c>
    80001978:	380010ef          	jal	ra,80002cf8 <printf>
    8000197c:	00000793          	li	a5,0
    80001980:	3000006f          	j	80001c80 <main+0x384>
    80001984:	00002517          	auipc	a0,0x2
    80001988:	c2c50513          	addi	a0,a0,-980 # 800035b0 <atol+0x574>
    8000198c:	36c010ef          	jal	ra,80002cf8 <printf>
    80001990:	00000013          	nop
    80001994:	a85ff0ef          	jal	ra,80001418 <wait_for_bb>
    80001998:	00050793          	mv	a5,a0
    8000199c:	00078c63          	beqz	a5,800019b4 <main+0xb8>
    800019a0:	00002517          	auipc	a0,0x2
    800019a4:	c3050513          	addi	a0,a0,-976 # 800035d0 <atol+0x594>
    800019a8:	350010ef          	jal	ra,80002cf8 <printf>
    800019ac:	00000793          	li	a5,0
    800019b0:	2d00006f          	j	80001c80 <main+0x384>
    800019b4:	fc042e23          	sw	zero,-36(s0)
    800019b8:	1880006f          	j	80001b40 <main+0x244>
    800019bc:	fe042623          	sw	zero,-20(s0)
    800019c0:	0540006f          	j	80001a14 <main+0x118>
    800019c4:	fe043783          	ld	a5,-32(s0)
    800019c8:	0007c783          	lbu	a5,0(a5)
    800019cc:	0007879b          	sext.w	a5,a5
    800019d0:	00078593          	mv	a1,a5
    800019d4:	00002517          	auipc	a0,0x2
    800019d8:	c1c50513          	addi	a0,a0,-996 # 800035f0 <atol+0x5b4>
    800019dc:	31c010ef          	jal	ra,80002cf8 <printf>
    800019e0:	fe043703          	ld	a4,-32(s0)
    800019e4:	00170793          	addi	a5,a4,1
    800019e8:	fef43023          	sd	a5,-32(s0)
    800019ec:	fe842783          	lw	a5,-24(s0)
    800019f0:	0017869b          	addiw	a3,a5,1
    800019f4:	fed42423          	sw	a3,-24(s0)
    800019f8:	00074703          	lbu	a4,0(a4)
    800019fc:	ff040693          	addi	a3,s0,-16
    80001a00:	00f687b3          	add	a5,a3,a5
    80001a04:	ece78c23          	sb	a4,-296(a5)
    80001a08:	fec42783          	lw	a5,-20(s0)
    80001a0c:	0017879b          	addiw	a5,a5,1
    80001a10:	fef42623          	sw	a5,-20(s0)
    80001a14:	fec42783          	lw	a5,-20(s0)
    80001a18:	0007871b          	sext.w	a4,a5
    80001a1c:	0ff00793          	li	a5,255
    80001a20:	fae7d2e3          	ble	a4,a5,800019c4 <main+0xc8>
    80001a24:	00200793          	li	a5,2
    80001a28:	fef42423          	sw	a5,-24(s0)
    80001a2c:	fdc42783          	lw	a5,-36(s0)
    80001a30:	00078593          	mv	a1,a5
    80001a34:	00002517          	auipc	a0,0x2
    80001a38:	bdc50513          	addi	a0,a0,-1060 # 80003610 <atol+0x5d4>
    80001a3c:	2bc010ef          	jal	ra,80002cf8 <printf>
    80001a40:	00006797          	auipc	a5,0x6
    80001a44:	f6078793          	addi	a5,a5,-160 # 800079a0 <i2c_data>
    80001a48:	0007b783          	ld	a5,0(a5)
    80001a4c:	fd442703          	lw	a4,-44(s0)
    80001a50:	00070593          	mv	a1,a4
    80001a54:	00078513          	mv	a0,a5
    80001a58:	e18ff0ef          	jal	ra,80001070 <set_i2c_shakti>
    80001a5c:	00002517          	auipc	a0,0x2
    80001a60:	bd450513          	addi	a0,a0,-1068 # 80003630 <atol+0x5f4>
    80001a64:	294010ef          	jal	ra,80002cf8 <printf>
    80001a68:	00006797          	auipc	a5,0x6
    80001a6c:	f3878793          	addi	a5,a5,-200 # 800079a0 <i2c_data>
    80001a70:	0007b783          	ld	a5,0(a5)
    80001a74:	00078513          	mv	a0,a5
    80001a78:	dd0ff0ef          	jal	ra,80001048 <get_i2c_shakti>
    80001a7c:	00050793          	mv	a5,a0
    80001a80:	fcf409a3          	sb	a5,-45(s0)
    80001a84:	fd344783          	lbu	a5,-45(s0)
    80001a88:	0007879b          	sext.w	a5,a5
    80001a8c:	00078593          	mv	a1,a5
    80001a90:	00002517          	auipc	a0,0x2
    80001a94:	bb850513          	addi	a0,a0,-1096 # 80003648 <atol+0x60c>
    80001a98:	260010ef          	jal	ra,80002cf8 <printf>
    80001a9c:	fd344783          	lbu	a5,-45(s0)
    80001aa0:	0007871b          	sext.w	a4,a5
    80001aa4:	fd442783          	lw	a5,-44(s0)
    80001aa8:	0007879b          	sext.w	a5,a5
    80001aac:	00e78863          	beq	a5,a4,80001abc <main+0x1c0>
    80001ab0:	00002517          	auipc	a0,0x2
    80001ab4:	bc850513          	addi	a0,a0,-1080 # 80003678 <atol+0x63c>
    80001ab8:	240010ef          	jal	ra,80002cf8 <printf>
    80001abc:	e2cff0ef          	jal	ra,800010e8 <i2c_start>
    80001ac0:	ec840793          	addi	a5,s0,-312
    80001ac4:	00000693          	li	a3,0
    80001ac8:	00100613          	li	a2,1
    80001acc:	10200593          	li	a1,258
    80001ad0:	00078513          	mv	a0,a5
    80001ad4:	ad9ff0ef          	jal	ra,800015ac <shakti_sendbytes>
    80001ad8:	00050793          	mv	a5,a0
    80001adc:	00078713          	mv	a4,a5
    80001ae0:	10200793          	li	a5,258
    80001ae4:	00f70c63          	beq	a4,a5,80001afc <main+0x200>
    80001ae8:	00002517          	auipc	a0,0x2
    80001aec:	bf850513          	addi	a0,a0,-1032 # 800036e0 <atol+0x6a4>
    80001af0:	208010ef          	jal	ra,80002cf8 <printf>
    80001af4:	00000793          	li	a5,0
    80001af8:	1880006f          	j	80001c80 <main+0x384>
    80001afc:	000027b7          	lui	a5,0x2
    80001b00:	32878513          	addi	a0,a5,808 # 2328 <_tbss_end+0x2324>
    80001b04:	da0ff0ef          	jal	ra,800010a4 <waitfor>
    80001b08:	ec844783          	lbu	a5,-312(s0)
    80001b0c:	0017879b          	addiw	a5,a5,1
    80001b10:	0ff7f793          	andi	a5,a5,255
    80001b14:	ecf40423          	sb	a5,-312(s0)
    80001b18:	0100006f          	j	80001b28 <main+0x22c>
    80001b1c:	00002517          	auipc	a0,0x2
    80001b20:	bfc50513          	addi	a0,a0,-1028 # 80003718 <atol+0x6dc>
    80001b24:	1d4010ef          	jal	ra,80002cf8 <printf>
    80001b28:	8f1ff0ef          	jal	ra,80001418 <wait_for_bb>
    80001b2c:	00050793          	mv	a5,a0
    80001b30:	fe0796e3          	bnez	a5,80001b1c <main+0x220>
    80001b34:	fdc42783          	lw	a5,-36(s0)
    80001b38:	0017879b          	addiw	a5,a5,1
    80001b3c:	fcf42e23          	sw	a5,-36(s0)
    80001b40:	fdc42783          	lw	a5,-36(s0)
    80001b44:	0007871b          	sext.w	a4,a5
    80001b48:	03f00793          	li	a5,63
    80001b4c:	e6e7d8e3          	ble	a4,a5,800019bc <main+0xc0>
    80001b50:	00006797          	auipc	a5,0x6
    80001b54:	e5078793          	addi	a5,a5,-432 # 800079a0 <i2c_data>
    80001b58:	0007b783          	ld	a5,0(a5)
    80001b5c:	fd442703          	lw	a4,-44(s0)
    80001b60:	00070593          	mv	a1,a4
    80001b64:	00078513          	mv	a0,a5
    80001b68:	d08ff0ef          	jal	ra,80001070 <set_i2c_shakti>
    80001b6c:	d7cff0ef          	jal	ra,800010e8 <i2c_start>
    80001b70:	00002517          	auipc	a0,0x2
    80001b74:	bc050513          	addi	a0,a0,-1088 # 80003730 <atol+0x6f4>
    80001b78:	180010ef          	jal	ra,80002cf8 <printf>
    80001b7c:	0100006f          	j	80001b8c <main+0x290>
    80001b80:	00002517          	auipc	a0,0x2
    80001b84:	c0050513          	addi	a0,a0,-1024 # 80003780 <atol+0x744>
    80001b88:	170010ef          	jal	ra,80002cf8 <printf>
    80001b8c:	ea440793          	addi	a5,s0,-348
    80001b90:	00078513          	mv	a0,a5
    80001b94:	949ff0ef          	jal	ra,800014dc <wait_for_pin>
    80001b98:	00050793          	mv	a5,a0
    80001b9c:	fe0792e3          	bnez	a5,80001b80 <main+0x284>
    80001ba0:	fd040793          	addi	a5,s0,-48
    80001ba4:	00000693          	li	a3,0
    80001ba8:	00000613          	li	a2,0
    80001bac:	00200593          	li	a1,2
    80001bb0:	00078513          	mv	a0,a5
    80001bb4:	9f9ff0ef          	jal	ra,800015ac <shakti_sendbytes>
    80001bb8:	00050793          	mv	a5,a0
    80001bbc:	00078713          	mv	a4,a5
    80001bc0:	00200793          	li	a5,2
    80001bc4:	02f70263          	beq	a4,a5,80001be8 <main+0x2ec>
    80001bc8:	00002517          	auipc	a0,0x2
    80001bcc:	b1850513          	addi	a0,a0,-1256 # 800036e0 <atol+0x6a4>
    80001bd0:	128010ef          	jal	ra,80002cf8 <printf>
    80001bd4:	00000793          	li	a5,0
    80001bd8:	0a80006f          	j	80001c80 <main+0x384>
    80001bdc:	00002517          	auipc	a0,0x2
    80001be0:	bbc50513          	addi	a0,a0,-1092 # 80003798 <atol+0x75c>
    80001be4:	114010ef          	jal	ra,80002cf8 <printf>
    80001be8:	ea440793          	addi	a5,s0,-348
    80001bec:	00078513          	mv	a0,a5
    80001bf0:	8edff0ef          	jal	ra,800014dc <wait_for_pin>
    80001bf4:	00050793          	mv	a5,a0
    80001bf8:	fe0792e3          	bnez	a5,80001bdc <main+0x2e0>
    80001bfc:	00006797          	auipc	a5,0x6
    80001c00:	da478793          	addi	a5,a5,-604 # 800079a0 <i2c_data>
    80001c04:	0007b703          	ld	a4,0(a5)
    80001c08:	fd442783          	lw	a5,-44(s0)
    80001c0c:	0017879b          	addiw	a5,a5,1
    80001c10:	0007879b          	sext.w	a5,a5
    80001c14:	00078593          	mv	a1,a5
    80001c18:	00070513          	mv	a0,a4
    80001c1c:	c54ff0ef          	jal	ra,80001070 <set_i2c_shakti>
    80001c20:	0100006f          	j	80001c30 <main+0x334>
    80001c24:	00002517          	auipc	a0,0x2
    80001c28:	b8c50513          	addi	a0,a0,-1140 # 800037b0 <atol+0x774>
    80001c2c:	0cc010ef          	jal	ra,80002cf8 <printf>
    80001c30:	ea440793          	addi	a5,s0,-348
    80001c34:	00078513          	mv	a0,a5
    80001c38:	8a5ff0ef          	jal	ra,800014dc <wait_for_pin>
    80001c3c:	00050793          	mv	a5,a0
    80001c40:	fe0792e3          	bnez	a5,80001c24 <main+0x328>
    80001c44:	ea840793          	addi	a5,s0,-344
    80001c48:	00100613          	li	a2,1
    80001c4c:	000045b7          	lui	a1,0x4
    80001c50:	00078513          	mv	a0,a5
    80001c54:	aa5ff0ef          	jal	ra,800016f8 <shakti_readbytes>
    80001c58:	00050793          	mv	a5,a0
    80001c5c:	00078713          	mv	a4,a5
    80001c60:	000047b7          	lui	a5,0x4
    80001c64:	00f70c63          	beq	a4,a5,80001c7c <main+0x380>
    80001c68:	00002517          	auipc	a0,0x2
    80001c6c:	b6050513          	addi	a0,a0,-1184 # 800037c8 <atol+0x78c>
    80001c70:	088010ef          	jal	ra,80002cf8 <printf>
    80001c74:	00000793          	li	a5,0
    80001c78:	0080006f          	j	80001c80 <main+0x384>
    80001c7c:	00000793          	li	a5,0
    80001c80:	00078513          	mv	a0,a5
    80001c84:	15813083          	ld	ra,344(sp)
    80001c88:	15013403          	ld	s0,336(sp)
    80001c8c:	16010113          	addi	sp,sp,352
    80001c90:	00008067          	ret

0000000080001c94 <printArray>:
    80001c94:	fd010113          	addi	sp,sp,-48
    80001c98:	02813423          	sd	s0,40(sp)
    80001c9c:	03010413          	addi	s0,sp,48
    80001ca0:	fea43423          	sd	a0,-24(s0)
    80001ca4:	00058793          	mv	a5,a1
    80001ca8:	fcc43c23          	sd	a2,-40(s0)
    80001cac:	fef42223          	sw	a5,-28(s0)
    80001cb0:	00000013          	nop
    80001cb4:	02813403          	ld	s0,40(sp)
    80001cb8:	03010113          	addi	sp,sp,48
    80001cbc:	00008067          	ret

0000000080001cc0 <printDoubleArray>:
    80001cc0:	fd010113          	addi	sp,sp,-48
    80001cc4:	02813423          	sd	s0,40(sp)
    80001cc8:	03010413          	addi	s0,sp,48
    80001ccc:	fea43423          	sd	a0,-24(s0)
    80001cd0:	00058793          	mv	a5,a1
    80001cd4:	fcc43c23          	sd	a2,-40(s0)
    80001cd8:	fef42223          	sw	a5,-28(s0)
    80001cdc:	00000013          	nop
    80001ce0:	02813403          	ld	s0,40(sp)
    80001ce4:	03010113          	addi	sp,sp,48
    80001ce8:	00008067          	ret

0000000080001cec <verify>:
    80001cec:	fb010113          	addi	sp,sp,-80
    80001cf0:	04813423          	sd	s0,72(sp)
    80001cf4:	05010413          	addi	s0,sp,80
    80001cf8:	00050793          	mv	a5,a0
    80001cfc:	fcb43023          	sd	a1,-64(s0)
    80001d00:	fac43c23          	sd	a2,-72(s0)
    80001d04:	fcf42623          	sw	a5,-52(s0)
    80001d08:	fe042623          	sw	zero,-20(s0)
    80001d0c:	0c00006f          	j	80001dcc <verify+0xe0>
    80001d10:	fec42783          	lw	a5,-20(s0)
    80001d14:	00279793          	slli	a5,a5,0x2
    80001d18:	fc043703          	ld	a4,-64(s0)
    80001d1c:	00f707b3          	add	a5,a4,a5
    80001d20:	0007a783          	lw	a5,0(a5) # 4000 <_tbss_end+0x3ffc>
    80001d24:	fef42423          	sw	a5,-24(s0)
    80001d28:	fec42783          	lw	a5,-20(s0)
    80001d2c:	00178793          	addi	a5,a5,1
    80001d30:	00279793          	slli	a5,a5,0x2
    80001d34:	fc043703          	ld	a4,-64(s0)
    80001d38:	00f707b3          	add	a5,a4,a5
    80001d3c:	0007a783          	lw	a5,0(a5)
    80001d40:	fef42223          	sw	a5,-28(s0)
    80001d44:	fec42783          	lw	a5,-20(s0)
    80001d48:	00279793          	slli	a5,a5,0x2
    80001d4c:	fb843703          	ld	a4,-72(s0)
    80001d50:	00f707b3          	add	a5,a4,a5
    80001d54:	0007a783          	lw	a5,0(a5)
    80001d58:	fef42023          	sw	a5,-32(s0)
    80001d5c:	fec42783          	lw	a5,-20(s0)
    80001d60:	00178793          	addi	a5,a5,1
    80001d64:	00279793          	slli	a5,a5,0x2
    80001d68:	fb843703          	ld	a4,-72(s0)
    80001d6c:	00f707b3          	add	a5,a4,a5
    80001d70:	0007a783          	lw	a5,0(a5)
    80001d74:	fcf42e23          	sw	a5,-36(s0)
    80001d78:	fe842703          	lw	a4,-24(s0)
    80001d7c:	fe042783          	lw	a5,-32(s0)
    80001d80:	0007071b          	sext.w	a4,a4
    80001d84:	0007879b          	sext.w	a5,a5
    80001d88:	00f70a63          	beq	a4,a5,80001d9c <verify+0xb0>
    80001d8c:	fec42783          	lw	a5,-20(s0)
    80001d90:	0017879b          	addiw	a5,a5,1
    80001d94:	0007879b          	sext.w	a5,a5
    80001d98:	0b40006f          	j	80001e4c <verify+0x160>
    80001d9c:	fe442703          	lw	a4,-28(s0)
    80001da0:	fdc42783          	lw	a5,-36(s0)
    80001da4:	0007071b          	sext.w	a4,a4
    80001da8:	0007879b          	sext.w	a5,a5
    80001dac:	00f70a63          	beq	a4,a5,80001dc0 <verify+0xd4>
    80001db0:	fec42783          	lw	a5,-20(s0)
    80001db4:	0027879b          	addiw	a5,a5,2
    80001db8:	0007879b          	sext.w	a5,a5
    80001dbc:	0900006f          	j	80001e4c <verify+0x160>
    80001dc0:	fec42783          	lw	a5,-20(s0)
    80001dc4:	0027879b          	addiw	a5,a5,2
    80001dc8:	fef42623          	sw	a5,-20(s0)
    80001dcc:	fcc42783          	lw	a5,-52(s0)
    80001dd0:	01f7d71b          	srliw	a4,a5,0x1f
    80001dd4:	00f707bb          	addw	a5,a4,a5
    80001dd8:	4017d79b          	sraiw	a5,a5,0x1
    80001ddc:	0007879b          	sext.w	a5,a5
    80001de0:	0017979b          	slliw	a5,a5,0x1
    80001de4:	0007871b          	sext.w	a4,a5
    80001de8:	fec42783          	lw	a5,-20(s0)
    80001dec:	0007879b          	sext.w	a5,a5
    80001df0:	f2e7c0e3          	blt	a5,a4,80001d10 <verify+0x24>
    80001df4:	fcc42783          	lw	a5,-52(s0)
    80001df8:	0017f793          	andi	a5,a5,1
    80001dfc:	0007879b          	sext.w	a5,a5
    80001e00:	04078463          	beqz	a5,80001e48 <verify+0x15c>
    80001e04:	fcc42783          	lw	a5,-52(s0)
    80001e08:	00279793          	slli	a5,a5,0x2
    80001e0c:	ffc78793          	addi	a5,a5,-4
    80001e10:	fc043703          	ld	a4,-64(s0)
    80001e14:	00f707b3          	add	a5,a4,a5
    80001e18:	0007a783          	lw	a5,0(a5)
    80001e1c:	0007869b          	sext.w	a3,a5
    80001e20:	fcc42783          	lw	a5,-52(s0)
    80001e24:	00279793          	slli	a5,a5,0x2
    80001e28:	ffc78793          	addi	a5,a5,-4
    80001e2c:	fb843703          	ld	a4,-72(s0)
    80001e30:	00f707b3          	add	a5,a4,a5
    80001e34:	0007a783          	lw	a5,0(a5)
    80001e38:	00068713          	mv	a4,a3
    80001e3c:	00f70663          	beq	a4,a5,80001e48 <verify+0x15c>
    80001e40:	fcc42783          	lw	a5,-52(s0)
    80001e44:	0080006f          	j	80001e4c <verify+0x160>
    80001e48:	00000793          	li	a5,0
    80001e4c:	00078513          	mv	a0,a5
    80001e50:	04813403          	ld	s0,72(sp)
    80001e54:	05010113          	addi	sp,sp,80
    80001e58:	00008067          	ret

0000000080001e5c <verifyDouble>:
    80001e5c:	fa010113          	addi	sp,sp,-96
    80001e60:	04813c23          	sd	s0,88(sp)
    80001e64:	06010413          	addi	s0,sp,96
    80001e68:	00050793          	mv	a5,a0
    80001e6c:	fab43823          	sd	a1,-80(s0)
    80001e70:	fac43423          	sd	a2,-88(s0)
    80001e74:	faf42e23          	sw	a5,-68(s0)
    80001e78:	fe042623          	sw	zero,-20(s0)
    80001e7c:	0d80006f          	j	80001f54 <verifyDouble+0xf8>
    80001e80:	fec42783          	lw	a5,-20(s0)
    80001e84:	00379793          	slli	a5,a5,0x3
    80001e88:	fb043703          	ld	a4,-80(s0)
    80001e8c:	00f707b3          	add	a5,a4,a5
    80001e90:	0007b787          	fld	fa5,0(a5)
    80001e94:	fef43027          	fsd	fa5,-32(s0)
    80001e98:	fec42783          	lw	a5,-20(s0)
    80001e9c:	00178793          	addi	a5,a5,1
    80001ea0:	00379793          	slli	a5,a5,0x3
    80001ea4:	fb043703          	ld	a4,-80(s0)
    80001ea8:	00f707b3          	add	a5,a4,a5
    80001eac:	0007b787          	fld	fa5,0(a5)
    80001eb0:	fcf43c27          	fsd	fa5,-40(s0)
    80001eb4:	fec42783          	lw	a5,-20(s0)
    80001eb8:	00379793          	slli	a5,a5,0x3
    80001ebc:	fa843703          	ld	a4,-88(s0)
    80001ec0:	00f707b3          	add	a5,a4,a5
    80001ec4:	0007b787          	fld	fa5,0(a5)
    80001ec8:	fcf43827          	fsd	fa5,-48(s0)
    80001ecc:	fec42783          	lw	a5,-20(s0)
    80001ed0:	00178793          	addi	a5,a5,1
    80001ed4:	00379793          	slli	a5,a5,0x3
    80001ed8:	fa843703          	ld	a4,-88(s0)
    80001edc:	00f707b3          	add	a5,a4,a5
    80001ee0:	0007b787          	fld	fa5,0(a5)
    80001ee4:	fcf43427          	fsd	fa5,-56(s0)
    80001ee8:	fe043707          	fld	fa4,-32(s0)
    80001eec:	fd043787          	fld	fa5,-48(s0)
    80001ef0:	a2f727d3          	feq.d	a5,fa4,fa5
    80001ef4:	00f037b3          	snez	a5,a5
    80001ef8:	0ff7f793          	andi	a5,a5,255
    80001efc:	fcf42223          	sw	a5,-60(s0)
    80001f00:	fd843707          	fld	fa4,-40(s0)
    80001f04:	fc843787          	fld	fa5,-56(s0)
    80001f08:	a2f727d3          	feq.d	a5,fa4,fa5
    80001f0c:	00f037b3          	snez	a5,a5
    80001f10:	0ff7f793          	andi	a5,a5,255
    80001f14:	fcf42023          	sw	a5,-64(s0)
    80001f18:	fc442703          	lw	a4,-60(s0)
    80001f1c:	fc042783          	lw	a5,-64(s0)
    80001f20:	00f777b3          	and	a5,a4,a5
    80001f24:	0007879b          	sext.w	a5,a5
    80001f28:	02079063          	bnez	a5,80001f48 <verifyDouble+0xec>
    80001f2c:	fec42783          	lw	a5,-20(s0)
    80001f30:	0017879b          	addiw	a5,a5,1
    80001f34:	0007879b          	sext.w	a5,a5
    80001f38:	fc442703          	lw	a4,-60(s0)
    80001f3c:	00f707bb          	addw	a5,a4,a5
    80001f40:	0007879b          	sext.w	a5,a5
    80001f44:	08c0006f          	j	80001fd0 <verifyDouble+0x174>
    80001f48:	fec42783          	lw	a5,-20(s0)
    80001f4c:	0027879b          	addiw	a5,a5,2
    80001f50:	fef42623          	sw	a5,-20(s0)
    80001f54:	fbc42783          	lw	a5,-68(s0)
    80001f58:	01f7d71b          	srliw	a4,a5,0x1f
    80001f5c:	00f707bb          	addw	a5,a4,a5
    80001f60:	4017d79b          	sraiw	a5,a5,0x1
    80001f64:	0007879b          	sext.w	a5,a5
    80001f68:	0017979b          	slliw	a5,a5,0x1
    80001f6c:	0007871b          	sext.w	a4,a5
    80001f70:	fec42783          	lw	a5,-20(s0)
    80001f74:	0007879b          	sext.w	a5,a5
    80001f78:	f0e7c4e3          	blt	a5,a4,80001e80 <verifyDouble+0x24>
    80001f7c:	fbc42783          	lw	a5,-68(s0)
    80001f80:	0017f793          	andi	a5,a5,1
    80001f84:	0007879b          	sext.w	a5,a5
    80001f88:	04078263          	beqz	a5,80001fcc <verifyDouble+0x170>
    80001f8c:	fbc42783          	lw	a5,-68(s0)
    80001f90:	00379793          	slli	a5,a5,0x3
    80001f94:	ff878793          	addi	a5,a5,-8
    80001f98:	fb043703          	ld	a4,-80(s0)
    80001f9c:	00f707b3          	add	a5,a4,a5
    80001fa0:	0007b707          	fld	fa4,0(a5)
    80001fa4:	fbc42783          	lw	a5,-68(s0)
    80001fa8:	00379793          	slli	a5,a5,0x3
    80001fac:	ff878793          	addi	a5,a5,-8
    80001fb0:	fa843703          	ld	a4,-88(s0)
    80001fb4:	00f707b3          	add	a5,a4,a5
    80001fb8:	0007b787          	fld	fa5,0(a5)
    80001fbc:	a2f727d3          	feq.d	a5,fa4,fa5
    80001fc0:	00079663          	bnez	a5,80001fcc <verifyDouble+0x170>
    80001fc4:	fbc42783          	lw	a5,-68(s0)
    80001fc8:	0080006f          	j	80001fd0 <verifyDouble+0x174>
    80001fcc:	00000793          	li	a5,0
    80001fd0:	00078513          	mv	a0,a5
    80001fd4:	05813403          	ld	s0,88(sp)
    80001fd8:	06010113          	addi	sp,sp,96
    80001fdc:	00008067          	ret

0000000080001fe0 <barrier>:
    80001fe0:	fe010113          	addi	sp,sp,-32
    80001fe4:	00813c23          	sd	s0,24(sp)
    80001fe8:	02010413          	addi	s0,sp,32
    80001fec:	00050793          	mv	a5,a0
    80001ff0:	fef42623          	sw	a5,-20(s0)
    80001ff4:	00022783          	lw	a5,0(tp) # 0 <_tdata_begin>
    80001ff8:	0017b793          	seqz	a5,a5
    80001ffc:	0ff7f793          	andi	a5,a5,255
    80002000:	0007871b          	sext.w	a4,a5
    80002004:	00e22023          	sw	a4,0(tp) # 0 <_tdata_begin>
    80002008:	85018793          	addi	a5,gp,-1968 # 800079e8 <count.2710>
    8000200c:	00100713          	li	a4,1
    80002010:	0f50000f          	fence	iorw,ow
    80002014:	04e7a6af          	amoadd.w.aq	a3,a4,(a5)
    80002018:	0006879b          	sext.w	a5,a3
    8000201c:	0007871b          	sext.w	a4,a5
    80002020:	fec42783          	lw	a5,-20(s0)
    80002024:	fff7879b          	addiw	a5,a5,-1
    80002028:	0007879b          	sext.w	a5,a5
    8000202c:	00f71e63          	bne	a4,a5,80002048 <barrier+0x68>
    80002030:	85018793          	addi	a5,gp,-1968 # 800079e8 <count.2710>
    80002034:	0007a023          	sw	zero,0(a5)
    80002038:	00022703          	lw	a4,0(tp) # 0 <_tdata_begin>
    8000203c:	85418793          	addi	a5,gp,-1964 # 800079ec <sense.2709>
    80002040:	00e7a023          	sw	a4,0(a5)
    80002044:	01c0006f          	j	80002060 <barrier+0x80>
    80002048:	00000013          	nop
    8000204c:	85418793          	addi	a5,gp,-1964 # 800079ec <sense.2709>
    80002050:	0007a783          	lw	a5,0(a5)
    80002054:	0007871b          	sext.w	a4,a5
    80002058:	00022783          	lw	a5,0(tp) # 0 <_tdata_begin>
    8000205c:	fef718e3          	bne	a4,a5,8000204c <barrier+0x6c>
    80002060:	00000013          	nop
    80002064:	01813403          	ld	s0,24(sp)
    80002068:	02010113          	addi	sp,sp,32
    8000206c:	00008067          	ret

0000000080002070 <lfsr>:
    80002070:	fd010113          	addi	sp,sp,-48
    80002074:	02813423          	sd	s0,40(sp)
    80002078:	03010413          	addi	s0,sp,48
    8000207c:	fca43c23          	sd	a0,-40(s0)
    80002080:	fd843783          	ld	a5,-40(s0)
    80002084:	0017d713          	srli	a4,a5,0x1
    80002088:	fd843783          	ld	a5,-40(s0)
    8000208c:	00f747b3          	xor	a5,a4,a5
    80002090:	0017f793          	andi	a5,a5,1
    80002094:	fef43423          	sd	a5,-24(s0)
    80002098:	fd843783          	ld	a5,-40(s0)
    8000209c:	0017d713          	srli	a4,a5,0x1
    800020a0:	fe843783          	ld	a5,-24(s0)
    800020a4:	03e79793          	slli	a5,a5,0x3e
    800020a8:	00f767b3          	or	a5,a4,a5
    800020ac:	00078513          	mv	a0,a5
    800020b0:	02813403          	ld	s0,40(sp)
    800020b4:	03010113          	addi	sp,sp,48
    800020b8:	00008067          	ret

00000000800020bc <syscall>:
    800020bc:	f5010113          	addi	sp,sp,-176
    800020c0:	0a813423          	sd	s0,168(sp)
    800020c4:	0b010413          	addi	s0,sp,176
    800020c8:	f6a43423          	sd	a0,-152(s0)
    800020cc:	f6b43023          	sd	a1,-160(s0)
    800020d0:	f4c43c23          	sd	a2,-168(s0)
    800020d4:	f4d43823          	sd	a3,-176(s0)
    800020d8:	ff040793          	addi	a5,s0,-16
    800020dc:	f8078793          	addi	a5,a5,-128
    800020e0:	03f78793          	addi	a5,a5,63
    800020e4:	0067d793          	srli	a5,a5,0x6
    800020e8:	00679793          	slli	a5,a5,0x6
    800020ec:	f6843703          	ld	a4,-152(s0)
    800020f0:	00e7b023          	sd	a4,0(a5)
    800020f4:	f6043703          	ld	a4,-160(s0)
    800020f8:	00e7b423          	sd	a4,8(a5)
    800020fc:	f5843703          	ld	a4,-168(s0)
    80002100:	00e7b823          	sd	a4,16(a5)
    80002104:	f5043703          	ld	a4,-176(s0)
    80002108:	00e7bc23          	sd	a4,24(a5)
    8000210c:	00078693          	mv	a3,a5
    80002110:	fffff717          	auipc	a4,0xfffff
    80002114:	ef070713          	addi	a4,a4,-272 # 80001000 <tohost>
    80002118:	00d73023          	sd	a3,0(a4)
    8000211c:	00000013          	nop
    80002120:	fffff717          	auipc	a4,0xfffff
    80002124:	f2070713          	addi	a4,a4,-224 # 80001040 <fromhost>
    80002128:	00073703          	ld	a4,0(a4)
    8000212c:	fe070ae3          	beqz	a4,80002120 <syscall+0x64>
    80002130:	0007b783          	ld	a5,0(a5)
    80002134:	00078513          	mv	a0,a5
    80002138:	0a813403          	ld	s0,168(sp)
    8000213c:	0b010113          	addi	sp,sp,176
    80002140:	00008067          	ret

0000000080002144 <setStats>:
    80002144:	fb010113          	addi	sp,sp,-80
    80002148:	04813423          	sd	s0,72(sp)
    8000214c:	05010413          	addi	s0,sp,80
    80002150:	00050793          	mv	a5,a0
    80002154:	faf42e23          	sw	a5,-68(s0)
    80002158:	fc042e23          	sw	zero,-36(s0)
    8000215c:	fdc42783          	lw	a5,-36(s0)
    80002160:	0007871b          	sext.w	a4,a5
    80002164:	00100793          	li	a5,1
    80002168:	fee7cae3          	blt	a5,a4,8000215c <setStats+0x18>
    8000216c:	b00027f3          	csrr	a5,mcycle
    80002170:	fcf43823          	sd	a5,-48(s0)
    80002174:	fd043783          	ld	a5,-48(s0)
    80002178:	fef43423          	sd	a5,-24(s0)
    8000217c:	fbc42783          	lw	a5,-68(s0)
    80002180:	0007879b          	sext.w	a5,a5
    80002184:	04079463          	bnez	a5,800021cc <setStats+0x88>
    80002188:	00006717          	auipc	a4,0x6
    8000218c:	84070713          	addi	a4,a4,-1984 # 800079c8 <counters>
    80002190:	fdc42783          	lw	a5,-36(s0)
    80002194:	00379793          	slli	a5,a5,0x3
    80002198:	00f707b3          	add	a5,a4,a5
    8000219c:	0007b783          	ld	a5,0(a5)
    800021a0:	fe843703          	ld	a4,-24(s0)
    800021a4:	40f707b3          	sub	a5,a4,a5
    800021a8:	fef43423          	sd	a5,-24(s0)
    800021ac:	00006717          	auipc	a4,0x6
    800021b0:	82c70713          	addi	a4,a4,-2004 # 800079d8 <counter_names>
    800021b4:	fdc42783          	lw	a5,-36(s0)
    800021b8:	00379793          	slli	a5,a5,0x3
    800021bc:	00f707b3          	add	a5,a4,a5
    800021c0:	00001717          	auipc	a4,0x1
    800021c4:	63870713          	addi	a4,a4,1592 # 800037f8 <atol+0x7bc>
    800021c8:	00e7b023          	sd	a4,0(a5)
    800021cc:	fdc42783          	lw	a5,-36(s0)
    800021d0:	0017871b          	addiw	a4,a5,1
    800021d4:	fce42e23          	sw	a4,-36(s0)
    800021d8:	00005717          	auipc	a4,0x5
    800021dc:	7f070713          	addi	a4,a4,2032 # 800079c8 <counters>
    800021e0:	00379793          	slli	a5,a5,0x3
    800021e4:	00f707b3          	add	a5,a4,a5
    800021e8:	fe843703          	ld	a4,-24(s0)
    800021ec:	00e7b023          	sd	a4,0(a5)
    800021f0:	fdc42783          	lw	a5,-36(s0)
    800021f4:	0007871b          	sext.w	a4,a5
    800021f8:	00100793          	li	a5,1
    800021fc:	fee7cae3          	blt	a5,a4,800021f0 <setStats+0xac>
    80002200:	b02027f3          	csrr	a5,minstret
    80002204:	fcf43423          	sd	a5,-56(s0)
    80002208:	fc843783          	ld	a5,-56(s0)
    8000220c:	fef43023          	sd	a5,-32(s0)
    80002210:	fbc42783          	lw	a5,-68(s0)
    80002214:	0007879b          	sext.w	a5,a5
    80002218:	04079463          	bnez	a5,80002260 <setStats+0x11c>
    8000221c:	00005717          	auipc	a4,0x5
    80002220:	7ac70713          	addi	a4,a4,1964 # 800079c8 <counters>
    80002224:	fdc42783          	lw	a5,-36(s0)
    80002228:	00379793          	slli	a5,a5,0x3
    8000222c:	00f707b3          	add	a5,a4,a5
    80002230:	0007b783          	ld	a5,0(a5)
    80002234:	fe043703          	ld	a4,-32(s0)
    80002238:	40f707b3          	sub	a5,a4,a5
    8000223c:	fef43023          	sd	a5,-32(s0)
    80002240:	00005717          	auipc	a4,0x5
    80002244:	79870713          	addi	a4,a4,1944 # 800079d8 <counter_names>
    80002248:	fdc42783          	lw	a5,-36(s0)
    8000224c:	00379793          	slli	a5,a5,0x3
    80002250:	00f707b3          	add	a5,a4,a5
    80002254:	00001717          	auipc	a4,0x1
    80002258:	5ac70713          	addi	a4,a4,1452 # 80003800 <atol+0x7c4>
    8000225c:	00e7b023          	sd	a4,0(a5)
    80002260:	fdc42783          	lw	a5,-36(s0)
    80002264:	0017871b          	addiw	a4,a5,1
    80002268:	fce42e23          	sw	a4,-36(s0)
    8000226c:	00005717          	auipc	a4,0x5
    80002270:	75c70713          	addi	a4,a4,1884 # 800079c8 <counters>
    80002274:	00379793          	slli	a5,a5,0x3
    80002278:	00f707b3          	add	a5,a4,a5
    8000227c:	fe043703          	ld	a4,-32(s0)
    80002280:	00e7b023          	sd	a4,0(a5)
    80002284:	00000013          	nop
    80002288:	04813403          	ld	s0,72(sp)
    8000228c:	05010113          	addi	sp,sp,80
    80002290:	00008067          	ret

0000000080002294 <tohost_exit>:
    80002294:	fe010113          	addi	sp,sp,-32
    80002298:	00813c23          	sd	s0,24(sp)
    8000229c:	02010413          	addi	s0,sp,32
    800022a0:	fea43423          	sd	a0,-24(s0)
    800022a4:	00011337          	lui	t1,0x11
    800022a8:	2003031b          	addiw	t1,t1,512

00000000800022ac <uart0_status>:
    800022ac:	02830383          	lb	t2,40(t1) # 11028 <_tbss_end+0x11024>
    800022b0:	0403f393          	andi	t2,t2,64
    800022b4:	fe038ce3          	beqz	t2,800022ac <uart0_status>
    800022b8:	00011337          	lui	t1,0x11
    800022bc:	3003031b          	addiw	t1,t1,768

00000000800022c0 <uart1_status>:
    800022c0:	00830383          	lb	t2,8(t1) # 11008 <_tbss_end+0x11004>
    800022c4:	0013f393          	andi	t2,t2,1
    800022c8:	fe038ce3          	beqz	t2,800022c0 <uart1_status>
    800022cc:	fe843783          	ld	a5,-24(s0)
    800022d0:	00179793          	slli	a5,a5,0x1
    800022d4:	0017e713          	ori	a4,a5,1
    800022d8:	fffff797          	auipc	a5,0xfffff
    800022dc:	d2878793          	addi	a5,a5,-728 # 80001000 <tohost>
    800022e0:	00e7b023          	sd	a4,0(a5)
    800022e4:	0000006f          	j	800022e4 <uart1_status+0x24>
    800022e8:	fd010113          	addi	sp,sp,-48
    800022ec:	02113423          	sd	ra,40(sp)
    800022f0:	02813023          	sd	s0,32(sp)
    800022f4:	03010413          	addi	s0,sp,48
    800022f8:	fea43423          	sd	a0,-24(s0)
    800022fc:	feb43023          	sd	a1,-32(s0)
    80002300:	fcc43c23          	sd	a2,-40(s0)
    80002304:	53900513          	li	a0,1337
    80002308:	f8dff0ef          	jal	ra,80002294 <tohost_exit>

000000008000230c <exit>:
    8000230c:	fe010113          	addi	sp,sp,-32
    80002310:	00113c23          	sd	ra,24(sp)
    80002314:	00813823          	sd	s0,16(sp)
    80002318:	02010413          	addi	s0,sp,32
    8000231c:	00050793          	mv	a5,a0
    80002320:	fef42623          	sw	a5,-20(s0)
    80002324:	fec42783          	lw	a5,-20(s0)
    80002328:	00078513          	mv	a0,a5
    8000232c:	f69ff0ef          	jal	ra,80002294 <tohost_exit>

0000000080002330 <abort>:
    80002330:	ff010113          	addi	sp,sp,-16
    80002334:	00113423          	sd	ra,8(sp)
    80002338:	00813023          	sd	s0,0(sp)
    8000233c:	01010413          	addi	s0,sp,16
    80002340:	08600513          	li	a0,134
    80002344:	fc9ff0ef          	jal	ra,8000230c <exit>

0000000080002348 <printstr>:
    80002348:	fd010113          	addi	sp,sp,-48
    8000234c:	02113423          	sd	ra,40(sp)
    80002350:	02813023          	sd	s0,32(sp)
    80002354:	00913c23          	sd	s1,24(sp)
    80002358:	03010413          	addi	s0,sp,48
    8000235c:	fca43c23          	sd	a0,-40(s0)
    80002360:	fd843483          	ld	s1,-40(s0)
    80002364:	fd843503          	ld	a0,-40(s0)
    80002368:	341000ef          	jal	ra,80002ea8 <strlen>
    8000236c:	00050793          	mv	a5,a0
    80002370:	00078693          	mv	a3,a5
    80002374:	00048613          	mv	a2,s1
    80002378:	00100593          	li	a1,1
    8000237c:	04000513          	li	a0,64
    80002380:	d3dff0ef          	jal	ra,800020bc <syscall>
    80002384:	00000013          	nop
    80002388:	02813083          	ld	ra,40(sp)
    8000238c:	02013403          	ld	s0,32(sp)
    80002390:	01813483          	ld	s1,24(sp)
    80002394:	03010113          	addi	sp,sp,48
    80002398:	00008067          	ret
    8000239c:	fe010113          	addi	sp,sp,-32
    800023a0:	00113c23          	sd	ra,24(sp)
    800023a4:	00813823          	sd	s0,16(sp)
    800023a8:	02010413          	addi	s0,sp,32
    800023ac:	00050793          	mv	a5,a0
    800023b0:	feb43023          	sd	a1,-32(s0)
    800023b4:	fef42623          	sw	a5,-20(s0)
    800023b8:	00001517          	auipc	a0,0x1
    800023bc:	45850513          	addi	a0,a0,1112 # 80003810 <atol+0x7d4>
    800023c0:	f89ff0ef          	jal	ra,80002348 <printstr>
    800023c4:	fff00793          	li	a5,-1
    800023c8:	00078513          	mv	a0,a5
    800023cc:	01813083          	ld	ra,24(sp)
    800023d0:	01013403          	ld	s0,16(sp)
    800023d4:	02010113          	addi	sp,sp,32
    800023d8:	00008067          	ret

00000000800023dc <getchar>:
    800023dc:	ff010113          	addi	sp,sp,-16
    800023e0:	00813423          	sd	s0,8(sp)
    800023e4:	01010413          	addi	s0,sp,16
    800023e8:	00011337          	lui	t1,0x11
    800023ec:	2003031b          	addiw	t1,t1,512

00000000800023f0 <uart_statusr>:
    800023f0:	02830383          	lb	t2,40(t1) # 11028 <_tbss_end+0x11024>
    800023f4:	0013f393          	andi	t2,t2,1
    800023f8:	fe038ce3          	beqz	t2,800023f0 <uart_statusr>
    800023fc:	00030503          	lb	a0,0(t1)
    80002400:	0ff57793          	andi	a5,a0,255
    80002404:	0007879b          	sext.w	a5,a5
    80002408:	00078513          	mv	a0,a5
    8000240c:	00813403          	ld	s0,8(sp)
    80002410:	01010113          	addi	sp,sp,16
    80002414:	00008067          	ret

0000000080002418 <uart_init>:
    80002418:	ff010113          	addi	sp,sp,-16
    8000241c:	00813423          	sd	s0,8(sp)
    80002420:	01010413          	addi	s0,sp,16
    80002424:	00011337          	lui	t1,0x11
    80002428:	2003031b          	addiw	t1,t1,512
    8000242c:	08300393          	li	t2,131
    80002430:	00730c23          	sb	t2,24(t1) # 11018 <_tbss_end+0x11014>
    80002434:	00000393          	li	t2,0
    80002438:	00030423          	sb	zero,8(t1)
    8000243c:	00b00393          	li	t2,11
    80002440:	00730023          	sb	t2,0(t1)
    80002444:	00300393          	li	t2,3
    80002448:	00730c23          	sb	t2,24(t1)
    8000244c:	00600393          	li	t2,6
    80002450:	00730823          	sb	t2,16(t1)
    80002454:	00030423          	sb	zero,8(t1)
    80002458:	00000793          	li	a5,0
    8000245c:	00078513          	mv	a0,a5
    80002460:	00813403          	ld	s0,8(sp)
    80002464:	01010113          	addi	sp,sp,16
    80002468:	00008067          	ret

000000008000246c <putchar>:
    8000246c:	fe010113          	addi	sp,sp,-32
    80002470:	00813c23          	sd	s0,24(sp)
    80002474:	02010413          	addi	s0,sp,32
    80002478:	00050793          	mv	a5,a0
    8000247c:	fef42623          	sw	a5,-20(s0)
    80002480:	fec42783          	lw	a5,-20(s0)
    80002484:	0ff7f793          	andi	a5,a5,255
    80002488:	00078513          	mv	a0,a5
    8000248c:	00011337          	lui	t1,0x11
    80002490:	2003031b          	addiw	t1,t1,512

0000000080002494 <uart_status>:
    80002494:	02830383          	lb	t2,40(t1) # 11028 <_tbss_end+0x11024>
    80002498:	0203f393          	andi	t2,t2,32
    8000249c:	fe038ce3          	beqz	t2,80002494 <uart_status>
    800024a0:	00a30023          	sb	a0,0(t1)
    800024a4:	00000793          	li	a5,0
    800024a8:	00078513          	mv	a0,a5
    800024ac:	01813403          	ld	s0,24(sp)
    800024b0:	02010113          	addi	sp,sp,32
    800024b4:	00008067          	ret

00000000800024b8 <_init>:
    800024b8:	f4010113          	addi	sp,sp,-192
    800024bc:	0a113c23          	sd	ra,184(sp)
    800024c0:	0a813823          	sd	s0,176(sp)
    800024c4:	0a913423          	sd	s1,168(sp)
    800024c8:	0c010413          	addi	s0,sp,192
    800024cc:	00050793          	mv	a5,a0
    800024d0:	00058713          	mv	a4,a1
    800024d4:	f4f42623          	sw	a5,-180(s0)
    800024d8:	00070793          	mv	a5,a4
    800024dc:	f4f42423          	sw	a5,-184(s0)
    800024e0:	fe040793          	addi	a5,s0,-32
    800024e4:	f7078793          	addi	a5,a5,-144
    800024e8:	03f78793          	addi	a5,a5,63
    800024ec:	0067d793          	srli	a5,a5,0x6
    800024f0:	00679493          	slli	s1,a5,0x6
    800024f4:	00000593          	li	a1,0
    800024f8:	00000513          	li	a0,0
    800024fc:	c00ff0ef          	jal	ra,800018fc <main>
    80002500:	00050793          	mv	a5,a0
    80002504:	fcf42c23          	sw	a5,-40(s0)
    80002508:	fc943823          	sd	s1,-48(s0)
    8000250c:	fc042e23          	sw	zero,-36(s0)
    80002510:	0700006f          	j	80002580 <_init+0xc8>
    80002514:	00005717          	auipc	a4,0x5
    80002518:	4b470713          	addi	a4,a4,1204 # 800079c8 <counters>
    8000251c:	fdc42783          	lw	a5,-36(s0)
    80002520:	00379793          	slli	a5,a5,0x3
    80002524:	00f707b3          	add	a5,a4,a5
    80002528:	0007b783          	ld	a5,0(a5)
    8000252c:	04078463          	beqz	a5,80002574 <_init+0xbc>
    80002530:	00005717          	auipc	a4,0x5
    80002534:	4a870713          	addi	a4,a4,1192 # 800079d8 <counter_names>
    80002538:	fdc42783          	lw	a5,-36(s0)
    8000253c:	00379793          	slli	a5,a5,0x3
    80002540:	00f707b3          	add	a5,a4,a5
    80002544:	0007b683          	ld	a3,0(a5)
    80002548:	00005717          	auipc	a4,0x5
    8000254c:	48070713          	addi	a4,a4,1152 # 800079c8 <counters>
    80002550:	fdc42783          	lw	a5,-36(s0)
    80002554:	00379793          	slli	a5,a5,0x3
    80002558:	00f707b3          	add	a5,a4,a5
    8000255c:	0007b783          	ld	a5,0(a5)
    80002560:	00078613          	mv	a2,a5
    80002564:	00068593          	mv	a1,a3
    80002568:	00001517          	auipc	a0,0x1
    8000256c:	2c050513          	addi	a0,a0,704 # 80003828 <atol+0x7ec>
    80002570:	788000ef          	jal	ra,80002cf8 <printf>
    80002574:	fdc42783          	lw	a5,-36(s0)
    80002578:	0017879b          	addiw	a5,a5,1
    8000257c:	fcf42e23          	sw	a5,-36(s0)
    80002580:	fdc42783          	lw	a5,-36(s0)
    80002584:	0007871b          	sext.w	a4,a5
    80002588:	00100793          	li	a5,1
    8000258c:	f8e7d4e3          	ble	a4,a5,80002514 <_init+0x5c>
    80002590:	fd842783          	lw	a5,-40(s0)
    80002594:	00078513          	mv	a0,a5
    80002598:	d75ff0ef          	jal	ra,8000230c <exit>

000000008000259c <printhex>:
    8000259c:	fc010113          	addi	sp,sp,-64
    800025a0:	02113c23          	sd	ra,56(sp)
    800025a4:	02813823          	sd	s0,48(sp)
    800025a8:	04010413          	addi	s0,sp,64
    800025ac:	fca43423          	sd	a0,-56(s0)
    800025b0:	fe042623          	sw	zero,-20(s0)
    800025b4:	06c0006f          	j	80002620 <printhex+0x84>
    800025b8:	fc843783          	ld	a5,-56(s0)
    800025bc:	0ff7f793          	andi	a5,a5,255
    800025c0:	00f7f793          	andi	a5,a5,15
    800025c4:	0ff7f713          	andi	a4,a5,255
    800025c8:	fc843783          	ld	a5,-56(s0)
    800025cc:	00f7f693          	andi	a3,a5,15
    800025d0:	00900793          	li	a5,9
    800025d4:	00d7e663          	bltu	a5,a3,800025e0 <printhex+0x44>
    800025d8:	03000793          	li	a5,48
    800025dc:	0080006f          	j	800025e4 <printhex+0x48>
    800025e0:	05700793          	li	a5,87
    800025e4:	00f00613          	li	a2,15
    800025e8:	fec42683          	lw	a3,-20(s0)
    800025ec:	40d606bb          	subw	a3,a2,a3
    800025f0:	0006869b          	sext.w	a3,a3
    800025f4:	00e787bb          	addw	a5,a5,a4
    800025f8:	0ff7f713          	andi	a4,a5,255
    800025fc:	ff040793          	addi	a5,s0,-16
    80002600:	00d787b3          	add	a5,a5,a3
    80002604:	fee78423          	sb	a4,-24(a5)
    80002608:	fc843783          	ld	a5,-56(s0)
    8000260c:	0047d793          	srli	a5,a5,0x4
    80002610:	fcf43423          	sd	a5,-56(s0)
    80002614:	fec42783          	lw	a5,-20(s0)
    80002618:	0017879b          	addiw	a5,a5,1
    8000261c:	fef42623          	sw	a5,-20(s0)
    80002620:	fec42783          	lw	a5,-20(s0)
    80002624:	0007871b          	sext.w	a4,a5
    80002628:	00f00793          	li	a5,15
    8000262c:	f8e7d6e3          	ble	a4,a5,800025b8 <printhex+0x1c>
    80002630:	fe040423          	sb	zero,-24(s0)
    80002634:	fd840793          	addi	a5,s0,-40
    80002638:	00078513          	mv	a0,a5
    8000263c:	d0dff0ef          	jal	ra,80002348 <printstr>
    80002640:	00000013          	nop
    80002644:	03813083          	ld	ra,56(sp)
    80002648:	03013403          	ld	s0,48(sp)
    8000264c:	04010113          	addi	sp,sp,64
    80002650:	00008067          	ret

0000000080002654 <printnum>:
    80002654:	eb010113          	addi	sp,sp,-336
    80002658:	14113423          	sd	ra,328(sp)
    8000265c:	14813023          	sd	s0,320(sp)
    80002660:	15010413          	addi	s0,sp,336
    80002664:	eca43c23          	sd	a0,-296(s0)
    80002668:	ecb43823          	sd	a1,-304(s0)
    8000266c:	ecc43423          	sd	a2,-312(s0)
    80002670:	00068613          	mv	a2,a3
    80002674:	00070693          	mv	a3,a4
    80002678:	00078713          	mv	a4,a5
    8000267c:	00060793          	mv	a5,a2
    80002680:	ecf42223          	sw	a5,-316(s0)
    80002684:	00068793          	mv	a5,a3
    80002688:	ecf42023          	sw	a5,-320(s0)
    8000268c:	00070793          	mv	a5,a4
    80002690:	eaf42e23          	sw	a5,-324(s0)
    80002694:	fe042623          	sw	zero,-20(s0)
    80002698:	ec446783          	lwu	a5,-316(s0)
    8000269c:	ec843703          	ld	a4,-312(s0)
    800026a0:	02f776b3          	remu	a3,a4,a5
    800026a4:	fec42783          	lw	a5,-20(s0)
    800026a8:	0017871b          	addiw	a4,a5,1
    800026ac:	fee42623          	sw	a4,-20(s0)
    800026b0:	0006871b          	sext.w	a4,a3
    800026b4:	00279793          	slli	a5,a5,0x2
    800026b8:	ff040693          	addi	a3,s0,-16
    800026bc:	00f687b3          	add	a5,a3,a5
    800026c0:	eee7ac23          	sw	a4,-264(a5)
    800026c4:	ec446783          	lwu	a5,-316(s0)
    800026c8:	ec843703          	ld	a4,-312(s0)
    800026cc:	00f76c63          	bltu	a4,a5,800026e4 <printnum+0x90>
    800026d0:	ec446783          	lwu	a5,-316(s0)
    800026d4:	ec843703          	ld	a4,-312(s0)
    800026d8:	02f757b3          	divu	a5,a4,a5
    800026dc:	ecf43423          	sd	a5,-312(s0)
    800026e0:	fb9ff06f          	j	80002698 <printnum+0x44>
    800026e4:	00000013          	nop
    800026e8:	0180006f          	j	80002700 <printnum+0xac>
    800026ec:	ebc42783          	lw	a5,-324(s0)
    800026f0:	ed843703          	ld	a4,-296(s0)
    800026f4:	ed043583          	ld	a1,-304(s0)
    800026f8:	00078513          	mv	a0,a5
    800026fc:	000700e7          	jalr	a4
    80002700:	ec042783          	lw	a5,-320(s0)
    80002704:	fff7871b          	addiw	a4,a5,-1
    80002708:	ece42023          	sw	a4,-320(s0)
    8000270c:	fec42703          	lw	a4,-20(s0)
    80002710:	0007071b          	sext.w	a4,a4
    80002714:	fcf74ce3          	blt	a4,a5,800026ec <printnum+0x98>
    80002718:	0600006f          	j	80002778 <printnum+0x124>
    8000271c:	fec42783          	lw	a5,-20(s0)
    80002720:	00279793          	slli	a5,a5,0x2
    80002724:	ff040713          	addi	a4,s0,-16
    80002728:	00f707b3          	add	a5,a4,a5
    8000272c:	ef87a703          	lw	a4,-264(a5)
    80002730:	fec42783          	lw	a5,-20(s0)
    80002734:	00279793          	slli	a5,a5,0x2
    80002738:	ff040693          	addi	a3,s0,-16
    8000273c:	00f687b3          	add	a5,a3,a5
    80002740:	ef87a783          	lw	a5,-264(a5)
    80002744:	00078693          	mv	a3,a5
    80002748:	00900793          	li	a5,9
    8000274c:	00d7f663          	bleu	a3,a5,80002758 <printnum+0x104>
    80002750:	05700793          	li	a5,87
    80002754:	0080006f          	j	8000275c <printnum+0x108>
    80002758:	03000793          	li	a5,48
    8000275c:	00e787bb          	addw	a5,a5,a4
    80002760:	0007879b          	sext.w	a5,a5
    80002764:	0007879b          	sext.w	a5,a5
    80002768:	ed843703          	ld	a4,-296(s0)
    8000276c:	ed043583          	ld	a1,-304(s0)
    80002770:	00078513          	mv	a0,a5
    80002774:	000700e7          	jalr	a4
    80002778:	fec42783          	lw	a5,-20(s0)
    8000277c:	fff7871b          	addiw	a4,a5,-1
    80002780:	fee42623          	sw	a4,-20(s0)
    80002784:	f8f04ce3          	bgtz	a5,8000271c <printnum+0xc8>
    80002788:	00000013          	nop
    8000278c:	14813083          	ld	ra,328(sp)
    80002790:	14013403          	ld	s0,320(sp)
    80002794:	15010113          	addi	sp,sp,336
    80002798:	00008067          	ret

000000008000279c <getuint>:
    8000279c:	fe010113          	addi	sp,sp,-32
    800027a0:	00813c23          	sd	s0,24(sp)
    800027a4:	02010413          	addi	s0,sp,32
    800027a8:	fea43423          	sd	a0,-24(s0)
    800027ac:	00058793          	mv	a5,a1
    800027b0:	fef42223          	sw	a5,-28(s0)
    800027b4:	fe442783          	lw	a5,-28(s0)
    800027b8:	0007871b          	sext.w	a4,a5
    800027bc:	00100793          	li	a5,1
    800027c0:	02e7d063          	ble	a4,a5,800027e0 <getuint+0x44>
    800027c4:	fe843783          	ld	a5,-24(s0)
    800027c8:	0007b783          	ld	a5,0(a5)
    800027cc:	00878693          	addi	a3,a5,8
    800027d0:	fe843703          	ld	a4,-24(s0)
    800027d4:	00d73023          	sd	a3,0(a4)
    800027d8:	0007b783          	ld	a5,0(a5)
    800027dc:	04c0006f          	j	80002828 <getuint+0x8c>
    800027e0:	fe442783          	lw	a5,-28(s0)
    800027e4:	0007879b          	sext.w	a5,a5
    800027e8:	02078063          	beqz	a5,80002808 <getuint+0x6c>
    800027ec:	fe843783          	ld	a5,-24(s0)
    800027f0:	0007b783          	ld	a5,0(a5)
    800027f4:	00878693          	addi	a3,a5,8
    800027f8:	fe843703          	ld	a4,-24(s0)
    800027fc:	00d73023          	sd	a3,0(a4)
    80002800:	0007b783          	ld	a5,0(a5)
    80002804:	0240006f          	j	80002828 <getuint+0x8c>
    80002808:	fe843783          	ld	a5,-24(s0)
    8000280c:	0007b783          	ld	a5,0(a5)
    80002810:	00878693          	addi	a3,a5,8
    80002814:	fe843703          	ld	a4,-24(s0)
    80002818:	00d73023          	sd	a3,0(a4)
    8000281c:	0007a783          	lw	a5,0(a5)
    80002820:	02079793          	slli	a5,a5,0x20
    80002824:	0207d793          	srli	a5,a5,0x20
    80002828:	00078513          	mv	a0,a5
    8000282c:	01813403          	ld	s0,24(sp)
    80002830:	02010113          	addi	sp,sp,32
    80002834:	00008067          	ret

0000000080002838 <getint>:
    80002838:	fe010113          	addi	sp,sp,-32
    8000283c:	00813c23          	sd	s0,24(sp)
    80002840:	02010413          	addi	s0,sp,32
    80002844:	fea43423          	sd	a0,-24(s0)
    80002848:	00058793          	mv	a5,a1
    8000284c:	fef42223          	sw	a5,-28(s0)
    80002850:	fe442783          	lw	a5,-28(s0)
    80002854:	0007871b          	sext.w	a4,a5
    80002858:	00100793          	li	a5,1
    8000285c:	02e7d063          	ble	a4,a5,8000287c <getint+0x44>
    80002860:	fe843783          	ld	a5,-24(s0)
    80002864:	0007b783          	ld	a5,0(a5)
    80002868:	00878693          	addi	a3,a5,8
    8000286c:	fe843703          	ld	a4,-24(s0)
    80002870:	00d73023          	sd	a3,0(a4)
    80002874:	0007b783          	ld	a5,0(a5)
    80002878:	0440006f          	j	800028bc <getint+0x84>
    8000287c:	fe442783          	lw	a5,-28(s0)
    80002880:	0007879b          	sext.w	a5,a5
    80002884:	02078063          	beqz	a5,800028a4 <getint+0x6c>
    80002888:	fe843783          	ld	a5,-24(s0)
    8000288c:	0007b783          	ld	a5,0(a5)
    80002890:	00878693          	addi	a3,a5,8
    80002894:	fe843703          	ld	a4,-24(s0)
    80002898:	00d73023          	sd	a3,0(a4)
    8000289c:	0007b783          	ld	a5,0(a5)
    800028a0:	01c0006f          	j	800028bc <getint+0x84>
    800028a4:	fe843783          	ld	a5,-24(s0)
    800028a8:	0007b783          	ld	a5,0(a5)
    800028ac:	00878693          	addi	a3,a5,8
    800028b0:	fe843703          	ld	a4,-24(s0)
    800028b4:	00d73023          	sd	a3,0(a4)
    800028b8:	0007a783          	lw	a5,0(a5)
    800028bc:	00078513          	mv	a0,a5
    800028c0:	01813403          	ld	s0,24(sp)
    800028c4:	02010113          	addi	sp,sp,32
    800028c8:	00008067          	ret

00000000800028cc <vprintfmt>:
    800028cc:	f9010113          	addi	sp,sp,-112
    800028d0:	06113423          	sd	ra,104(sp)
    800028d4:	06813023          	sd	s0,96(sp)
    800028d8:	04913c23          	sd	s1,88(sp)
    800028dc:	05213823          	sd	s2,80(sp)
    800028e0:	07010413          	addi	s0,sp,112
    800028e4:	faa43423          	sd	a0,-88(s0)
    800028e8:	fab43023          	sd	a1,-96(s0)
    800028ec:	f8c43c23          	sd	a2,-104(s0)
    800028f0:	f8d43823          	sd	a3,-112(s0)
    800028f4:	0240006f          	j	80002918 <vprintfmt+0x4c>
    800028f8:	3e048263          	beqz	s1,80002cdc <vprintfmt+0x410>
    800028fc:	f9843783          	ld	a5,-104(s0)
    80002900:	00178793          	addi	a5,a5,1
    80002904:	f8f43c23          	sd	a5,-104(s0)
    80002908:	fa843783          	ld	a5,-88(s0)
    8000290c:	fa043583          	ld	a1,-96(s0)
    80002910:	00048513          	mv	a0,s1
    80002914:	000780e7          	jalr	a5
    80002918:	f9843783          	ld	a5,-104(s0)
    8000291c:	0007c783          	lbu	a5,0(a5)
    80002920:	0007849b          	sext.w	s1,a5
    80002924:	00048713          	mv	a4,s1
    80002928:	02500793          	li	a5,37
    8000292c:	fcf716e3          	bne	a4,a5,800028f8 <vprintfmt+0x2c>
    80002930:	f9843783          	ld	a5,-104(s0)
    80002934:	00178793          	addi	a5,a5,1
    80002938:	f8f43c23          	sd	a5,-104(s0)
    8000293c:	f9843783          	ld	a5,-104(s0)
    80002940:	faf43c23          	sd	a5,-72(s0)
    80002944:	02000793          	li	a5,32
    80002948:	fcf403a3          	sb	a5,-57(s0)
    8000294c:	fff00793          	li	a5,-1
    80002950:	fcf42623          	sw	a5,-52(s0)
    80002954:	fff00793          	li	a5,-1
    80002958:	fcf42423          	sw	a5,-56(s0)
    8000295c:	fc042823          	sw	zero,-48(s0)
    80002960:	fa042a23          	sw	zero,-76(s0)
    80002964:	f9843783          	ld	a5,-104(s0)
    80002968:	00178713          	addi	a4,a5,1
    8000296c:	f8e43c23          	sd	a4,-104(s0)
    80002970:	0007c783          	lbu	a5,0(a5)
    80002974:	0007849b          	sext.w	s1,a5
    80002978:	fdd4869b          	addiw	a3,s1,-35
    8000297c:	0006871b          	sext.w	a4,a3
    80002980:	05500793          	li	a5,85
    80002984:	32e7ec63          	bltu	a5,a4,80002cbc <vprintfmt+0x3f0>
    80002988:	02069793          	slli	a5,a3,0x20
    8000298c:	0207d793          	srli	a5,a5,0x20
    80002990:	00279713          	slli	a4,a5,0x2
    80002994:	00001797          	auipc	a5,0x1
    80002998:	eac78793          	addi	a5,a5,-340 # 80003840 <atol+0x804>
    8000299c:	00f707b3          	add	a5,a4,a5
    800029a0:	0007a783          	lw	a5,0(a5)
    800029a4:	0007871b          	sext.w	a4,a5
    800029a8:	00001797          	auipc	a5,0x1
    800029ac:	e9878793          	addi	a5,a5,-360 # 80003840 <atol+0x804>
    800029b0:	00f707b3          	add	a5,a4,a5
    800029b4:	00078067          	jr	a5
    800029b8:	02d00793          	li	a5,45
    800029bc:	fcf403a3          	sb	a5,-57(s0)
    800029c0:	fa5ff06f          	j	80002964 <vprintfmt+0x98>
    800029c4:	03000793          	li	a5,48
    800029c8:	fcf403a3          	sb	a5,-57(s0)
    800029cc:	f99ff06f          	j	80002964 <vprintfmt+0x98>
    800029d0:	fc042423          	sw	zero,-56(s0)
    800029d4:	fc842703          	lw	a4,-56(s0)
    800029d8:	00070793          	mv	a5,a4
    800029dc:	0027979b          	slliw	a5,a5,0x2
    800029e0:	00e787bb          	addw	a5,a5,a4
    800029e4:	0017979b          	slliw	a5,a5,0x1
    800029e8:	0007879b          	sext.w	a5,a5
    800029ec:	00f487bb          	addw	a5,s1,a5
    800029f0:	0007879b          	sext.w	a5,a5
    800029f4:	fd07879b          	addiw	a5,a5,-48
    800029f8:	fcf42423          	sw	a5,-56(s0)
    800029fc:	f9843783          	ld	a5,-104(s0)
    80002a00:	0007c783          	lbu	a5,0(a5)
    80002a04:	0007849b          	sext.w	s1,a5
    80002a08:	00048713          	mv	a4,s1
    80002a0c:	02f00793          	li	a5,47
    80002a10:	04e7dc63          	ble	a4,a5,80002a68 <vprintfmt+0x19c>
    80002a14:	00048713          	mv	a4,s1
    80002a18:	03900793          	li	a5,57
    80002a1c:	04e7c663          	blt	a5,a4,80002a68 <vprintfmt+0x19c>
    80002a20:	f9843783          	ld	a5,-104(s0)
    80002a24:	00178793          	addi	a5,a5,1
    80002a28:	f8f43c23          	sd	a5,-104(s0)
    80002a2c:	fa9ff06f          	j	800029d4 <vprintfmt+0x108>
    80002a30:	f9043783          	ld	a5,-112(s0)
    80002a34:	00878713          	addi	a4,a5,8
    80002a38:	f8e43823          	sd	a4,-112(s0)
    80002a3c:	0007a783          	lw	a5,0(a5)
    80002a40:	fcf42423          	sw	a5,-56(s0)
    80002a44:	0280006f          	j	80002a6c <vprintfmt+0x1a0>
    80002a48:	fcc42783          	lw	a5,-52(s0)
    80002a4c:	0007879b          	sext.w	a5,a5
    80002a50:	f007dae3          	bgez	a5,80002964 <vprintfmt+0x98>
    80002a54:	fc042623          	sw	zero,-52(s0)
    80002a58:	f0dff06f          	j	80002964 <vprintfmt+0x98>
    80002a5c:	00100793          	li	a5,1
    80002a60:	faf42a23          	sw	a5,-76(s0)
    80002a64:	f01ff06f          	j	80002964 <vprintfmt+0x98>
    80002a68:	00000013          	nop
    80002a6c:	fcc42783          	lw	a5,-52(s0)
    80002a70:	0007879b          	sext.w	a5,a5
    80002a74:	ee07d8e3          	bgez	a5,80002964 <vprintfmt+0x98>
    80002a78:	fc842783          	lw	a5,-56(s0)
    80002a7c:	fcf42623          	sw	a5,-52(s0)
    80002a80:	fff00793          	li	a5,-1
    80002a84:	fcf42423          	sw	a5,-56(s0)
    80002a88:	eddff06f          	j	80002964 <vprintfmt+0x98>
    80002a8c:	fd042783          	lw	a5,-48(s0)
    80002a90:	0017879b          	addiw	a5,a5,1
    80002a94:	fcf42823          	sw	a5,-48(s0)
    80002a98:	ecdff06f          	j	80002964 <vprintfmt+0x98>
    80002a9c:	f9043783          	ld	a5,-112(s0)
    80002aa0:	00878713          	addi	a4,a5,8
    80002aa4:	f8e43823          	sd	a4,-112(s0)
    80002aa8:	0007a783          	lw	a5,0(a5)
    80002aac:	fa843703          	ld	a4,-88(s0)
    80002ab0:	fa043583          	ld	a1,-96(s0)
    80002ab4:	00078513          	mv	a0,a5
    80002ab8:	000700e7          	jalr	a4
    80002abc:	21c0006f          	j	80002cd8 <vprintfmt+0x40c>
    80002ac0:	f9043783          	ld	a5,-112(s0)
    80002ac4:	00878713          	addi	a4,a5,8
    80002ac8:	f8e43823          	sd	a4,-112(s0)
    80002acc:	0007b903          	ld	s2,0(a5)
    80002ad0:	00091663          	bnez	s2,80002adc <vprintfmt+0x210>
    80002ad4:	00001917          	auipc	s2,0x1
    80002ad8:	d6490913          	addi	s2,s2,-668 # 80003838 <atol+0x7fc>
    80002adc:	fcc42783          	lw	a5,-52(s0)
    80002ae0:	0007879b          	sext.w	a5,a5
    80002ae4:	08f05a63          	blez	a5,80002b78 <vprintfmt+0x2ac>
    80002ae8:	fc744783          	lbu	a5,-57(s0)
    80002aec:	0ff7f713          	andi	a4,a5,255
    80002af0:	02d00793          	li	a5,45
    80002af4:	08f70263          	beq	a4,a5,80002b78 <vprintfmt+0x2ac>
    80002af8:	fc842783          	lw	a5,-56(s0)
    80002afc:	00078593          	mv	a1,a5
    80002b00:	00090513          	mv	a0,s2
    80002b04:	3f4000ef          	jal	ra,80002ef8 <strnlen>
    80002b08:	00050793          	mv	a5,a0
    80002b0c:	fcc42703          	lw	a4,-52(s0)
    80002b10:	0007879b          	sext.w	a5,a5
    80002b14:	40f707bb          	subw	a5,a4,a5
    80002b18:	0007879b          	sext.w	a5,a5
    80002b1c:	fcf42623          	sw	a5,-52(s0)
    80002b20:	0280006f          	j	80002b48 <vprintfmt+0x27c>
    80002b24:	fc744783          	lbu	a5,-57(s0)
    80002b28:	0007879b          	sext.w	a5,a5
    80002b2c:	fa843703          	ld	a4,-88(s0)
    80002b30:	fa043583          	ld	a1,-96(s0)
    80002b34:	00078513          	mv	a0,a5
    80002b38:	000700e7          	jalr	a4
    80002b3c:	fcc42783          	lw	a5,-52(s0)
    80002b40:	fff7879b          	addiw	a5,a5,-1
    80002b44:	fcf42623          	sw	a5,-52(s0)
    80002b48:	fcc42783          	lw	a5,-52(s0)
    80002b4c:	0007879b          	sext.w	a5,a5
    80002b50:	fcf04ae3          	bgtz	a5,80002b24 <vprintfmt+0x258>
    80002b54:	0240006f          	j	80002b78 <vprintfmt+0x2ac>
    80002b58:	fa843783          	ld	a5,-88(s0)
    80002b5c:	fa043583          	ld	a1,-96(s0)
    80002b60:	00048513          	mv	a0,s1
    80002b64:	000780e7          	jalr	a5
    80002b68:	00190913          	addi	s2,s2,1
    80002b6c:	fcc42783          	lw	a5,-52(s0)
    80002b70:	fff7879b          	addiw	a5,a5,-1
    80002b74:	fcf42623          	sw	a5,-52(s0)
    80002b78:	00094783          	lbu	a5,0(s2)
    80002b7c:	0007849b          	sext.w	s1,a5
    80002b80:	04048463          	beqz	s1,80002bc8 <vprintfmt+0x2fc>
    80002b84:	fc842783          	lw	a5,-56(s0)
    80002b88:	0007879b          	sext.w	a5,a5
    80002b8c:	fc07c6e3          	bltz	a5,80002b58 <vprintfmt+0x28c>
    80002b90:	fc842783          	lw	a5,-56(s0)
    80002b94:	fff7879b          	addiw	a5,a5,-1
    80002b98:	fcf42423          	sw	a5,-56(s0)
    80002b9c:	fc842783          	lw	a5,-56(s0)
    80002ba0:	0007879b          	sext.w	a5,a5
    80002ba4:	fa07dae3          	bgez	a5,80002b58 <vprintfmt+0x28c>
    80002ba8:	0200006f          	j	80002bc8 <vprintfmt+0x2fc>
    80002bac:	fa843783          	ld	a5,-88(s0)
    80002bb0:	fa043583          	ld	a1,-96(s0)
    80002bb4:	02000513          	li	a0,32
    80002bb8:	000780e7          	jalr	a5
    80002bbc:	fcc42783          	lw	a5,-52(s0)
    80002bc0:	fff7879b          	addiw	a5,a5,-1
    80002bc4:	fcf42623          	sw	a5,-52(s0)
    80002bc8:	fcc42783          	lw	a5,-52(s0)
    80002bcc:	0007879b          	sext.w	a5,a5
    80002bd0:	fcf04ee3          	bgtz	a5,80002bac <vprintfmt+0x2e0>
    80002bd4:	1040006f          	j	80002cd8 <vprintfmt+0x40c>
    80002bd8:	fd042703          	lw	a4,-48(s0)
    80002bdc:	f9040793          	addi	a5,s0,-112
    80002be0:	00070593          	mv	a1,a4
    80002be4:	00078513          	mv	a0,a5
    80002be8:	c51ff0ef          	jal	ra,80002838 <getint>
    80002bec:	00050793          	mv	a5,a0
    80002bf0:	fcf43c23          	sd	a5,-40(s0)
    80002bf4:	fd843783          	ld	a5,-40(s0)
    80002bf8:	0207d063          	bgez	a5,80002c18 <vprintfmt+0x34c>
    80002bfc:	fa843783          	ld	a5,-88(s0)
    80002c00:	fa043583          	ld	a1,-96(s0)
    80002c04:	02d00513          	li	a0,45
    80002c08:	000780e7          	jalr	a5
    80002c0c:	fd843783          	ld	a5,-40(s0)
    80002c10:	40f007b3          	neg	a5,a5
    80002c14:	fcf43c23          	sd	a5,-40(s0)
    80002c18:	00a00793          	li	a5,10
    80002c1c:	fcf42a23          	sw	a5,-44(s0)
    80002c20:	0640006f          	j	80002c84 <vprintfmt+0x3b8>
    80002c24:	00a00793          	li	a5,10
    80002c28:	fcf42a23          	sw	a5,-44(s0)
    80002c2c:	0400006f          	j	80002c6c <vprintfmt+0x3a0>
    80002c30:	00800793          	li	a5,8
    80002c34:	fcf42a23          	sw	a5,-44(s0)
    80002c38:	0340006f          	j	80002c6c <vprintfmt+0x3a0>
    80002c3c:	00100793          	li	a5,1
    80002c40:	fcf42823          	sw	a5,-48(s0)
    80002c44:	fa843783          	ld	a5,-88(s0)
    80002c48:	fa043583          	ld	a1,-96(s0)
    80002c4c:	03000513          	li	a0,48
    80002c50:	000780e7          	jalr	a5
    80002c54:	fa843783          	ld	a5,-88(s0)
    80002c58:	fa043583          	ld	a1,-96(s0)
    80002c5c:	07800513          	li	a0,120
    80002c60:	000780e7          	jalr	a5
    80002c64:	01000793          	li	a5,16
    80002c68:	fcf42a23          	sw	a5,-44(s0)
    80002c6c:	fd042703          	lw	a4,-48(s0)
    80002c70:	f9040793          	addi	a5,s0,-112
    80002c74:	00070593          	mv	a1,a4
    80002c78:	00078513          	mv	a0,a5
    80002c7c:	b21ff0ef          	jal	ra,8000279c <getuint>
    80002c80:	fca43c23          	sd	a0,-40(s0)
    80002c84:	fd442683          	lw	a3,-44(s0)
    80002c88:	fc744783          	lbu	a5,-57(s0)
    80002c8c:	0007879b          	sext.w	a5,a5
    80002c90:	fcc42703          	lw	a4,-52(s0)
    80002c94:	fd843603          	ld	a2,-40(s0)
    80002c98:	fa043583          	ld	a1,-96(s0)
    80002c9c:	fa843503          	ld	a0,-88(s0)
    80002ca0:	9b5ff0ef          	jal	ra,80002654 <printnum>
    80002ca4:	0340006f          	j	80002cd8 <vprintfmt+0x40c>
    80002ca8:	fa843783          	ld	a5,-88(s0)
    80002cac:	fa043583          	ld	a1,-96(s0)
    80002cb0:	00048513          	mv	a0,s1
    80002cb4:	000780e7          	jalr	a5
    80002cb8:	0200006f          	j	80002cd8 <vprintfmt+0x40c>
    80002cbc:	fa843783          	ld	a5,-88(s0)
    80002cc0:	fa043583          	ld	a1,-96(s0)
    80002cc4:	02500513          	li	a0,37
    80002cc8:	000780e7          	jalr	a5
    80002ccc:	fb843783          	ld	a5,-72(s0)
    80002cd0:	f8f43c23          	sd	a5,-104(s0)
    80002cd4:	00000013          	nop
    80002cd8:	c41ff06f          	j	80002918 <vprintfmt+0x4c>
    80002cdc:	00000013          	nop
    80002ce0:	06813083          	ld	ra,104(sp)
    80002ce4:	06013403          	ld	s0,96(sp)
    80002ce8:	05813483          	ld	s1,88(sp)
    80002cec:	05013903          	ld	s2,80(sp)
    80002cf0:	07010113          	addi	sp,sp,112
    80002cf4:	00008067          	ret

0000000080002cf8 <printf>:
    80002cf8:	f9010113          	addi	sp,sp,-112
    80002cfc:	02113423          	sd	ra,40(sp)
    80002d00:	02813023          	sd	s0,32(sp)
    80002d04:	03010413          	addi	s0,sp,48
    80002d08:	fca43c23          	sd	a0,-40(s0)
    80002d0c:	00b43423          	sd	a1,8(s0)
    80002d10:	00c43823          	sd	a2,16(s0)
    80002d14:	00d43c23          	sd	a3,24(s0)
    80002d18:	02e43023          	sd	a4,32(s0)
    80002d1c:	02f43423          	sd	a5,40(s0)
    80002d20:	03043823          	sd	a6,48(s0)
    80002d24:	03143c23          	sd	a7,56(s0)
    80002d28:	04040793          	addi	a5,s0,64
    80002d2c:	fc878793          	addi	a5,a5,-56
    80002d30:	fef43423          	sd	a5,-24(s0)
    80002d34:	fe843783          	ld	a5,-24(s0)
    80002d38:	00078693          	mv	a3,a5
    80002d3c:	fd843603          	ld	a2,-40(s0)
    80002d40:	00000593          	li	a1,0
    80002d44:	fffff517          	auipc	a0,0xfffff
    80002d48:	72850513          	addi	a0,a0,1832 # 8000246c <putchar>
    80002d4c:	b81ff0ef          	jal	ra,800028cc <vprintfmt>
    80002d50:	00000793          	li	a5,0
    80002d54:	00078513          	mv	a0,a5
    80002d58:	02813083          	ld	ra,40(sp)
    80002d5c:	02013403          	ld	s0,32(sp)
    80002d60:	07010113          	addi	sp,sp,112
    80002d64:	00008067          	ret

0000000080002d68 <sprintf_putch.2903>:
    80002d68:	fc010113          	addi	sp,sp,-64
    80002d6c:	02813c23          	sd	s0,56(sp)
    80002d70:	04010413          	addi	s0,sp,64
    80002d74:	00050793          	mv	a5,a0
    80002d78:	fcb43823          	sd	a1,-48(s0)
    80002d7c:	fcf42e23          	sw	a5,-36(s0)
    80002d80:	fc743423          	sd	t2,-56(s0)
    80002d84:	fd043783          	ld	a5,-48(s0)
    80002d88:	fef43423          	sd	a5,-24(s0)
    80002d8c:	fe843783          	ld	a5,-24(s0)
    80002d90:	0007b783          	ld	a5,0(a5)
    80002d94:	fdc42703          	lw	a4,-36(s0)
    80002d98:	0ff77713          	andi	a4,a4,255
    80002d9c:	00e78023          	sb	a4,0(a5)
    80002da0:	fe843783          	ld	a5,-24(s0)
    80002da4:	0007b783          	ld	a5,0(a5)
    80002da8:	00178713          	addi	a4,a5,1
    80002dac:	fe843783          	ld	a5,-24(s0)
    80002db0:	00e7b023          	sd	a4,0(a5)
    80002db4:	00000013          	nop
    80002db8:	03813403          	ld	s0,56(sp)
    80002dbc:	04010113          	addi	sp,sp,64
    80002dc0:	00008067          	ret

0000000080002dc4 <sprintf>:
    80002dc4:	f0010113          	addi	sp,sp,-256
    80002dc8:	0c113423          	sd	ra,200(sp)
    80002dcc:	0c813023          	sd	s0,192(sp)
    80002dd0:	0d010413          	addi	s0,sp,208
    80002dd4:	f2a43c23          	sd	a0,-200(s0)
    80002dd8:	f2b43823          	sd	a1,-208(s0)
    80002ddc:	00c43023          	sd	a2,0(s0)
    80002de0:	00d43423          	sd	a3,8(s0)
    80002de4:	00e43823          	sd	a4,16(s0)
    80002de8:	00f43c23          	sd	a5,24(s0)
    80002dec:	03043023          	sd	a6,32(s0)
    80002df0:	03143423          	sd	a7,40(s0)
    80002df4:	03040793          	addi	a5,s0,48
    80002df8:	fcf43c23          	sd	a5,-40(s0)
    80002dfc:	f4840793          	addi	a5,s0,-184
    80002e00:	f4840713          	addi	a4,s0,-184
    80002e04:	39700693          	li	a3,919
    80002e08:	00d7a023          	sw	a3,0(a5)
    80002e0c:	0183b6b7          	lui	a3,0x183b
    80002e10:	3036869b          	addiw	a3,a3,771
    80002e14:	00d7a223          	sw	a3,4(a5)
    80002e18:	0103b6b7          	lui	a3,0x103b
    80002e1c:	3836869b          	addiw	a3,a3,899
    80002e20:	00d7a423          	sw	a3,8(a5)
    80002e24:	000306b7          	lui	a3,0x30
    80002e28:	0676869b          	addiw	a3,a3,103
    80002e2c:	00d7a623          	sw	a3,12(a5)
    80002e30:	00e7b823          	sd	a4,16(a5)
    80002e34:	00000717          	auipc	a4,0x0
    80002e38:	f3470713          	addi	a4,a4,-204 # 80002d68 <sprintf_putch.2903>
    80002e3c:	00e7bc23          	sd	a4,24(a5)
    80002e40:	0000100f          	fence.i
    80002e44:	f3843783          	ld	a5,-200(s0)
    80002e48:	fef43423          	sd	a5,-24(s0)
    80002e4c:	03040793          	addi	a5,s0,48
    80002e50:	fd078793          	addi	a5,a5,-48
    80002e54:	fef43023          	sd	a5,-32(s0)
    80002e58:	fe043703          	ld	a4,-32(s0)
    80002e5c:	f4840793          	addi	a5,s0,-184
    80002e60:	00078513          	mv	a0,a5
    80002e64:	f3840793          	addi	a5,s0,-200
    80002e68:	00070693          	mv	a3,a4
    80002e6c:	f3043603          	ld	a2,-208(s0)
    80002e70:	00078593          	mv	a1,a5
    80002e74:	a59ff0ef          	jal	ra,800028cc <vprintfmt>
    80002e78:	f3843783          	ld	a5,-200(s0)
    80002e7c:	00078023          	sb	zero,0(a5)
    80002e80:	f3843783          	ld	a5,-200(s0)
    80002e84:	00078713          	mv	a4,a5
    80002e88:	fe843783          	ld	a5,-24(s0)
    80002e8c:	40f707b3          	sub	a5,a4,a5
    80002e90:	0007879b          	sext.w	a5,a5
    80002e94:	00078513          	mv	a0,a5
    80002e98:	0c813083          	ld	ra,200(sp)
    80002e9c:	0c013403          	ld	s0,192(sp)
    80002ea0:	10010113          	addi	sp,sp,256
    80002ea4:	00008067          	ret

0000000080002ea8 <strlen>:
    80002ea8:	fd010113          	addi	sp,sp,-48
    80002eac:	02813423          	sd	s0,40(sp)
    80002eb0:	03010413          	addi	s0,sp,48
    80002eb4:	fca43c23          	sd	a0,-40(s0)
    80002eb8:	fd843783          	ld	a5,-40(s0)
    80002ebc:	fef43423          	sd	a5,-24(s0)
    80002ec0:	0100006f          	j	80002ed0 <strlen+0x28>
    80002ec4:	fe843783          	ld	a5,-24(s0)
    80002ec8:	00178793          	addi	a5,a5,1
    80002ecc:	fef43423          	sd	a5,-24(s0)
    80002ed0:	fe843783          	ld	a5,-24(s0)
    80002ed4:	0007c783          	lbu	a5,0(a5)
    80002ed8:	fe0796e3          	bnez	a5,80002ec4 <strlen+0x1c>
    80002edc:	fe843703          	ld	a4,-24(s0)
    80002ee0:	fd843783          	ld	a5,-40(s0)
    80002ee4:	40f707b3          	sub	a5,a4,a5
    80002ee8:	00078513          	mv	a0,a5
    80002eec:	02813403          	ld	s0,40(sp)
    80002ef0:	03010113          	addi	sp,sp,48
    80002ef4:	00008067          	ret

0000000080002ef8 <strnlen>:
    80002ef8:	fd010113          	addi	sp,sp,-48
    80002efc:	02813423          	sd	s0,40(sp)
    80002f00:	03010413          	addi	s0,sp,48
    80002f04:	fca43c23          	sd	a0,-40(s0)
    80002f08:	fcb43823          	sd	a1,-48(s0)
    80002f0c:	fd843783          	ld	a5,-40(s0)
    80002f10:	fef43423          	sd	a5,-24(s0)
    80002f14:	0100006f          	j	80002f24 <strnlen+0x2c>
    80002f18:	fe843783          	ld	a5,-24(s0)
    80002f1c:	00178793          	addi	a5,a5,1
    80002f20:	fef43423          	sd	a5,-24(s0)
    80002f24:	fd043783          	ld	a5,-48(s0)
    80002f28:	fff78713          	addi	a4,a5,-1
    80002f2c:	fce43823          	sd	a4,-48(s0)
    80002f30:	00078863          	beqz	a5,80002f40 <strnlen+0x48>
    80002f34:	fe843783          	ld	a5,-24(s0)
    80002f38:	0007c783          	lbu	a5,0(a5)
    80002f3c:	fc079ee3          	bnez	a5,80002f18 <strnlen+0x20>
    80002f40:	fe843703          	ld	a4,-24(s0)
    80002f44:	fd843783          	ld	a5,-40(s0)
    80002f48:	40f707b3          	sub	a5,a4,a5
    80002f4c:	00078513          	mv	a0,a5
    80002f50:	02813403          	ld	s0,40(sp)
    80002f54:	03010113          	addi	sp,sp,48
    80002f58:	00008067          	ret

0000000080002f5c <strcmp>:
    80002f5c:	fd010113          	addi	sp,sp,-48
    80002f60:	02813423          	sd	s0,40(sp)
    80002f64:	03010413          	addi	s0,sp,48
    80002f68:	fca43c23          	sd	a0,-40(s0)
    80002f6c:	fcb43823          	sd	a1,-48(s0)
    80002f70:	fd843783          	ld	a5,-40(s0)
    80002f74:	00178713          	addi	a4,a5,1
    80002f78:	fce43c23          	sd	a4,-40(s0)
    80002f7c:	0007c783          	lbu	a5,0(a5)
    80002f80:	fef407a3          	sb	a5,-17(s0)
    80002f84:	fd043783          	ld	a5,-48(s0)
    80002f88:	00178713          	addi	a4,a5,1
    80002f8c:	fce43823          	sd	a4,-48(s0)
    80002f90:	0007c783          	lbu	a5,0(a5)
    80002f94:	fef40723          	sb	a5,-18(s0)
    80002f98:	fef44783          	lbu	a5,-17(s0)
    80002f9c:	0ff7f793          	andi	a5,a5,255
    80002fa0:	00078c63          	beqz	a5,80002fb8 <strcmp+0x5c>
    80002fa4:	fef44703          	lbu	a4,-17(s0)
    80002fa8:	fee44783          	lbu	a5,-18(s0)
    80002fac:	0ff77713          	andi	a4,a4,255
    80002fb0:	0ff7f793          	andi	a5,a5,255
    80002fb4:	faf70ee3          	beq	a4,a5,80002f70 <strcmp+0x14>
    80002fb8:	fef44783          	lbu	a5,-17(s0)
    80002fbc:	0007871b          	sext.w	a4,a5
    80002fc0:	fee44783          	lbu	a5,-18(s0)
    80002fc4:	0007879b          	sext.w	a5,a5
    80002fc8:	40f707bb          	subw	a5,a4,a5
    80002fcc:	0007879b          	sext.w	a5,a5
    80002fd0:	00078513          	mv	a0,a5
    80002fd4:	02813403          	ld	s0,40(sp)
    80002fd8:	03010113          	addi	sp,sp,48
    80002fdc:	00008067          	ret

0000000080002fe0 <strcpy>:
    80002fe0:	fd010113          	addi	sp,sp,-48
    80002fe4:	02813423          	sd	s0,40(sp)
    80002fe8:	03010413          	addi	s0,sp,48
    80002fec:	fca43c23          	sd	a0,-40(s0)
    80002ff0:	fcb43823          	sd	a1,-48(s0)
    80002ff4:	fd843783          	ld	a5,-40(s0)
    80002ff8:	fef43423          	sd	a5,-24(s0)
    80002ffc:	00000013          	nop
    80003000:	fd043703          	ld	a4,-48(s0)
    80003004:	00170793          	addi	a5,a4,1
    80003008:	fcf43823          	sd	a5,-48(s0)
    8000300c:	fe843783          	ld	a5,-24(s0)
    80003010:	00178693          	addi	a3,a5,1
    80003014:	fed43423          	sd	a3,-24(s0)
    80003018:	00074703          	lbu	a4,0(a4)
    8000301c:	00e78023          	sb	a4,0(a5)
    80003020:	0007c783          	lbu	a5,0(a5)
    80003024:	fc079ee3          	bnez	a5,80003000 <strcpy+0x20>
    80003028:	fd843783          	ld	a5,-40(s0)
    8000302c:	00078513          	mv	a0,a5
    80003030:	02813403          	ld	s0,40(sp)
    80003034:	03010113          	addi	sp,sp,48
    80003038:	00008067          	ret

000000008000303c <atol>:
    8000303c:	fd010113          	addi	sp,sp,-48
    80003040:	02813423          	sd	s0,40(sp)
    80003044:	03010413          	addi	s0,sp,48
    80003048:	fca43c23          	sd	a0,-40(s0)
    8000304c:	fe043423          	sd	zero,-24(s0)
    80003050:	fe042223          	sw	zero,-28(s0)
    80003054:	0100006f          	j	80003064 <atol+0x28>
    80003058:	fd843783          	ld	a5,-40(s0)
    8000305c:	00178793          	addi	a5,a5,1
    80003060:	fcf43c23          	sd	a5,-40(s0)
    80003064:	fd843783          	ld	a5,-40(s0)
    80003068:	0007c783          	lbu	a5,0(a5)
    8000306c:	00078713          	mv	a4,a5
    80003070:	02000793          	li	a5,32
    80003074:	fef702e3          	beq	a4,a5,80003058 <atol+0x1c>
    80003078:	fd843783          	ld	a5,-40(s0)
    8000307c:	0007c783          	lbu	a5,0(a5)
    80003080:	00078713          	mv	a4,a5
    80003084:	02d00793          	li	a5,45
    80003088:	00f70c63          	beq	a4,a5,800030a0 <atol+0x64>
    8000308c:	fd843783          	ld	a5,-40(s0)
    80003090:	0007c783          	lbu	a5,0(a5)
    80003094:	00078713          	mv	a4,a5
    80003098:	02b00793          	li	a5,43
    8000309c:	06f71c63          	bne	a4,a5,80003114 <atol+0xd8>
    800030a0:	fd843783          	ld	a5,-40(s0)
    800030a4:	0007c783          	lbu	a5,0(a5)
    800030a8:	0007871b          	sext.w	a4,a5
    800030ac:	02d00793          	li	a5,45
    800030b0:	40f707b3          	sub	a5,a4,a5
    800030b4:	0017b793          	seqz	a5,a5
    800030b8:	0ff7f793          	andi	a5,a5,255
    800030bc:	fef42223          	sw	a5,-28(s0)
    800030c0:	fd843783          	ld	a5,-40(s0)
    800030c4:	00178793          	addi	a5,a5,1
    800030c8:	fcf43c23          	sd	a5,-40(s0)
    800030cc:	0480006f          	j	80003114 <atol+0xd8>
    800030d0:	fe843703          	ld	a4,-24(s0)
    800030d4:	00070793          	mv	a5,a4
    800030d8:	00279793          	slli	a5,a5,0x2
    800030dc:	00e787b3          	add	a5,a5,a4
    800030e0:	00179793          	slli	a5,a5,0x1
    800030e4:	fef43423          	sd	a5,-24(s0)
    800030e8:	fd843783          	ld	a5,-40(s0)
    800030ec:	00178713          	addi	a4,a5,1
    800030f0:	fce43c23          	sd	a4,-40(s0)
    800030f4:	0007c783          	lbu	a5,0(a5)
    800030f8:	0007879b          	sext.w	a5,a5
    800030fc:	fd07879b          	addiw	a5,a5,-48
    80003100:	0007879b          	sext.w	a5,a5
    80003104:	00078713          	mv	a4,a5
    80003108:	fe843783          	ld	a5,-24(s0)
    8000310c:	00e787b3          	add	a5,a5,a4
    80003110:	fef43423          	sd	a5,-24(s0)
    80003114:	fd843783          	ld	a5,-40(s0)
    80003118:	0007c783          	lbu	a5,0(a5)
    8000311c:	fa079ae3          	bnez	a5,800030d0 <atol+0x94>
    80003120:	fe442783          	lw	a5,-28(s0)
    80003124:	0007879b          	sext.w	a5,a5
    80003128:	00078863          	beqz	a5,80003138 <atol+0xfc>
    8000312c:	fe843783          	ld	a5,-24(s0)
    80003130:	40f007b3          	neg	a5,a5
    80003134:	0080006f          	j	8000313c <atol+0x100>
    80003138:	fe843783          	ld	a5,-24(s0)
    8000313c:	00078513          	mv	a0,a5
    80003140:	02813403          	ld	s0,40(sp)
    80003144:	03010113          	addi	sp,sp,48
    80003148:	00008067          	ret

Disassembly of section .rodata:

0000000080003150 <.rodata>:
    80003150:	4909                	li	s2,2
    80003152:	4332                	lw	t1,12(sp)
    80003154:	203a                	fld	ft0,392(sp)
    80003156:	6e49                	lui	t3,0x12
    80003158:	7469                	lui	s0,0xffffa
    8000315a:	6169                	addi	sp,sp,208
    8000315c:	696c                	ld	a1,208(a0)
    8000315e:	697a                	ld	s2,408(sp)
    80003160:	676e                	ld	a4,216(sp)
    80003162:	7420                	ld	s0,104(s0)
    80003164:	6568                	ld	a0,200(a0)
    80003166:	4320                	lw	s0,64(a4)
    80003168:	72746e6f          	jal	t3,8004a08e <__global_pointer$+0x41ef6>
    8000316c:	656c6c6f          	jal	s8,800c97c2 <__global_pointer$+0xc162a>
    80003170:	0a72                	slli	s4,s4,0x1c
    80003172:	0000                	unimp
    80003174:	0000                	unimp
    80003176:	0000                	unimp
    80003178:	4309                	li	t1,2
    8000317a:	6f6c                	ld	a1,216(a4)
    8000317c:	69206b63          	bltu	zero,s2,80003812 <atol+0x7d6>
    80003180:	696e                	ld	s2,216(sp)
    80003182:	6974                	ld	a3,208(a0)
    80003184:	6c61                	lui	s8,0x18
    80003186:	7a69                	lui	s4,0xffffa
    80003188:	7461                	lui	s0,0xffff8
    8000318a:	6f69                	lui	t5,0x1a
    8000318c:	206e                	fld	ft0,216(sp)
    8000318e:	6166                	ld	sp,88(sp)
    80003190:	6c69                	lui	s8,0x1a
    80003192:	6465                	lui	s0,0x19
    80003194:	5720                	lw	s0,104(a4)
    80003196:	6972                	ld	s2,280(sp)
    80003198:	6574                	ld	a3,200(a0)
    8000319a:	5620                	lw	s0,104(a2)
    8000319c:	6c61                	lui	s8,0x18
    8000319e:	6575                	lui	a0,0x1d
    800031a0:	203a                	fld	ft0,392(sp)
    800031a2:	7830                	ld	a2,112(s0)
    800031a4:	3139                	addiw	sp,sp,-18
    800031a6:	6572203b          	0x6572203b
    800031aa:	6461                	lui	s0,0x18
    800031ac:	5620                	lw	s0,104(a2)
    800031ae:	6c61                	lui	s8,0x18
    800031b0:	6575                	lui	a0,0x1d
    800031b2:	203a                	fld	ft0,392(sp)
    800031b4:	3025                	0x3025
    800031b6:	7832                	ld	a6,296(sp)
    800031b8:	000a                	0xa
    800031ba:	0000                	unimp
    800031bc:	0000                	unimp
    800031be:	0000                	unimp
    800031c0:	4309                	li	t1,2
    800031c2:	6f6c                	ld	a1,216(a4)
    800031c4:	73206b63          	bltu	zero,s2,800038fa <atol+0x8be>
    800031c8:	6375                	lui	t1,0x1d
    800031ca:	73736563          	bltu	t1,s7,800038f4 <atol+0x8b8>
    800031ce:	7566                	ld	a0,120(sp)
    800031d0:	6c6c                	ld	a1,216(s0)
    800031d2:	2079                	0x2079
    800031d4:	6e69                	lui	t3,0x1a
    800031d6:	7469                	lui	s0,0xffffa
    800031d8:	6c61                	lui	s8,0x18
    800031da:	7a69                	lui	s4,0xffffa
    800031dc:	6465                	lui	s0,0x19
    800031de:	000a                	0xa
    800031e0:	5309                	li	t1,-30
    800031e2:	7465                	lui	s0,0xffff9
    800031e4:	6974                	ld	a3,208(a0)
    800031e6:	676e                	ld	a4,216(sp)
    800031e8:	4320                	lw	s0,64(a4)
    800031ea:	72746e6f          	jal	t3,8004a110 <__global_pointer$+0x41f78>
    800031ee:	52206c6f          	jal	s8,80009710 <__global_pointer$+0x1578>
    800031f2:	6765                	lui	a4,0x19
    800031f4:	7369                	lui	t1,0xffffa
    800031f6:	6574                	ld	a3,200(a0)
    800031f8:	2072                	fld	ft0,280(sp)
    800031fa:	68746977          	0x68746977
    800031fe:	3020                	fld	fs0,96(s0)
    80003200:	3878                	fld	fa4,240(s0)
    80003202:	2030                	fld	fa2,64(s0)
    80003204:	000a                	0xa
    80003206:	0000                	unimp
    80003208:	4309                	li	t1,2
    8000320a:	72746e6f          	jal	t3,8004a130 <__global_pointer$+0x41f98>
    8000320e:	52206c6f          	jal	s8,80009730 <__global_pointer$+0x1598>
    80003212:	6765                	lui	a4,0x19
    80003214:	7369                	lui	t1,0xffffa
    80003216:	6574                	ld	a3,200(a0)
    80003218:	2072                	fld	ft0,280(sp)
    8000321a:	63637553          	0x63637553
    8000321e:	7365                	lui	t1,0xffff9
    80003220:	6c756673          	csrrsi	a2,0x6c7,10
    80003224:	796c                	ld	a1,240(a0)
    80003226:	7320                	ld	s0,96(a4)
    80003228:	7465                	lui	s0,0xffff9
    8000322a:	0a20                	addi	s0,sp,280
    8000322c:	0000                	unimp
    8000322e:	0000                	unimp
    80003230:	5209                	li	tp,-30
    80003232:	6165                	addi	sp,sp,112
    80003234:	6964                	ld	s1,208(a0)
    80003236:	676e                	ld	a4,216(sp)
    80003238:	4320                	lw	s0,64(a4)
    8000323a:	72746e6f          	jal	t3,8004a160 <__global_pointer$+0x41fc8>
    8000323e:	52206c6f          	jal	s8,80009760 <__global_pointer$+0x15c8>
    80003242:	6765                	lui	a4,0x19
    80003244:	7369                	lui	t1,0xffffa
    80003246:	6574                	ld	a3,200(a0)
    80003248:	2072                	fld	ft0,280(sp)
    8000324a:	000a                	0xa
    8000324c:	0000                	unimp
    8000324e:	0000                	unimp
    80003250:	4309                	li	t1,2
    80003252:	72746e6f          	jal	t3,8004a178 <__global_pointer$+0x41fe0>
    80003256:	52206c6f          	jal	s8,80009778 <__global_pointer$+0x15e0>
    8000325a:	6765                	lui	a4,0x19
    8000325c:	7369                	lui	t1,0xffffa
    8000325e:	6574                	ld	a3,200(a0)
    80003260:	2072                	fld	ft0,280(sp)
    80003262:	7369                	lui	t1,0xffffa
    80003264:	5720                	lw	s0,104(a4)
    80003266:	6972                	ld	s2,280(sp)
    80003268:	7474                	ld	a3,232(s0)
    8000326a:	6e65                	lui	t3,0x19
    8000326c:	7720                	ld	s0,104(a4)
    8000326e:	7469                	lui	s0,0xffffa
    80003270:	2068                	fld	fa0,192(s0)
    80003272:	7830                	ld	a2,112(s0)
    80003274:	7825                	lui	a6,0xfffe9
    80003276:	0a20                	addi	s0,sp,280
	...
    80003280:	4409                	li	s0,2
    80003282:	7665                	lui	a2,0xffff9
    80003284:	6369                	lui	t1,0x1a
    80003286:	2065                	0x2065
    80003288:	6f4e                	ld	t5,208(sp)
    8000328a:	2074                	fld	fa3,192(s0)
    8000328c:	6552                	ld	a0,272(sp)
    8000328e:	6e676f63          	bltu	a4,t1,8000398c <atol+0x950>
    80003292:	7a69                	lui	s4,0xffffa
    80003294:	6465                	lui	s0,0x19
    80003296:	000a                	0xa
    80003298:	5709                	li	a4,-30
    8000329a:	6961                	lui	s2,0x18
    8000329c:	6974                	ld	a3,208(a0)
    8000329e:	676e                	ld	a4,216(sp)
    800032a0:	6620                	ld	s0,72(a2)
    800032a2:	6120726f          	jal	tp,8000a8b4 <__global_pointer$+0x271c>
    800032a6:	7320                	ld	s0,96(a4)
    800032a8:	6570                	ld	a2,200(a0)
    800032aa:	69666963          	bltu	a2,s6,8000393c <atol+0x900>
    800032ae:	6465                	lui	s0,0x19
    800032b0:	7420                	ld	s0,104(s0)
    800032b2:	6d69                	lui	s10,0x1a
    800032b4:	0a65                	addi	s4,s4,25
    800032b6:	0020                	addi	s0,sp,8
    800032b8:	4409                	li	s0,2
    800032ba:	20656e6f          	jal	t3,800594c0 <__global_pointer$+0x51328>
    800032be:	74696157          	0x74696157
    800032c2:	6e69                	lui	t3,0x1a
    800032c4:	200a2067          	0x200a2067
	...
    800032d0:	5309                	li	t1,-30
    800032d2:	6174                	ld	a3,192(a0)
    800032d4:	7574                	ld	a3,232(a0)
    800032d6:	65522073          	csrs	0x655,tp
    800032da:	61762067          	0x61762067
    800032de:	756c                	ld	a1,232(a0)
    800032e0:	2065                	0x2065
    800032e2:	7369                	lui	t1,0xffffa
    800032e4:	3a20                	fld	fs0,112(a2)
    800032e6:	3020                	fld	fs0,96(s0)
    800032e8:	2578                	fld	fa4,200(a0)
    800032ea:	2078                	fld	fa4,192(s0)
    800032ec:	000a                	0xa
    800032ee:	0000                	unimp
    800032f0:	4909                	li	s2,2
    800032f2:	696e                	ld	s2,216(sp)
    800032f4:	6974                	ld	a3,208(a0)
    800032f6:	6c61                	lui	s8,0x18
    800032f8:	7a69                	lui	s4,0xffffa
    800032fa:	7461                	lui	s0,0xffff8
    800032fc:	6f69                	lui	t5,0x1a
    800032fe:	206e                	fld	ft0,216(sp)
    80003300:	6166                	ld	sp,88(sp)
    80003302:	6c69                	lui	s8,0x1a
    80003304:	6465                	lui	s0,0x19
    80003306:	000a                	0xa
    80003308:	4109                	li	sp,2
    8000330a:	6c6c                	ld	a1,216(s0)
    8000330c:	6920                	ld	s0,80(a0)
    8000330e:	65772073          	csrs	0x657,a4
    80003312:	6c6c                	ld	a1,216(s0)
    80003314:	7420                	ld	s0,104(s0)
    80003316:	6c69                	lui	s8,0x1a
    80003318:	206c                	fld	fa1,192(s0)
    8000331a:	6568                	ld	a0,200(a0)
    8000331c:	6572                	ld	a0,280(sp)
    8000331e:	0a20                	addi	s0,sp,280
	...
    80003328:	4909                	li	s2,2
    8000332a:	4332                	lw	t1,12(sp)
    8000332c:	7320                	ld	s0,96(a4)
    8000332e:	6375                	lui	t1,0x1d
    80003330:	73736563          	bltu	t1,s7,80003a5a <eeprom_data+0xc2>
    80003334:	7566                	ld	a0,120(sp)
    80003336:	6c6c                	ld	a1,216(s0)
    80003338:	2079                	0x2079
    8000333a:	6e69                	lui	t3,0x1a
    8000333c:	7469                	lui	s0,0xffffa
    8000333e:	6169                	addi	sp,sp,208
    80003340:	696c                	ld	a1,208(a0)
    80003342:	657a                	ld	a0,408(sp)
    80003344:	0a64                	addi	s1,sp,284
    80003346:	0000                	unimp
    80003348:	4909                	li	s2,2
    8000334a:	75622073          	csrs	0x756,tp
    8000334e:	75622073          	csrs	0x756,tp
    80003352:	0a3f7973          	csrrci	s2,0xa3,30
    80003356:	0000                	unimp
    80003358:	2009                	0x2009
    8000335a:	7542                	ld	a0,48(sp)
    8000335c:	75622073          	csrs	0x756,tp
    80003360:	77207973          	csrrci	s2,0x772,0
    80003364:	6961                	lui	s2,0x18
    80003366:	2074                	fld	fa3,192(s0)
    80003368:	202d                	0x202d
    8000336a:	6974                	ld	a3,208(a0)
    8000336c:	656d                	lui	a0,0x1b
    8000336e:	2064                	fld	fs1,192(s0)
    80003370:	2e74756f          	jal	a0,8004ae56 <__global_pointer$+0x42cbe>
    80003374:	5220                	lw	s0,96(a2)
    80003376:	7365                	lui	t1,0xffff9
    80003378:	7465                	lui	s0,0xffff9
    8000337a:	6974                	ld	a3,208(a0)
    8000337c:	676e                	ld	a4,216(sp)
    8000337e:	000a                	0xa
    80003380:	5709                	li	a4,-30
    80003382:	6961                	lui	s2,0x18
    80003384:	2074                	fld	fa3,192(s0)
    80003386:	6f66                	ld	t5,88(sp)
    80003388:	2072                	fld	ft0,280(sp)
    8000338a:	6970                	ld	a2,208(a0)
    8000338c:	206e                	fld	ft0,216(sp)
    8000338e:	6974                	ld	a3,208(a0)
    80003390:	656d                	lui	a0,0x1b
    80003392:	2064                	fld	fs1,192(s0)
    80003394:	0a74756f          	jal	a0,8004ac3a <__global_pointer$+0x42aa2>
	...
    800033a0:	5309                	li	t1,-30
    800033a2:	6174                	ld	a3,192(a0)
    800033a4:	7472                	ld	s0,312(sp)
    800033a6:	6e69                	lui	t3,0x1a
    800033a8:	72572067          	0x72572067
    800033ac:	7469                	lui	s0,0xffffa
    800033ae:	2065                	0x2065
    800033b0:	7254                	ld	a3,160(a2)
    800033b2:	6e61                	lui	t3,0x18
    800033b4:	74636173          	csrrsi	sp,0x746,6
    800033b8:	6f69                	lui	t5,0x1a
    800033ba:	206e                	fld	ft0,216(sp)
    800033bc:	2d2d                	addiw	s10,s10,11
    800033be:	4420                	lw	s0,72(s0)
    800033c0:	6469                	lui	s0,0x1a
    800033c2:	7920                	ld	s0,112(a0)
    800033c4:	6320756f          	jal	a0,8000a9f6 <__global_pointer$+0x285e>
    800033c8:	6572                	ld	a0,280(sp)
    800033ca:	7461                	lui	s0,0xffff8
    800033cc:	2065                	0x2065
    800033ce:	7274                	ld	a3,224(a2)
    800033d0:	3169                	addiw	sp,sp,-6
    800033d2:	6e20                	ld	s0,88(a2)
    800033d4:	7465                	lui	s0,0xffff9
    800033d6:	6f662073          	csrs	0x6f6,a2
    800033da:	2072                	fld	ft0,280(sp)
    800033dc:	20414453          	0x20414453
    800033e0:	6e61                	lui	t3,0x18
    800033e2:	2064                	fld	fs1,192(s0)
    800033e4:	204c4353          	0x204c4353
    800033e8:	6e69                	lui	t3,0x1a
    800033ea:	7620                	ld	s0,104(a2)
    800033ec:	7265                	lui	tp,0xffff9
    800033ee:	6c69                	lui	s8,0x1a
    800033f0:	0a3f676f          	jal	a4,800f9c92 <__global_pointer$+0xf1afa>
    800033f4:	0000                	unimp
    800033f6:	0000                	unimp
    800033f8:	5409                	li	s0,-30
    800033fa:	6d69                	lui	s10,0x1a
    800033fc:	6f65                	lui	t5,0x19
    800033fe:	7475                	lui	s0,0xffffd
    80003400:	6820                	ld	s0,80(s0)
    80003402:	7061                	0x7061
    80003404:	6570                	ld	a2,200(a0)
    80003406:	656e                	ld	a0,216(sp)
    80003408:	2064                	fld	fs1,192(s0)
    8000340a:	202d                	0x202d
    8000340c:	74697257          	0x74697257
    80003410:	2065                	0x2065
    80003412:	6964                	ld	s1,208(a0)
    80003414:	2064                	fld	fs1,192(s0)
    80003416:	6f6e                	ld	t5,216(sp)
    80003418:	2074                	fld	fa3,192(s0)
    8000341a:	74206f67          	0x74206f67
    8000341e:	7268                	ld	a0,224(a2)
    80003420:	6867756f          	jal	a0,8007aaa6 <__global_pointer$+0x7290e>
    80003424:	7420                	ld	s0,104(s0)
    80003426:	6568                	ld	a0,200(a0)
    80003428:	4220                	lw	s0,64(a2)
    8000342a:	4d46                	lw	s10,80(sp)
    8000342c:	2d20                	fld	fs0,88(a0)
    8000342e:	202d                	0x202d
    80003430:	6944                	ld	s1,144(a0)
    80003432:	6761                	lui	a4,0x18
    80003434:	6f6e                	ld	t5,216(sp)
    80003436:	000a6573          	csrrsi	a0,0x0,20
    8000343a:	0000                	unimp
    8000343c:	0000                	unimp
    8000343e:	0000                	unimp
    80003440:	5309                	li	t1,-30
    80003442:	20656d6f          	jal	s10,80059648 <__global_pointer$+0x514b0>
    80003446:	74617473          	csrrci	s0,0x746,2
    8000344a:	7375                	lui	t1,0xffffd
    8000344c:	6320                	ld	s0,64(a4)
    8000344e:	6568                	ld	a0,200(a0)
    80003450:	66206b63          	bltu	zero,sp,80003ac6 <eeprom_data+0x12e>
    80003454:	6961                	lui	s2,0x18
    80003456:	696c                	ld	a1,208(a0)
    80003458:	676e                	ld	a4,216(sp)
    8000345a:	000a                	0xa
    8000345c:	0000                	unimp
    8000345e:	0000                	unimp
    80003460:	4c09                	li	s8,2
    80003462:	7361                	lui	t1,0xffff8
    80003464:	2074                	fld	fa3,192(s0)
    80003466:	7962                	ld	s2,56(sp)
    80003468:	6574                	ld	a3,200(a0)
    8000346a:	7320                	ld	s0,96(a4)
    8000346c:	6e65                	lui	t3,0x19
    8000346e:	2074                	fld	fa3,192(s0)
    80003470:	203a                	fld	ft0,392(sp)
    80003472:	7349                	lui	t1,0xffff2
    80003474:	20657573          	csrrci	a0,0x206,10
    80003478:	2061                	0x2061
    8000347a:	706f7473          	csrrci	s0,0x706,30
    8000347e:	000a                	0xa
    80003480:	5309                	li	t1,-30
    80003482:	6e65                	lui	t3,0x19
    80003484:	6964                	ld	s1,208(a0)
    80003486:	676e                	ld	a4,216(sp)
    80003488:	5220                	lw	s0,96(a2)
    8000348a:	7065                	0x7065
    8000348c:	5320                	lw	s0,96(a4)
    8000348e:	6174                	ld	a3,192(a0)
    80003490:	7472                	ld	s0,312(sp)
    80003492:	6120                	ld	s0,64(a0)
    80003494:	646e                	ld	s0,216(sp)
    80003496:	6420                	ld	s0,72(s0)
    80003498:	676e696f          	jal	s2,800e9b0e <__global_pointer$+0xe1976>
    8000349c:	7320                	ld	s0,96(a4)
    8000349e:	20656d6f          	jal	s10,800596a4 <__global_pointer$+0x5150c>
    800034a2:	6568746f          	jal	s0,8008aaf8 <__global_pointer$+0x82960>
    800034a6:	2072                	fld	ft0,280(sp)
    800034a8:	2f52                	fld	ft10,272(sp)
    800034aa:	72742057          	0x72742057
    800034ae:	6e61                	lui	t3,0x18
    800034b0:	74636173          	csrrsi	sp,0x746,6
    800034b4:	6f69                	lui	t5,0x1a
    800034b6:	0a6e                	slli	s4,s4,0x1b
	...
    800034c0:	4e09                	li	t3,2
    800034c2:	6361206f          	j	80015af8 <__global_pointer$+0xd960>
    800034c6:	00000a6b          	0xa6b
    800034ca:	0000                	unimp
    800034cc:	0000                	unimp
    800034ce:	0000                	unimp
    800034d0:	200a                	fld	ft0,128(sp)
    800034d2:	6552                	ld	a0,272(sp)
    800034d4:	6461                	lui	s0,0x18
    800034d6:	5620                	lw	s0,104(a2)
    800034d8:	6c61                	lui	s8,0x18
    800034da:	6575                	lui	a0,0x1d
    800034dc:	203a                	fld	ft0,392(sp)
    800034de:	7825                	lui	a6,0xfffe9
	...
    800034e8:	2009                	0x2009
    800034ea:	7254                	ld	a3,160(a2)
    800034ec:	7061                	0x7061
    800034ee:	5420                	lw	s0,104(s0)
    800034f0:	6b61                	lui	s6,0x18
    800034f2:	6e65                	lui	t3,0x19
    800034f4:	203a                	fld	ft0,392(sp)
    800034f6:	73756163          	bltu	a0,s7,80003c18 <eeprom_data+0x280>
    800034fa:	3a65                	addiw	s4,s4,-7
    800034fc:	2520                	fld	fs0,72(a0)
    800034fe:	3830                	fld	fa2,112(s0)
    80003500:	2078                	fld	fa4,192(s0)
    80003502:	7065                	0x7065
    80003504:	25203a63          	0x25203a63
    80003508:	3830                	fld	fa2,112(s0)
    8000350a:	2078                	fld	fa4,192(s0)
    8000350c:	000a                	0xa
    8000350e:	0000                	unimp
    80003510:	4909                	li	s2,2
    80003512:	4332                	lw	t1,12(sp)
    80003514:	203a                	fld	ft0,392(sp)
    80003516:	72617453          	0x72617453
    8000351a:	6974                	ld	a3,208(a0)
    8000351c:	676e                	ld	a4,216(sp)
    8000351e:	5420                	lw	s0,104(s0)
    80003520:	6172                	ld	sp,280(sp)
    80003522:	736e                	ld	t1,248(sp)
    80003524:	6361                	lui	t1,0x18
    80003526:	6974                	ld	a3,208(a0)
    80003528:	000a6e6f          	jal	t3,800a9528 <__global_pointer$+0xa1390>
    8000352c:	0000                	unimp
    8000352e:	0000                	unimp
    80003530:	2009                	0x2009
    80003532:	72617453          	0x72617453
    80003536:	2074                	fld	fa3,192(s0)
    80003538:	5720666f          	jal	a2,80009aaa <__global_pointer$+0x1912>
    8000353c:	6972                	ld	s2,280(sp)
    8000353e:	6574                	ld	a3,200(a0)
    80003540:	5320                	lw	s0,96(a4)
    80003542:	7165                	addi	sp,sp,-400
    80003544:	6575                	lui	a0,0x1d
    80003546:	636e                	ld	t1,216(sp)
    80003548:	2065                	0x2065
    8000354a:	6e69                	lui	t3,0x1a
    8000354c:	6f74                	ld	a3,216(a4)
    8000354e:	4520                	lw	s0,72(a0)
    80003550:	5045                	0x5045
    80003552:	4f52                	lw	t5,20(sp)
    80003554:	204d                	0x204d
    80003556:	2d2d                	addiw	s10,s10,11
    80003558:	4f20                	lw	s0,88(a4)
    8000355a:	6a62                	ld	s4,24(sp)
    8000355c:	6365                	lui	t1,0x19
    8000355e:	6974                	ld	a3,208(a0)
    80003560:	6576                	ld	a0,344(sp)
    80003562:	203a                	fld	ft0,392(sp)
    80003564:	6f4c                	ld	a1,152(a4)
    80003566:	6461                	lui	s0,0x18
    80003568:	7420                	ld	s0,104(s0)
    8000356a:	6568                	ld	a0,200(a0)
    8000356c:	4520                	lw	s0,72(a0)
    8000356e:	5045                	0x5045
    80003570:	4f52                	lw	t5,20(sp)
    80003572:	204d                	0x204d
    80003574:	68746977          	0x68746977
    80003578:	3120                	fld	fs0,96(a0)
    8000357a:	4b36                	lw	s6,76(sp)
    8000357c:	2042                	fld	ft0,16(sp)
    8000357e:	4420666f          	jal	a2,800099c0 <__global_pointer$+0x1828>
    80003582:	7461                	lui	s0,0xffff8
    80003584:	0a61                	addi	s4,s4,24
    80003586:	0000                	unimp
    80003588:	5309                	li	t1,-30
    8000358a:	74656d6f          	jal	s10,80059cd0 <__global_pointer$+0x51b38>
    8000358e:	6968                	ld	a0,208(a0)
    80003590:	676e                	ld	a4,216(sp)
    80003592:	5720                	lw	s0,104(a4)
    80003594:	6f72                	ld	t5,280(sp)
    80003596:	676e                	ld	a4,216(sp)
    80003598:	4920                	lw	s0,80(a0)
    8000359a:	206e                	fld	ft0,216(sp)
    8000359c:	6e49                	lui	t3,0x12
    8000359e:	7469                	lui	s0,0xffffa
    800035a0:	6169                	addi	sp,sp,208
    800035a2:	696c                	ld	a1,208(a0)
    800035a4:	617a                	ld	sp,408(sp)
    800035a6:	6974                	ld	a3,208(a0)
    800035a8:	000a6e6f          	jal	t3,800a95a8 <__global_pointer$+0xa1410>
    800035ac:	0000                	unimp
    800035ae:	0000                	unimp
    800035b0:	4909                	li	s2,2
    800035b2:	746e                	ld	s0,248(sp)
    800035b4:	6c69                	lui	s8,0x1a
    800035b6:	7a69                	lui	s4,0xffffa
    800035b8:	7461                	lui	s0,0xffff8
    800035ba:	6f69                	lui	t5,0x1a
    800035bc:	206e                	fld	ft0,216(sp)
    800035be:	6148                	ld	a0,128(a0)
    800035c0:	7070                	ld	a2,224(s0)
    800035c2:	6e65                	lui	t3,0x19
    800035c4:	6465                	lui	s0,0x19
    800035c6:	4620                	lw	s0,72(a2)
    800035c8:	6e69                	lui	t3,0x1a
    800035ca:	0a65                	addi	s4,s4,25
    800035cc:	0000                	unimp
    800035ce:	0000                	unimp
    800035d0:	4509                	li	a0,2
    800035d2:	7272                	ld	tp,312(sp)
    800035d4:	6920726f          	jal	tp,8000ac66 <__global_pointer$+0x2ace>
    800035d8:	206e                	fld	ft0,216(sp)
    800035da:	74696157          	0x74696157
    800035de:	6e69                	lui	t3,0x1a
    800035e0:	6f662067          	0x6f662067
    800035e4:	2072                	fld	ft0,280(sp)
    800035e6:	4242                	lw	tp,16(sp)
    800035e8:	000a                	0xa
    800035ea:	0000                	unimp
    800035ec:	0000                	unimp
    800035ee:	0000                	unimp
    800035f0:	2009                	0x2009
    800035f2:	6156                	ld	sp,336(sp)
    800035f4:	756c                	ld	a1,232(a0)
    800035f6:	2065                	0x2065
    800035f8:	6562                	ld	a0,24(sp)
    800035fa:	6e69                	lui	t3,0x1a
    800035fc:	6f632067          	0x6f632067
    80003600:	6970                	ld	a2,208(a0)
    80003602:	6465                	lui	s0,0x19
    80003604:	6920                	ld	s0,80(a0)
    80003606:	203a2073          	csrs	0x203,s4
    8000360a:	3025                	0x3025
    8000360c:	0a78                	addi	a4,sp,284
    8000360e:	0000                	unimp
    80003610:	5309                	li	t1,-30
    80003612:	7465                	lui	s0,0xffff9
    80003614:	6974                	ld	a3,208(a0)
    80003616:	676e                	ld	a4,216(sp)
    80003618:	5320                	lw	s0,96(a4)
    8000361a:	616c                	ld	a1,192(a0)
    8000361c:	6576                	ld	a0,344(sp)
    8000361e:	4120                	lw	s0,64(a0)
    80003620:	6464                	ld	s1,200(s0)
    80003622:	6572                	ld	a0,280(sp)
    80003624:	3a207373          	csrrci	t1,pmpcfg2,0
    80003628:	2520                	fld	fs0,72(a0)
    8000362a:	0a64                	addi	s1,sp,284
    8000362c:	0000                	unimp
    8000362e:	0000                	unimp
    80003630:	5309                	li	t1,-30
    80003632:	616c                	ld	a1,192(a0)
    80003634:	6576                	ld	a0,344(sp)
    80003636:	4120                	lw	s0,64(a0)
    80003638:	6464                	ld	s1,200(s0)
    8000363a:	6572                	ld	a0,280(sp)
    8000363c:	73207373          	csrrci	t1,0x732,0
    80003640:	7465                	lui	s0,0xffff9
    80003642:	000a                	0xa
    80003644:	0000                	unimp
    80003646:	0000                	unimp
    80003648:	5309                	li	t1,-30
    8000364a:	7465                	lui	s0,0xffff9
    8000364c:	7320                	ld	s0,96(a4)
    8000364e:	616c                	ld	a1,192(a0)
    80003650:	6576                	ld	a0,344(sp)
    80003652:	6120                	ld	s0,64(a0)
    80003654:	6464                	ld	s1,200(s0)
    80003656:	6572                	ld	a0,280(sp)
    80003658:	72207373          	csrrci	t1,0x722,0
    8000365c:	6165                	addi	sp,sp,112
    8000365e:	2064                	fld	fs1,192(s0)
    80003660:	6761                	lui	a4,0x18
    80003662:	6961                	lui	s2,0x18
    80003664:	2c6e                	fld	fs8,216(sp)
    80003666:	7720                	ld	s0,104(a4)
    80003668:	6968                	ld	a0,208(a0)
    8000366a:	69206863          	bltu	zero,s2,80003cfa <eeprom_data+0x362>
    8000366e:	78302073          	csrr	zero,0x783
    80003672:	7825                	lui	a6,0xfffe9
    80003674:	000a                	0xa
    80003676:	0000                	unimp
    80003678:	5309                	li	t1,-30
    8000367a:	77656d6f          	jal	s10,80059df0 <__global_pointer$+0x51c58>
    8000367e:	6568                	ld	a0,200(a0)
    80003680:	6572                	ld	a0,280(sp)
    80003682:	7320                	ld	s0,96(a4)
    80003684:	74656d6f          	jal	s10,80059dca <__global_pointer$+0x51c32>
    80003688:	6968                	ld	a0,208(a0)
    8000368a:	676e                	ld	a4,216(sp)
    8000368c:	6920                	ld	s0,80(a0)
    8000368e:	72772073          	csrs	0x727,a4
    80003692:	20676e6f          	jal	t3,80079898 <__global_pointer$+0x71700>
    80003696:	68746977          	0x68746977
    8000369a:	7420                	ld	s0,104(s0)
    8000369c:	6568                	ld	a0,200(a0)
    8000369e:	6320                	ld	s0,64(a4)
    800036a0:	72746e6f          	jal	t3,8004a5c6 <__global_pointer$+0x4242e>
    800036a4:	656c6c6f          	jal	s8,800c9cfa <__global_pointer$+0xc1b62>
    800036a8:	2072                	fld	ft0,280(sp)
    800036aa:	202d                	0x202d
    800036ac:	7469                	lui	s0,0xffffa
    800036ae:	6920                	ld	s0,80(a0)
    800036b0:	69672073          	csrs	0x696,a4
    800036b4:	6976                	ld	s2,344(sp)
    800036b6:	676e                	ld	a4,216(sp)
    800036b8:	6f20                	ld	s0,88(a4)
    800036ba:	7475                	lui	s0,0xffffd
    800036bc:	7320                	ld	s0,96(a4)
    800036be:	20656d6f          	jal	s10,800598c4 <__global_pointer$+0x5172c>
    800036c2:	6172                	ld	sp,280(sp)
    800036c4:	646e                	ld	s0,216(sp)
    800036c6:	61206d6f          	jal	s10,80009cd8 <__global_pointer$+0x1b40>
    800036ca:	6464                	ld	s1,200(s0)
    800036cc:	6572                	ld	a0,280(sp)
    800036ce:	2d207373          	csrrci	t1,0x2d2,0
    800036d2:	202d                	0x202d
    800036d4:	6944                	ld	s1,144(a0)
    800036d6:	6761                	lui	a4,0x18
    800036d8:	6f6e                	ld	t5,216(sp)
    800036da:	000a6573          	csrrsi	a0,0x0,20
    800036de:	0000                	unimp
    800036e0:	5309                	li	t1,-30
    800036e2:	74656d6f          	jal	s10,80059e28 <__global_pointer$+0x51c90>
    800036e6:	6968                	ld	a0,208(a0)
    800036e8:	676e                	ld	a4,216(sp)
    800036ea:	7720                	ld	s0,104(a4)
    800036ec:	6f72                	ld	t5,280(sp)
    800036ee:	676e                	ld	a4,216(sp)
    800036f0:	6920                	ld	s0,80(a0)
    800036f2:	206e                	fld	ft0,216(sp)
    800036f4:	646e6573          	csrrsi	a0,0x646,28
    800036f8:	6e69                	lui	t3,0x1a
    800036fa:	79622067          	0x79622067
    800036fe:	6574                	ld	a3,200(a0)
    80003700:	6f742073          	csrs	0x6f7,s0
    80003704:	7720                	ld	s0,104(a4)
    80003706:	6972                	ld	s2,280(sp)
    80003708:	6574                	ld	a3,200(a0)
    8000370a:	2d20                	fld	fs0,88(a0)
    8000370c:	202d                	0x202d
    8000370e:	6944                	ld	s1,144(a0)
    80003710:	6761                	lui	a4,0x18
    80003712:	6f6e                	ld	t5,216(sp)
    80003714:	000a6573          	csrrsi	a0,0x0,20
    80003718:	7709                	lui	a4,0xfffe2
    8000371a:	6961                	lui	s2,0x18
    8000371c:	6974                	ld	a3,208(a0)
    8000371e:	676e                	ld	a4,216(sp)
    80003720:	6620                	ld	s0,72(a2)
    80003722:	6220726f          	jal	tp,8000ad44 <__global_pointer$+0x2bac>
    80003726:	2d62                	fld	fs10,24(sp)
    80003728:	0a32                	slli	s4,s4,0xc
    8000372a:	0000                	unimp
    8000372c:	0000                	unimp
    8000372e:	0000                	unimp
    80003730:	5309                	li	t1,-30
    80003732:	616c                	ld	a1,192(a0)
    80003734:	6576                	ld	a0,344(sp)
    80003736:	4120                	lw	s0,64(a0)
    80003738:	6464                	ld	s1,200(s0)
    8000373a:	2072                	fld	ft0,280(sp)
    8000373c:	2032                	fld	ft0,264(sp)
    8000373e:	20746573          	csrrsi	a0,0x207,8
    80003742:	202d                	0x202d
    80003744:	6854                	ld	a3,144(s0)
    80003746:	7369                	lui	t1,0xffffa
    80003748:	6920                	ld	s0,80(a0)
    8000374a:	6f742073          	csrs	0x6f7,s0
    8000374e:	6920                	ld	s0,80(a0)
    80003750:	636e                	ld	t1,216(sp)
    80003752:	6572                	ld	a0,280(sp)
    80003754:	656d                	lui	a0,0x1b
    80003756:	746e                	ld	s0,248(sp)
    80003758:	7420                	ld	s0,104(s0)
    8000375a:	6568                	ld	a0,200(a0)
    8000375c:	6d20                	ld	s0,88(a0)
    8000375e:	6d65                	lui	s10,0x19
    80003760:	2079726f          	jal	tp,8009b166 <__global_pointer$+0x92fce>
    80003764:	6e756f63          	bltu	a0,t2,80003e62 <eeprom_data+0x4ca>
    80003768:	6574                	ld	a3,200(a0)
    8000376a:	2072                	fld	ft0,280(sp)
    8000376c:	6e69                	lui	t3,0x1a
    8000376e:	7420                	ld	s0,104(s0)
    80003770:	6568                	ld	a0,200(a0)
    80003772:	4520                	lw	s0,72(a0)
    80003774:	5045                	0x5045
    80003776:	4f52                	lw	t5,20(sp)
    80003778:	0a4d                	addi	s4,s4,19
    8000377a:	0000                	unimp
    8000377c:	0000                	unimp
    8000377e:	0000                	unimp
    80003780:	7709                	lui	a4,0xfffe2
    80003782:	6961                	lui	s2,0x18
    80003784:	6974                	ld	a3,208(a0)
    80003786:	676e                	ld	a4,216(sp)
    80003788:	6620                	ld	s0,72(a2)
    8000378a:	7020726f          	jal	tp,8000ae8c <__global_pointer$+0x2cf4>
    8000378e:	6e69                	lui	t3,0x1a
    80003790:	000a                	0xa
    80003792:	0000                	unimp
    80003794:	0000                	unimp
    80003796:	0000                	unimp
    80003798:	7709                	lui	a4,0xfffe2
    8000379a:	6961                	lui	s2,0x18
    8000379c:	6974                	ld	a3,208(a0)
    8000379e:	676e                	ld	a4,216(sp)
    800037a0:	6620                	ld	s0,72(a2)
    800037a2:	7020726f          	jal	tp,8000aea4 <__global_pointer$+0x2d0c>
    800037a6:	6e69                	lui	t3,0x1a
    800037a8:	322d                	addiw	tp,tp,-21
    800037aa:	000a                	0xa
    800037ac:	0000                	unimp
    800037ae:	0000                	unimp
    800037b0:	7709                	lui	a4,0xfffe2
    800037b2:	6961                	lui	s2,0x18
    800037b4:	6974                	ld	a3,208(a0)
    800037b6:	676e                	ld	a4,216(sp)
    800037b8:	6620                	ld	s0,72(a2)
    800037ba:	7020726f          	jal	tp,8000aebc <__global_pointer$+0x2d24>
    800037be:	6e69                	lui	t3,0x1a
    800037c0:	332d                	addiw	t1,t1,-21
    800037c2:	000a                	0xa
    800037c4:	0000                	unimp
    800037c6:	0000                	unimp
    800037c8:	5309                	li	t1,-30
    800037ca:	74656d6f          	jal	s10,80059f10 <__global_pointer$+0x51d78>
    800037ce:	6968                	ld	a0,208(a0)
    800037d0:	676e                	ld	a4,216(sp)
    800037d2:	7720                	ld	s0,104(a4)
    800037d4:	6f72                	ld	t5,280(sp)
    800037d6:	676e                	ld	a4,216(sp)
    800037d8:	6920                	ld	s0,80(a0)
    800037da:	206e                	fld	ft0,216(sp)
    800037dc:	6572                	ld	a0,280(sp)
    800037de:	6461                	lui	s0,0x18
    800037e0:	6e69                	lui	t3,0x1a
    800037e2:	79622067          	0x79622067
    800037e6:	6574                	ld	a3,200(a0)
    800037e8:	2d200a73          	0x2d200a73
    800037ec:	202d                	0x202d
    800037ee:	6944                	ld	s1,144(a0)
    800037f0:	6761                	lui	a4,0x18
    800037f2:	6f6e                	ld	t5,216(sp)
    800037f4:	00006573          	csrrsi	a0,0x0,0
    800037f8:	636d                	lui	t1,0x1b
    800037fa:	6379                	lui	t1,0x1e
    800037fc:	656c                	ld	a1,200(a0)
    800037fe:	0000                	unimp
    80003800:	696d                	lui	s2,0x1b
    80003802:	736e                	ld	t1,248(sp)
    80003804:	7274                	ld	a3,224(a2)
    80003806:	7465                	lui	s0,0xffff9
	...
    80003810:	6d49                	lui	s10,0x12
    80003812:	6c70                	ld	a2,216(s0)
    80003814:	6d65                	lui	s10,0x19
    80003816:	6e65                	lui	t3,0x19
    80003818:	2074                	fld	fa3,192(s0)
    8000381a:	616d                	addi	sp,sp,240
    8000381c:	6e69                	lui	t3,0x1a
    8000381e:	2928                	fld	fa0,80(a0)
    80003820:	202c                	fld	fa1,64(s0)
    80003822:	6f66                	ld	t5,88(sp)
    80003824:	000a216f          	jal	sp,800a5824 <__global_pointer$+0x9d68c>
    80003828:	7325                	lui	t1,0xfffe9
    8000382a:	3d20                	fld	fs0,120(a0)
    8000382c:	2520                	fld	fs0,72(a0)
    8000382e:	0a64                	addi	s1,sp,284
	...
    80003838:	6e28                	ld	a0,88(a2)
    8000383a:	6c75                	lui	s8,0x1d
    8000383c:	296c                	fld	fa1,208(a0)
    8000383e:	0000                	unimp
    80003840:	f21c                	sd	a5,32(a2)
    80003842:	ffff                	0xffff
    80003844:	f47c                	sd	a5,232(s0)
    80003846:	ffff                	0xffff
    80003848:	f468                	sd	a0,232(s0)
    8000384a:	ffff                	0xffff
    8000384c:	f47c                	sd	a5,232(s0)
    8000384e:	ffff                	0xffff
    80003850:	f47c                	sd	a5,232(s0)
    80003852:	ffff                	0xffff
    80003854:	f47c                	sd	a5,232(s0)
    80003856:	ffff                	0xffff
    80003858:	f47c                	sd	a5,232(s0)
    8000385a:	ffff                	0xffff
    8000385c:	f1f0                	sd	a2,224(a1)
    8000385e:	ffff                	0xffff
    80003860:	f47c                	sd	a5,232(s0)
    80003862:	ffff                	0xffff
    80003864:	f47c                	sd	a5,232(s0)
    80003866:	ffff                	0xffff
    80003868:	f178                	sd	a4,224(a0)
    8000386a:	ffff                	0xffff
    8000386c:	f208                	sd	a0,32(a2)
    8000386e:	ffff                	0xffff
    80003870:	f47c                	sd	a5,232(s0)
    80003872:	ffff                	0xffff
    80003874:	f184                	sd	s1,32(a1)
    80003876:	ffff                	0xffff
    80003878:	f190                	sd	a2,32(a1)
    8000387a:	ffff                	0xffff
    8000387c:	f190                	sd	a2,32(a1)
    8000387e:	ffff                	0xffff
    80003880:	f190                	sd	a2,32(a1)
    80003882:	ffff                	0xffff
    80003884:	f190                	sd	a2,32(a1)
    80003886:	ffff                	0xffff
    80003888:	f190                	sd	a2,32(a1)
    8000388a:	ffff                	0xffff
    8000388c:	f190                	sd	a2,32(a1)
    8000388e:	ffff                	0xffff
    80003890:	f190                	sd	a2,32(a1)
    80003892:	ffff                	0xffff
    80003894:	f190                	sd	a2,32(a1)
    80003896:	ffff                	0xffff
    80003898:	f190                	sd	a2,32(a1)
    8000389a:	ffff                	0xffff
    8000389c:	f47c                	sd	a5,232(s0)
    8000389e:	ffff                	0xffff
    800038a0:	f47c                	sd	a5,232(s0)
    800038a2:	ffff                	0xffff
    800038a4:	f47c                	sd	a5,232(s0)
    800038a6:	ffff                	0xffff
    800038a8:	f47c                	sd	a5,232(s0)
    800038aa:	ffff                	0xffff
    800038ac:	f47c                	sd	a5,232(s0)
    800038ae:	ffff                	0xffff
    800038b0:	f47c                	sd	a5,232(s0)
    800038b2:	ffff                	0xffff
    800038b4:	f47c                	sd	a5,232(s0)
    800038b6:	ffff                	0xffff
    800038b8:	f47c                	sd	a5,232(s0)
    800038ba:	ffff                	0xffff
    800038bc:	f47c                	sd	a5,232(s0)
    800038be:	ffff                	0xffff
    800038c0:	f47c                	sd	a5,232(s0)
    800038c2:	ffff                	0xffff
    800038c4:	f47c                	sd	a5,232(s0)
    800038c6:	ffff                	0xffff
    800038c8:	f47c                	sd	a5,232(s0)
    800038ca:	ffff                	0xffff
    800038cc:	f47c                	sd	a5,232(s0)
    800038ce:	ffff                	0xffff
    800038d0:	f47c                	sd	a5,232(s0)
    800038d2:	ffff                	0xffff
    800038d4:	f47c                	sd	a5,232(s0)
    800038d6:	ffff                	0xffff
    800038d8:	f47c                	sd	a5,232(s0)
    800038da:	ffff                	0xffff
    800038dc:	f47c                	sd	a5,232(s0)
    800038de:	ffff                	0xffff
    800038e0:	f47c                	sd	a5,232(s0)
    800038e2:	ffff                	0xffff
    800038e4:	f47c                	sd	a5,232(s0)
    800038e6:	ffff                	0xffff
    800038e8:	f47c                	sd	a5,232(s0)
    800038ea:	ffff                	0xffff
    800038ec:	f47c                	sd	a5,232(s0)
    800038ee:	ffff                	0xffff
    800038f0:	f47c                	sd	a5,232(s0)
    800038f2:	ffff                	0xffff
    800038f4:	f47c                	sd	a5,232(s0)
    800038f6:	ffff                	0xffff
    800038f8:	f47c                	sd	a5,232(s0)
    800038fa:	ffff                	0xffff
    800038fc:	f47c                	sd	a5,232(s0)
    800038fe:	ffff                	0xffff
    80003900:	f47c                	sd	a5,232(s0)
    80003902:	ffff                	0xffff
    80003904:	f47c                	sd	a5,232(s0)
    80003906:	ffff                	0xffff
    80003908:	f47c                	sd	a5,232(s0)
    8000390a:	ffff                	0xffff
    8000390c:	f47c                	sd	a5,232(s0)
    8000390e:	ffff                	0xffff
    80003910:	f47c                	sd	a5,232(s0)
    80003912:	ffff                	0xffff
    80003914:	f47c                	sd	a5,232(s0)
    80003916:	ffff                	0xffff
    80003918:	f47c                	sd	a5,232(s0)
    8000391a:	ffff                	0xffff
    8000391c:	f47c                	sd	a5,232(s0)
    8000391e:	ffff                	0xffff
    80003920:	f47c                	sd	a5,232(s0)
    80003922:	ffff                	0xffff
    80003924:	f47c                	sd	a5,232(s0)
    80003926:	ffff                	0xffff
    80003928:	f47c                	sd	a5,232(s0)
    8000392a:	ffff                	0xffff
    8000392c:	f47c                	sd	a5,232(s0)
    8000392e:	ffff                	0xffff
    80003930:	f47c                	sd	a5,232(s0)
    80003932:	ffff                	0xffff
    80003934:	f47c                	sd	a5,232(s0)
    80003936:	ffff                	0xffff
    80003938:	f47c                	sd	a5,232(s0)
    8000393a:	ffff                	0xffff
    8000393c:	f47c                	sd	a5,232(s0)
    8000393e:	ffff                	0xffff
    80003940:	f25c                	sd	a5,160(a2)
    80003942:	ffff                	0xffff
    80003944:	f398                	sd	a4,32(a5)
    80003946:	ffff                	0xffff
    80003948:	f47c                	sd	a5,232(s0)
    8000394a:	ffff                	0xffff
    8000394c:	f47c                	sd	a5,232(s0)
    8000394e:	ffff                	0xffff
    80003950:	f47c                	sd	a5,232(s0)
    80003952:	ffff                	0xffff
    80003954:	f47c                	sd	a5,232(s0)
    80003956:	ffff                	0xffff
    80003958:	f47c                	sd	a5,232(s0)
    8000395a:	ffff                	0xffff
    8000395c:	f47c                	sd	a5,232(s0)
    8000395e:	ffff                	0xffff
    80003960:	f47c                	sd	a5,232(s0)
    80003962:	ffff                	0xffff
    80003964:	f24c                	sd	a1,160(a2)
    80003966:	ffff                	0xffff
    80003968:	f47c                	sd	a5,232(s0)
    8000396a:	ffff                	0xffff
    8000396c:	f47c                	sd	a5,232(s0)
    8000396e:	ffff                	0xffff
    80003970:	f3f0                	sd	a2,224(a5)
    80003972:	ffff                	0xffff
    80003974:	f3fc                	sd	a5,224(a5)
    80003976:	ffff                	0xffff
    80003978:	f47c                	sd	a5,232(s0)
    8000397a:	ffff                	0xffff
    8000397c:	f47c                	sd	a5,232(s0)
    8000397e:	ffff                	0xffff
    80003980:	f280                	sd	s0,32(a3)
    80003982:	ffff                	0xffff
    80003984:	f47c                	sd	a5,232(s0)
    80003986:	ffff                	0xffff
    80003988:	f3e4                	sd	s1,224(a5)
    8000398a:	ffff                	0xffff
    8000398c:	f47c                	sd	a5,232(s0)
    8000398e:	ffff                	0xffff
    80003990:	f47c                	sd	a5,232(s0)
    80003992:	ffff                	0xffff
    80003994:	f424                	sd	s1,104(s0)
    80003996:	ffff                	0xffff

Disassembly of section .data:

0000000080003998 <eeprom_data>:
    80003998:	00000093          	li	ra,0
    8000399c:	00000113          	li	sp,0
    800039a0:	00000193          	li	gp,0
    800039a4:	00000213          	li	tp,0
    800039a8:	00000293          	li	t0,0
    800039ac:	00000313          	li	t1,0
    800039b0:	00000393          	li	t2,0
    800039b4:	00000413          	li	s0,0
    800039b8:	00000493          	li	s1,0
    800039bc:	00000513          	li	a0,0
    800039c0:	00000593          	li	a1,0
    800039c4:	00000613          	li	a2,0
    800039c8:	00000693          	li	a3,0
    800039cc:	00000713          	li	a4,0
    800039d0:	00000793          	li	a5,0
    800039d4:	00000813          	li	a6,0
    800039d8:	00000893          	li	a7,0
    800039dc:	00000913          	li	s2,0
    800039e0:	00000993          	li	s3,0
    800039e4:	00000a13          	li	s4,0
    800039e8:	00000a93          	li	s5,0
    800039ec:	00000b13          	li	s6,0
    800039f0:	00000b93          	li	s7,0
    800039f4:	00000c13          	li	s8,0
    800039f8:	00000c93          	li	s9,0
    800039fc:	00000d13          	li	s10,0
    80003a00:	00000d93          	li	s11,0
    80003a04:	00000e13          	li	t3,0
    80003a08:	00000e93          	li	t4,0
    80003a0c:	00000f13          	li	t5,0
    80003a10:	00000f93          	li	t6,0
    80003a14:	0001e2b7          	lui	t0,0x1e
    80003a18:	3002a073          	csrs	mstatus,t0
    80003a1c:	00100293          	li	t0,1
    80003a20:	01f29293          	slli	t0,t0,0x1f
    80003a24:	0002da63          	bgez	t0,80003a38 <eeprom_data+0xa0>
    80003a28:	00100513          	li	a0,1
    80003a2c:	00001297          	auipc	t0,0x1
    80003a30:	f6a2a623          	sw	a0,-148(t0) # 80004998 <eeprom_data+0x1000>
    80003a34:	ff5ff06f          	j	80003a28 <eeprom_data+0x90>
    80003a38:	00000297          	auipc	t0,0x0
    80003a3c:	09028293          	addi	t0,t0,144 # 80003ac8 <eeprom_data+0x130>
    80003a40:	30529073          	csrw	mtvec,t0
    80003a44:	00301073          	fssr	zero
    80003a48:	f0000053          	fmv.s.x	ft0,zero
    80003a4c:	f00000d3          	fmv.s.x	ft1,zero
    80003a50:	f0000153          	fmv.s.x	ft2,zero
    80003a54:	f00001d3          	fmv.s.x	ft3,zero
    80003a58:	f0000253          	fmv.s.x	ft4,zero
    80003a5c:	f00002d3          	fmv.s.x	ft5,zero
    80003a60:	f0000353          	fmv.s.x	ft6,zero
    80003a64:	f00003d3          	fmv.s.x	ft7,zero
    80003a68:	f0000453          	fmv.s.x	fs0,zero
    80003a6c:	f00004d3          	fmv.s.x	fs1,zero
    80003a70:	f0000553          	fmv.s.x	fa0,zero
    80003a74:	f00005d3          	fmv.s.x	fa1,zero
    80003a78:	f0000653          	fmv.s.x	fa2,zero
    80003a7c:	f00006d3          	fmv.s.x	fa3,zero
    80003a80:	f0000753          	fmv.s.x	fa4,zero
    80003a84:	f00007d3          	fmv.s.x	fa5,zero
    80003a88:	f0000853          	fmv.s.x	fa6,zero
    80003a8c:	f00008d3          	fmv.s.x	fa7,zero
    80003a90:	f0000953          	fmv.s.x	fs2,zero
    80003a94:	f00009d3          	fmv.s.x	fs3,zero
    80003a98:	f0000a53          	fmv.s.x	fs4,zero
    80003a9c:	f0000ad3          	fmv.s.x	fs5,zero
    80003aa0:	f0000b53          	fmv.s.x	fs6,zero
    80003aa4:	f0000bd3          	fmv.s.x	fs7,zero
    80003aa8:	f0000c53          	fmv.s.x	fs8,zero
    80003aac:	f0000cd3          	fmv.s.x	fs9,zero
    80003ab0:	f0000d53          	fmv.s.x	fs10,zero
    80003ab4:	f0000dd3          	fmv.s.x	fs11,zero
    80003ab8:	f0000e53          	fmv.s.x	ft8,zero
    80003abc:	f0000ed3          	fmv.s.x	ft9,zero
    80003ac0:	f0000f53          	fmv.s.x	ft10,zero
    80003ac4:	f0000fd3          	fmv.s.x	ft11,zero
    80003ac8:	00000297          	auipc	t0,0x0
    80003acc:	04028293          	addi	t0,t0,64 # 80003b08 <eeprom_data+0x170>
    80003ad0:	30529073          	csrw	mtvec,t0
    80003ad4:	00003197          	auipc	gp,0x3
    80003ad8:	fc418193          	addi	gp,gp,-60 # 80006a98 <eeprom_data+0x3100>
    80003adc:	86718213          	addi	tp,gp,-1945 # 800079ff <_end+0xf>
    80003ae0:	fc027213          	andi	tp,tp,-64
    80003ae4:	f1402573          	csrr	a0,mhartid
    80003ae8:	00100593          	li	a1,1
    80003aec:	00b57063          	bleu	a1,a0,80003aec <eeprom_data+0x154>
    80003af0:	01151613          	slli	a2,a0,0x11
    80003af4:	00c20233          	add	tp,tp,a2
    80003af8:	00150113          	addi	sp,a0,1 # 1b001 <_tbss_end+0x1affd>
    80003afc:	01111113          	slli	sp,sp,0x11
    80003b00:	00410133          	add	sp,sp,tp
    80003b04:	7480106f          	j	8000524c <eeprom_data+0x18b4>
    80003b08:	ef010113          	addi	sp,sp,-272
    80003b0c:	00113423          	sd	ra,8(sp)
    80003b10:	00213823          	sd	sp,16(sp)
    80003b14:	00313c23          	sd	gp,24(sp)
    80003b18:	02413023          	sd	tp,32(sp)
    80003b1c:	02513423          	sd	t0,40(sp)
    80003b20:	02613823          	sd	t1,48(sp)
    80003b24:	02713c23          	sd	t2,56(sp)
    80003b28:	04813023          	sd	s0,64(sp)
    80003b2c:	04913423          	sd	s1,72(sp)
    80003b30:	04a13823          	sd	a0,80(sp)
    80003b34:	04b13c23          	sd	a1,88(sp)
    80003b38:	06c13023          	sd	a2,96(sp)
    80003b3c:	06d13423          	sd	a3,104(sp)
    80003b40:	06e13823          	sd	a4,112(sp)
    80003b44:	06f13c23          	sd	a5,120(sp)
    80003b48:	09013023          	sd	a6,128(sp)
    80003b4c:	09113423          	sd	a7,136(sp)
    80003b50:	09213823          	sd	s2,144(sp)
    80003b54:	09313c23          	sd	s3,152(sp)
    80003b58:	0b413023          	sd	s4,160(sp)
    80003b5c:	0b513423          	sd	s5,168(sp)
    80003b60:	0b613823          	sd	s6,176(sp)
    80003b64:	0b713c23          	sd	s7,184(sp)
    80003b68:	0d813023          	sd	s8,192(sp)
    80003b6c:	0d913423          	sd	s9,200(sp)
    80003b70:	0da13823          	sd	s10,208(sp)
    80003b74:	0db13c23          	sd	s11,216(sp)
    80003b78:	0fc13023          	sd	t3,224(sp)
    80003b7c:	0fd13423          	sd	t4,232(sp)
    80003b80:	0fe13823          	sd	t5,240(sp)
    80003b84:	0ff13c23          	sd	t6,248(sp)
    80003b88:	34202573          	csrr	a0,mcause
    80003b8c:	341025f3          	csrr	a1,mepc
    80003b90:	00010613          	mv	a2,sp
    80003b94:	4e8010ef          	jal	ra,8000507c <eeprom_data+0x16e4>
    80003b98:	34151073          	csrw	mepc,a0
    80003b9c:	000022b7          	lui	t0,0x2
    80003ba0:	8002829b          	addiw	t0,t0,-2048
    80003ba4:	3002a073          	csrs	mstatus,t0
    80003ba8:	00813083          	ld	ra,8(sp)
    80003bac:	01013103          	ld	sp,16(sp)
    80003bb0:	01813183          	ld	gp,24(sp)
    80003bb4:	02013203          	ld	tp,32(sp)
    80003bb8:	02813283          	ld	t0,40(sp)
    80003bbc:	03013303          	ld	t1,48(sp)
    80003bc0:	03813383          	ld	t2,56(sp)
    80003bc4:	04013403          	ld	s0,64(sp)
    80003bc8:	04813483          	ld	s1,72(sp)
    80003bcc:	05013503          	ld	a0,80(sp)
    80003bd0:	05813583          	ld	a1,88(sp)
    80003bd4:	06013603          	ld	a2,96(sp)
    80003bd8:	06813683          	ld	a3,104(sp)
    80003bdc:	07013703          	ld	a4,112(sp)
    80003be0:	07813783          	ld	a5,120(sp)
    80003be4:	08013803          	ld	a6,128(sp)
    80003be8:	08813883          	ld	a7,136(sp)
    80003bec:	09013903          	ld	s2,144(sp)
    80003bf0:	09813983          	ld	s3,152(sp)
    80003bf4:	0a013a03          	ld	s4,160(sp)
    80003bf8:	0a813a83          	ld	s5,168(sp)
    80003bfc:	0b013b03          	ld	s6,176(sp)
    80003c00:	0b813b83          	ld	s7,184(sp)
    80003c04:	0c013c03          	ld	s8,192(sp)
    80003c08:	0c813c83          	ld	s9,200(sp)
    80003c0c:	0d013d03          	ld	s10,208(sp)
    80003c10:	0d813d83          	ld	s11,216(sp)
    80003c14:	0e013e03          	ld	t3,224(sp)
    80003c18:	0e813e83          	ld	t4,232(sp)
    80003c1c:	0f013f03          	ld	t5,240(sp)
    80003c20:	0f813f83          	ld	t6,248(sp)
    80003c24:	11010113          	addi	sp,sp,272
    80003c28:	30200073          	mret
	...
    800049e0:	ff010113          	addi	sp,sp,-16
    800049e4:	00113423          	sd	ra,8(sp)
    800049e8:	00813023          	sd	s0,0(sp)
    800049ec:	01010413          	addi	s0,sp,16
    800049f0:	7bc000ef          	jal	ra,800051ac <eeprom_data+0x1814>
    800049f4:	00001517          	auipc	a0,0x1
    800049f8:	6c450513          	addi	a0,a0,1732 # 800060b8 <eeprom_data+0x2720>
    800049fc:	090010ef          	jal	ra,80005a8c <eeprom_data+0x20f4>
    80004a00:	00000793          	li	a5,0
    80004a04:	00078513          	mv	a0,a5
    80004a08:	00813083          	ld	ra,8(sp)
    80004a0c:	00013403          	ld	s0,0(sp)
    80004a10:	01010113          	addi	sp,sp,16
    80004a14:	00008067          	ret
    80004a18:	fd010113          	addi	sp,sp,-48
    80004a1c:	02813423          	sd	s0,40(sp)
    80004a20:	03010413          	addi	s0,sp,48
    80004a24:	fea43423          	sd	a0,-24(s0) # ffffffffffff8fe8 <__global_pointer$+0xffffffff7fff0e50>
    80004a28:	00058793          	mv	a5,a1
    80004a2c:	fcc43c23          	sd	a2,-40(s0)
    80004a30:	fef42223          	sw	a5,-28(s0)
    80004a34:	00000013          	nop
    80004a38:	02813403          	ld	s0,40(sp)
    80004a3c:	03010113          	addi	sp,sp,48
    80004a40:	00008067          	ret
    80004a44:	fd010113          	addi	sp,sp,-48
    80004a48:	02813423          	sd	s0,40(sp)
    80004a4c:	03010413          	addi	s0,sp,48
    80004a50:	fea43423          	sd	a0,-24(s0)
    80004a54:	00058793          	mv	a5,a1
    80004a58:	fcc43c23          	sd	a2,-40(s0)
    80004a5c:	fef42223          	sw	a5,-28(s0)
    80004a60:	00000013          	nop
    80004a64:	02813403          	ld	s0,40(sp)
    80004a68:	03010113          	addi	sp,sp,48
    80004a6c:	00008067          	ret
    80004a70:	fb010113          	addi	sp,sp,-80
    80004a74:	04813423          	sd	s0,72(sp)
    80004a78:	05010413          	addi	s0,sp,80
    80004a7c:	00050793          	mv	a5,a0
    80004a80:	fcb43023          	sd	a1,-64(s0)
    80004a84:	fac43c23          	sd	a2,-72(s0)
    80004a88:	fcf42623          	sw	a5,-52(s0)
    80004a8c:	fe042623          	sw	zero,-20(s0)
    80004a90:	0c00006f          	j	80004b50 <eeprom_data+0x11b8>
    80004a94:	fec42783          	lw	a5,-20(s0)
    80004a98:	00279793          	slli	a5,a5,0x2
    80004a9c:	fc043703          	ld	a4,-64(s0)
    80004aa0:	00f707b3          	add	a5,a4,a5
    80004aa4:	0007a783          	lw	a5,0(a5)
    80004aa8:	fef42423          	sw	a5,-24(s0)
    80004aac:	fec42783          	lw	a5,-20(s0)
    80004ab0:	00178793          	addi	a5,a5,1
    80004ab4:	00279793          	slli	a5,a5,0x2
    80004ab8:	fc043703          	ld	a4,-64(s0)
    80004abc:	00f707b3          	add	a5,a4,a5
    80004ac0:	0007a783          	lw	a5,0(a5)
    80004ac4:	fef42223          	sw	a5,-28(s0)
    80004ac8:	fec42783          	lw	a5,-20(s0)
    80004acc:	00279793          	slli	a5,a5,0x2
    80004ad0:	fb843703          	ld	a4,-72(s0)
    80004ad4:	00f707b3          	add	a5,a4,a5
    80004ad8:	0007a783          	lw	a5,0(a5)
    80004adc:	fef42023          	sw	a5,-32(s0)
    80004ae0:	fec42783          	lw	a5,-20(s0)
    80004ae4:	00178793          	addi	a5,a5,1
    80004ae8:	00279793          	slli	a5,a5,0x2
    80004aec:	fb843703          	ld	a4,-72(s0)
    80004af0:	00f707b3          	add	a5,a4,a5
    80004af4:	0007a783          	lw	a5,0(a5)
    80004af8:	fcf42e23          	sw	a5,-36(s0)
    80004afc:	fe842703          	lw	a4,-24(s0)
    80004b00:	fe042783          	lw	a5,-32(s0)
    80004b04:	0007071b          	sext.w	a4,a4
    80004b08:	0007879b          	sext.w	a5,a5
    80004b0c:	00f70a63          	beq	a4,a5,80004b20 <eeprom_data+0x1188>
    80004b10:	fec42783          	lw	a5,-20(s0)
    80004b14:	0017879b          	addiw	a5,a5,1
    80004b18:	0007879b          	sext.w	a5,a5
    80004b1c:	0b40006f          	j	80004bd0 <eeprom_data+0x1238>
    80004b20:	fe442703          	lw	a4,-28(s0)
    80004b24:	fdc42783          	lw	a5,-36(s0)
    80004b28:	0007071b          	sext.w	a4,a4
    80004b2c:	0007879b          	sext.w	a5,a5
    80004b30:	00f70a63          	beq	a4,a5,80004b44 <eeprom_data+0x11ac>
    80004b34:	fec42783          	lw	a5,-20(s0)
    80004b38:	0027879b          	addiw	a5,a5,2
    80004b3c:	0007879b          	sext.w	a5,a5
    80004b40:	0900006f          	j	80004bd0 <eeprom_data+0x1238>
    80004b44:	fec42783          	lw	a5,-20(s0)
    80004b48:	0027879b          	addiw	a5,a5,2
    80004b4c:	fef42623          	sw	a5,-20(s0)
    80004b50:	fcc42783          	lw	a5,-52(s0)
    80004b54:	01f7d71b          	srliw	a4,a5,0x1f
    80004b58:	00f707bb          	addw	a5,a4,a5
    80004b5c:	4017d79b          	sraiw	a5,a5,0x1
    80004b60:	0007879b          	sext.w	a5,a5
    80004b64:	0017979b          	slliw	a5,a5,0x1
    80004b68:	0007871b          	sext.w	a4,a5
    80004b6c:	fec42783          	lw	a5,-20(s0)
    80004b70:	0007879b          	sext.w	a5,a5
    80004b74:	f2e7c0e3          	blt	a5,a4,80004a94 <eeprom_data+0x10fc>
    80004b78:	fcc42783          	lw	a5,-52(s0)
    80004b7c:	0017f793          	andi	a5,a5,1
    80004b80:	0007879b          	sext.w	a5,a5
    80004b84:	04078463          	beqz	a5,80004bcc <eeprom_data+0x1234>
    80004b88:	fcc42783          	lw	a5,-52(s0)
    80004b8c:	00279793          	slli	a5,a5,0x2
    80004b90:	ffc78793          	addi	a5,a5,-4
    80004b94:	fc043703          	ld	a4,-64(s0)
    80004b98:	00f707b3          	add	a5,a4,a5
    80004b9c:	0007a783          	lw	a5,0(a5)
    80004ba0:	0007869b          	sext.w	a3,a5
    80004ba4:	fcc42783          	lw	a5,-52(s0)
    80004ba8:	00279793          	slli	a5,a5,0x2
    80004bac:	ffc78793          	addi	a5,a5,-4
    80004bb0:	fb843703          	ld	a4,-72(s0)
    80004bb4:	00f707b3          	add	a5,a4,a5
    80004bb8:	0007a783          	lw	a5,0(a5)
    80004bbc:	00068713          	mv	a4,a3
    80004bc0:	00f70663          	beq	a4,a5,80004bcc <eeprom_data+0x1234>
    80004bc4:	fcc42783          	lw	a5,-52(s0)
    80004bc8:	0080006f          	j	80004bd0 <eeprom_data+0x1238>
    80004bcc:	00000793          	li	a5,0
    80004bd0:	00078513          	mv	a0,a5
    80004bd4:	04813403          	ld	s0,72(sp)
    80004bd8:	05010113          	addi	sp,sp,80
    80004bdc:	00008067          	ret
    80004be0:	fa010113          	addi	sp,sp,-96
    80004be4:	04813c23          	sd	s0,88(sp)
    80004be8:	06010413          	addi	s0,sp,96
    80004bec:	00050793          	mv	a5,a0
    80004bf0:	fab43823          	sd	a1,-80(s0)
    80004bf4:	fac43423          	sd	a2,-88(s0)
    80004bf8:	faf42e23          	sw	a5,-68(s0)
    80004bfc:	fe042623          	sw	zero,-20(s0)
    80004c00:	0d80006f          	j	80004cd8 <eeprom_data+0x1340>
    80004c04:	fec42783          	lw	a5,-20(s0)
    80004c08:	00379793          	slli	a5,a5,0x3
    80004c0c:	fb043703          	ld	a4,-80(s0)
    80004c10:	00f707b3          	add	a5,a4,a5
    80004c14:	0007b787          	fld	fa5,0(a5)
    80004c18:	fef43027          	fsd	fa5,-32(s0)
    80004c1c:	fec42783          	lw	a5,-20(s0)
    80004c20:	00178793          	addi	a5,a5,1
    80004c24:	00379793          	slli	a5,a5,0x3
    80004c28:	fb043703          	ld	a4,-80(s0)
    80004c2c:	00f707b3          	add	a5,a4,a5
    80004c30:	0007b787          	fld	fa5,0(a5)
    80004c34:	fcf43c27          	fsd	fa5,-40(s0)
    80004c38:	fec42783          	lw	a5,-20(s0)
    80004c3c:	00379793          	slli	a5,a5,0x3
    80004c40:	fa843703          	ld	a4,-88(s0)
    80004c44:	00f707b3          	add	a5,a4,a5
    80004c48:	0007b787          	fld	fa5,0(a5)
    80004c4c:	fcf43827          	fsd	fa5,-48(s0)
    80004c50:	fec42783          	lw	a5,-20(s0)
    80004c54:	00178793          	addi	a5,a5,1
    80004c58:	00379793          	slli	a5,a5,0x3
    80004c5c:	fa843703          	ld	a4,-88(s0)
    80004c60:	00f707b3          	add	a5,a4,a5
    80004c64:	0007b787          	fld	fa5,0(a5)
    80004c68:	fcf43427          	fsd	fa5,-56(s0)
    80004c6c:	fe043707          	fld	fa4,-32(s0)
    80004c70:	fd043787          	fld	fa5,-48(s0)
    80004c74:	a2f727d3          	feq.d	a5,fa4,fa5
    80004c78:	00f037b3          	snez	a5,a5
    80004c7c:	0ff7f793          	andi	a5,a5,255
    80004c80:	fcf42223          	sw	a5,-60(s0)
    80004c84:	fd843707          	fld	fa4,-40(s0)
    80004c88:	fc843787          	fld	fa5,-56(s0)
    80004c8c:	a2f727d3          	feq.d	a5,fa4,fa5
    80004c90:	00f037b3          	snez	a5,a5
    80004c94:	0ff7f793          	andi	a5,a5,255
    80004c98:	fcf42023          	sw	a5,-64(s0)
    80004c9c:	fc442703          	lw	a4,-60(s0)
    80004ca0:	fc042783          	lw	a5,-64(s0)
    80004ca4:	00f777b3          	and	a5,a4,a5
    80004ca8:	0007879b          	sext.w	a5,a5
    80004cac:	02079063          	bnez	a5,80004ccc <eeprom_data+0x1334>
    80004cb0:	fec42783          	lw	a5,-20(s0)
    80004cb4:	0017879b          	addiw	a5,a5,1
    80004cb8:	0007879b          	sext.w	a5,a5
    80004cbc:	fc442703          	lw	a4,-60(s0)
    80004cc0:	00f707bb          	addw	a5,a4,a5
    80004cc4:	0007879b          	sext.w	a5,a5
    80004cc8:	08c0006f          	j	80004d54 <eeprom_data+0x13bc>
    80004ccc:	fec42783          	lw	a5,-20(s0)
    80004cd0:	0027879b          	addiw	a5,a5,2
    80004cd4:	fef42623          	sw	a5,-20(s0)
    80004cd8:	fbc42783          	lw	a5,-68(s0)
    80004cdc:	01f7d71b          	srliw	a4,a5,0x1f
    80004ce0:	00f707bb          	addw	a5,a4,a5
    80004ce4:	4017d79b          	sraiw	a5,a5,0x1
    80004ce8:	0007879b          	sext.w	a5,a5
    80004cec:	0017979b          	slliw	a5,a5,0x1
    80004cf0:	0007871b          	sext.w	a4,a5
    80004cf4:	fec42783          	lw	a5,-20(s0)
    80004cf8:	0007879b          	sext.w	a5,a5
    80004cfc:	f0e7c4e3          	blt	a5,a4,80004c04 <eeprom_data+0x126c>
    80004d00:	fbc42783          	lw	a5,-68(s0)
    80004d04:	0017f793          	andi	a5,a5,1
    80004d08:	0007879b          	sext.w	a5,a5
    80004d0c:	04078263          	beqz	a5,80004d50 <eeprom_data+0x13b8>
    80004d10:	fbc42783          	lw	a5,-68(s0)
    80004d14:	00379793          	slli	a5,a5,0x3
    80004d18:	ff878793          	addi	a5,a5,-8
    80004d1c:	fb043703          	ld	a4,-80(s0)
    80004d20:	00f707b3          	add	a5,a4,a5
    80004d24:	0007b707          	fld	fa4,0(a5)
    80004d28:	fbc42783          	lw	a5,-68(s0)
    80004d2c:	00379793          	slli	a5,a5,0x3
    80004d30:	ff878793          	addi	a5,a5,-8
    80004d34:	fa843703          	ld	a4,-88(s0)
    80004d38:	00f707b3          	add	a5,a4,a5
    80004d3c:	0007b787          	fld	fa5,0(a5)
    80004d40:	a2f727d3          	feq.d	a5,fa4,fa5
    80004d44:	00079663          	bnez	a5,80004d50 <eeprom_data+0x13b8>
    80004d48:	fbc42783          	lw	a5,-68(s0)
    80004d4c:	0080006f          	j	80004d54 <eeprom_data+0x13bc>
    80004d50:	00000793          	li	a5,0
    80004d54:	00078513          	mv	a0,a5
    80004d58:	05813403          	ld	s0,88(sp)
    80004d5c:	06010113          	addi	sp,sp,96
    80004d60:	00008067          	ret
    80004d64:	fe010113          	addi	sp,sp,-32
    80004d68:	00813c23          	sd	s0,24(sp)
    80004d6c:	02010413          	addi	s0,sp,32
    80004d70:	00050793          	mv	a5,a0
    80004d74:	fef42623          	sw	a5,-20(s0)
    80004d78:	00022783          	lw	a5,0(tp) # ffffffffffff9000 <__global_pointer$+0xffffffff7fff0e68>
    80004d7c:	0017b793          	seqz	a5,a5
    80004d80:	0ff7f793          	andi	a5,a5,255
    80004d84:	0007871b          	sext.w	a4,a5
    80004d88:	00e22023          	sw	a4,0(tp) # 0 <_tdata_begin>
    80004d8c:	00001797          	auipc	a5,0x1
    80004d90:	52c78793          	addi	a5,a5,1324 # 800062b8 <eeprom_data+0x2920>
    80004d94:	00100713          	li	a4,1
    80004d98:	0f50000f          	fence	iorw,ow
    80004d9c:	04e7a6af          	amoadd.w.aq	a3,a4,(a5)
    80004da0:	0006879b          	sext.w	a5,a3
    80004da4:	0007871b          	sext.w	a4,a5
    80004da8:	fec42783          	lw	a5,-20(s0)
    80004dac:	fff7879b          	addiw	a5,a5,-1
    80004db0:	0007879b          	sext.w	a5,a5
    80004db4:	02f71263          	bne	a4,a5,80004dd8 <eeprom_data+0x1440>
    80004db8:	00001797          	auipc	a5,0x1
    80004dbc:	50078793          	addi	a5,a5,1280 # 800062b8 <eeprom_data+0x2920>
    80004dc0:	0007a023          	sw	zero,0(a5)
    80004dc4:	00022703          	lw	a4,0(tp) # 0 <_tdata_begin>
    80004dc8:	00001797          	auipc	a5,0x1
    80004dcc:	4f478793          	addi	a5,a5,1268 # 800062bc <eeprom_data+0x2924>
    80004dd0:	00e7a023          	sw	a4,0(a5)
    80004dd4:	0200006f          	j	80004df4 <eeprom_data+0x145c>
    80004dd8:	00000013          	nop
    80004ddc:	00001797          	auipc	a5,0x1
    80004de0:	4e078793          	addi	a5,a5,1248 # 800062bc <eeprom_data+0x2924>
    80004de4:	0007a783          	lw	a5,0(a5)
    80004de8:	0007871b          	sext.w	a4,a5
    80004dec:	00022783          	lw	a5,0(tp) # 0 <_tdata_begin>
    80004df0:	fef716e3          	bne	a4,a5,80004ddc <eeprom_data+0x1444>
    80004df4:	00000013          	nop
    80004df8:	01813403          	ld	s0,24(sp)
    80004dfc:	02010113          	addi	sp,sp,32
    80004e00:	00008067          	ret
    80004e04:	fd010113          	addi	sp,sp,-48
    80004e08:	02813423          	sd	s0,40(sp)
    80004e0c:	03010413          	addi	s0,sp,48
    80004e10:	fca43c23          	sd	a0,-40(s0)
    80004e14:	fd843783          	ld	a5,-40(s0)
    80004e18:	0017d713          	srli	a4,a5,0x1
    80004e1c:	fd843783          	ld	a5,-40(s0)
    80004e20:	00f747b3          	xor	a5,a4,a5
    80004e24:	0017f793          	andi	a5,a5,1
    80004e28:	fef43423          	sd	a5,-24(s0)
    80004e2c:	fd843783          	ld	a5,-40(s0)
    80004e30:	0017d713          	srli	a4,a5,0x1
    80004e34:	fe843783          	ld	a5,-24(s0)
    80004e38:	03e79793          	slli	a5,a5,0x3e
    80004e3c:	00f767b3          	or	a5,a4,a5
    80004e40:	00078513          	mv	a0,a5
    80004e44:	02813403          	ld	s0,40(sp)
    80004e48:	03010113          	addi	sp,sp,48
    80004e4c:	00008067          	ret
    80004e50:	f5010113          	addi	sp,sp,-176
    80004e54:	0a813423          	sd	s0,168(sp)
    80004e58:	0b010413          	addi	s0,sp,176
    80004e5c:	f6a43423          	sd	a0,-152(s0)
    80004e60:	f6b43023          	sd	a1,-160(s0)
    80004e64:	f4c43c23          	sd	a2,-168(s0)
    80004e68:	f4d43823          	sd	a3,-176(s0)
    80004e6c:	ff040793          	addi	a5,s0,-16
    80004e70:	f8078793          	addi	a5,a5,-128
    80004e74:	03f78793          	addi	a5,a5,63
    80004e78:	0067d793          	srli	a5,a5,0x6
    80004e7c:	00679793          	slli	a5,a5,0x6
    80004e80:	f6843703          	ld	a4,-152(s0)
    80004e84:	00e7b023          	sd	a4,0(a5)
    80004e88:	f6043703          	ld	a4,-160(s0)
    80004e8c:	00e7b423          	sd	a4,8(a5)
    80004e90:	f5843703          	ld	a4,-168(s0)
    80004e94:	00e7b823          	sd	a4,16(a5)
    80004e98:	f5043703          	ld	a4,-176(s0)
    80004e9c:	00e7bc23          	sd	a4,24(a5)
    80004ea0:	00078693          	mv	a3,a5
    80004ea4:	00000717          	auipc	a4,0x0
    80004ea8:	af470713          	addi	a4,a4,-1292 # 80004998 <eeprom_data+0x1000>
    80004eac:	00d73023          	sd	a3,0(a4)
    80004eb0:	00000013          	nop
    80004eb4:	00000717          	auipc	a4,0x0
    80004eb8:	b2470713          	addi	a4,a4,-1244 # 800049d8 <eeprom_data+0x1040>
    80004ebc:	00073703          	ld	a4,0(a4)
    80004ec0:	fe070ae3          	beqz	a4,80004eb4 <eeprom_data+0x151c>
    80004ec4:	0007b783          	ld	a5,0(a5)
    80004ec8:	00078513          	mv	a0,a5
    80004ecc:	0a813403          	ld	s0,168(sp)
    80004ed0:	0b010113          	addi	sp,sp,176
    80004ed4:	00008067          	ret
    80004ed8:	fb010113          	addi	sp,sp,-80
    80004edc:	04813423          	sd	s0,72(sp)
    80004ee0:	05010413          	addi	s0,sp,80
    80004ee4:	00050793          	mv	a5,a0
    80004ee8:	faf42e23          	sw	a5,-68(s0)
    80004eec:	fc042e23          	sw	zero,-36(s0)
    80004ef0:	fdc42783          	lw	a5,-36(s0)
    80004ef4:	0007871b          	sext.w	a4,a5
    80004ef8:	00100793          	li	a5,1
    80004efc:	fee7cae3          	blt	a5,a4,80004ef0 <eeprom_data+0x1558>
    80004f00:	b00027f3          	csrr	a5,mcycle
    80004f04:	fcf43823          	sd	a5,-48(s0)
    80004f08:	fd043783          	ld	a5,-48(s0)
    80004f0c:	fef43423          	sd	a5,-24(s0)
    80004f10:	fbc42783          	lw	a5,-68(s0)
    80004f14:	0007879b          	sext.w	a5,a5
    80004f18:	04079463          	bnez	a5,80004f60 <eeprom_data+0x15c8>
    80004f1c:	00001717          	auipc	a4,0x1
    80004f20:	37c70713          	addi	a4,a4,892 # 80006298 <eeprom_data+0x2900>
    80004f24:	fdc42783          	lw	a5,-36(s0)
    80004f28:	00379793          	slli	a5,a5,0x3
    80004f2c:	00f707b3          	add	a5,a4,a5
    80004f30:	0007b783          	ld	a5,0(a5)
    80004f34:	fe843703          	ld	a4,-24(s0)
    80004f38:	40f707b3          	sub	a5,a4,a5
    80004f3c:	fef43423          	sd	a5,-24(s0)
    80004f40:	00001717          	auipc	a4,0x1
    80004f44:	36870713          	addi	a4,a4,872 # 800062a8 <eeprom_data+0x2910>
    80004f48:	fdc42783          	lw	a5,-36(s0)
    80004f4c:	00379793          	slli	a5,a5,0x3
    80004f50:	00f707b3          	add	a5,a4,a5
    80004f54:	00001717          	auipc	a4,0x1
    80004f58:	1a470713          	addi	a4,a4,420 # 800060f8 <eeprom_data+0x2760>
    80004f5c:	00e7b023          	sd	a4,0(a5)
    80004f60:	fdc42783          	lw	a5,-36(s0)
    80004f64:	0017871b          	addiw	a4,a5,1
    80004f68:	fce42e23          	sw	a4,-36(s0)
    80004f6c:	00001717          	auipc	a4,0x1
    80004f70:	32c70713          	addi	a4,a4,812 # 80006298 <eeprom_data+0x2900>
    80004f74:	00379793          	slli	a5,a5,0x3
    80004f78:	00f707b3          	add	a5,a4,a5
    80004f7c:	fe843703          	ld	a4,-24(s0)
    80004f80:	00e7b023          	sd	a4,0(a5)
    80004f84:	fdc42783          	lw	a5,-36(s0)
    80004f88:	0007871b          	sext.w	a4,a5
    80004f8c:	00100793          	li	a5,1
    80004f90:	fee7cae3          	blt	a5,a4,80004f84 <eeprom_data+0x15ec>
    80004f94:	b02027f3          	csrr	a5,minstret
    80004f98:	fcf43423          	sd	a5,-56(s0)
    80004f9c:	fc843783          	ld	a5,-56(s0)
    80004fa0:	fef43023          	sd	a5,-32(s0)
    80004fa4:	fbc42783          	lw	a5,-68(s0)
    80004fa8:	0007879b          	sext.w	a5,a5
    80004fac:	04079463          	bnez	a5,80004ff4 <eeprom_data+0x165c>
    80004fb0:	00001717          	auipc	a4,0x1
    80004fb4:	2e870713          	addi	a4,a4,744 # 80006298 <eeprom_data+0x2900>
    80004fb8:	fdc42783          	lw	a5,-36(s0)
    80004fbc:	00379793          	slli	a5,a5,0x3
    80004fc0:	00f707b3          	add	a5,a4,a5
    80004fc4:	0007b783          	ld	a5,0(a5)
    80004fc8:	fe043703          	ld	a4,-32(s0)
    80004fcc:	40f707b3          	sub	a5,a4,a5
    80004fd0:	fef43023          	sd	a5,-32(s0)
    80004fd4:	00001717          	auipc	a4,0x1
    80004fd8:	2d470713          	addi	a4,a4,724 # 800062a8 <eeprom_data+0x2910>
    80004fdc:	fdc42783          	lw	a5,-36(s0)
    80004fe0:	00379793          	slli	a5,a5,0x3
    80004fe4:	00f707b3          	add	a5,a4,a5
    80004fe8:	00001717          	auipc	a4,0x1
    80004fec:	11870713          	addi	a4,a4,280 # 80006100 <eeprom_data+0x2768>
    80004ff0:	00e7b023          	sd	a4,0(a5)
    80004ff4:	fdc42783          	lw	a5,-36(s0)
    80004ff8:	0017871b          	addiw	a4,a5,1
    80004ffc:	fce42e23          	sw	a4,-36(s0)
    80005000:	00001717          	auipc	a4,0x1
    80005004:	29870713          	addi	a4,a4,664 # 80006298 <eeprom_data+0x2900>
    80005008:	00379793          	slli	a5,a5,0x3
    8000500c:	00f707b3          	add	a5,a4,a5
    80005010:	fe043703          	ld	a4,-32(s0)
    80005014:	00e7b023          	sd	a4,0(a5)
    80005018:	00000013          	nop
    8000501c:	04813403          	ld	s0,72(sp)
    80005020:	05010113          	addi	sp,sp,80
    80005024:	00008067          	ret
    80005028:	fe010113          	addi	sp,sp,-32
    8000502c:	00813c23          	sd	s0,24(sp)
    80005030:	02010413          	addi	s0,sp,32
    80005034:	fea43423          	sd	a0,-24(s0)
    80005038:	00011337          	lui	t1,0x11
    8000503c:	2003031b          	addiw	t1,t1,512
    80005040:	02830383          	lb	t2,40(t1) # 11028 <_tbss_end+0x11024>
    80005044:	0403f393          	andi	t2,t2,64
    80005048:	fe038ce3          	beqz	t2,80005040 <eeprom_data+0x16a8>
    8000504c:	00011337          	lui	t1,0x11
    80005050:	3003031b          	addiw	t1,t1,768
    80005054:	00830383          	lb	t2,8(t1) # 11008 <_tbss_end+0x11004>
    80005058:	0013f393          	andi	t2,t2,1
    8000505c:	fe038ce3          	beqz	t2,80005054 <eeprom_data+0x16bc>
    80005060:	fe843783          	ld	a5,-24(s0)
    80005064:	00179793          	slli	a5,a5,0x1
    80005068:	0017e713          	ori	a4,a5,1
    8000506c:	00000797          	auipc	a5,0x0
    80005070:	92c78793          	addi	a5,a5,-1748 # 80004998 <eeprom_data+0x1000>
    80005074:	00e7b023          	sd	a4,0(a5)
    80005078:	0000006f          	j	80005078 <eeprom_data+0x16e0>
    8000507c:	fd010113          	addi	sp,sp,-48
    80005080:	02113423          	sd	ra,40(sp)
    80005084:	02813023          	sd	s0,32(sp)
    80005088:	03010413          	addi	s0,sp,48
    8000508c:	fea43423          	sd	a0,-24(s0)
    80005090:	feb43023          	sd	a1,-32(s0)
    80005094:	fcc43c23          	sd	a2,-40(s0)
    80005098:	53900513          	li	a0,1337
    8000509c:	f8dff0ef          	jal	ra,80005028 <eeprom_data+0x1690>
    800050a0:	fe010113          	addi	sp,sp,-32
    800050a4:	00113c23          	sd	ra,24(sp)
    800050a8:	00813823          	sd	s0,16(sp)
    800050ac:	02010413          	addi	s0,sp,32
    800050b0:	00050793          	mv	a5,a0
    800050b4:	fef42623          	sw	a5,-20(s0)
    800050b8:	fec42783          	lw	a5,-20(s0)
    800050bc:	00078513          	mv	a0,a5
    800050c0:	f69ff0ef          	jal	ra,80005028 <eeprom_data+0x1690>
    800050c4:	ff010113          	addi	sp,sp,-16
    800050c8:	00113423          	sd	ra,8(sp)
    800050cc:	00813023          	sd	s0,0(sp)
    800050d0:	01010413          	addi	s0,sp,16
    800050d4:	08600513          	li	a0,134
    800050d8:	fc9ff0ef          	jal	ra,800050a0 <eeprom_data+0x1708>
    800050dc:	fd010113          	addi	sp,sp,-48
    800050e0:	02113423          	sd	ra,40(sp)
    800050e4:	02813023          	sd	s0,32(sp)
    800050e8:	00913c23          	sd	s1,24(sp)
    800050ec:	03010413          	addi	s0,sp,48
    800050f0:	fca43c23          	sd	a0,-40(s0)
    800050f4:	fd843483          	ld	s1,-40(s0)
    800050f8:	fd843503          	ld	a0,-40(s0)
    800050fc:	519000ef          	jal	ra,80005e14 <eeprom_data+0x247c>
    80005100:	00050793          	mv	a5,a0
    80005104:	00078693          	mv	a3,a5
    80005108:	00048613          	mv	a2,s1
    8000510c:	00100593          	li	a1,1
    80005110:	04000513          	li	a0,64
    80005114:	d3dff0ef          	jal	ra,80004e50 <eeprom_data+0x14b8>
    80005118:	00000013          	nop
    8000511c:	02813083          	ld	ra,40(sp)
    80005120:	02013403          	ld	s0,32(sp)
    80005124:	01813483          	ld	s1,24(sp)
    80005128:	03010113          	addi	sp,sp,48
    8000512c:	00008067          	ret
    80005130:	fe010113          	addi	sp,sp,-32
    80005134:	00113c23          	sd	ra,24(sp)
    80005138:	00813823          	sd	s0,16(sp)
    8000513c:	02010413          	addi	s0,sp,32
    80005140:	00050793          	mv	a5,a0
    80005144:	feb43023          	sd	a1,-32(s0)
    80005148:	fef42623          	sw	a5,-20(s0)
    8000514c:	00001517          	auipc	a0,0x1
    80005150:	fc450513          	addi	a0,a0,-60 # 80006110 <eeprom_data+0x2778>
    80005154:	f89ff0ef          	jal	ra,800050dc <eeprom_data+0x1744>
    80005158:	fff00793          	li	a5,-1
    8000515c:	00078513          	mv	a0,a5
    80005160:	01813083          	ld	ra,24(sp)
    80005164:	01013403          	ld	s0,16(sp)
    80005168:	02010113          	addi	sp,sp,32
    8000516c:	00008067          	ret
    80005170:	ff010113          	addi	sp,sp,-16
    80005174:	00813423          	sd	s0,8(sp)
    80005178:	01010413          	addi	s0,sp,16
    8000517c:	00011337          	lui	t1,0x11
    80005180:	2003031b          	addiw	t1,t1,512
    80005184:	02830383          	lb	t2,40(t1) # 11028 <_tbss_end+0x11024>
    80005188:	0013f393          	andi	t2,t2,1
    8000518c:	fe038ce3          	beqz	t2,80005184 <eeprom_data+0x17ec>
    80005190:	00030503          	lb	a0,0(t1)
    80005194:	0ff57793          	andi	a5,a0,255
    80005198:	0007879b          	sext.w	a5,a5
    8000519c:	00078513          	mv	a0,a5
    800051a0:	00813403          	ld	s0,8(sp)
    800051a4:	01010113          	addi	sp,sp,16
    800051a8:	00008067          	ret
    800051ac:	ff010113          	addi	sp,sp,-16
    800051b0:	00813423          	sd	s0,8(sp)
    800051b4:	01010413          	addi	s0,sp,16
    800051b8:	00011337          	lui	t1,0x11
    800051bc:	2003031b          	addiw	t1,t1,512
    800051c0:	08300393          	li	t2,131
    800051c4:	00730c23          	sb	t2,24(t1) # 11018 <_tbss_end+0x11014>
    800051c8:	00000393          	li	t2,0
    800051cc:	00030423          	sb	zero,8(t1)
    800051d0:	08200393          	li	t2,130
    800051d4:	00730023          	sb	t2,0(t1)
    800051d8:	00300393          	li	t2,3
    800051dc:	00730c23          	sb	t2,24(t1)
    800051e0:	00600393          	li	t2,6
    800051e4:	00730823          	sb	t2,16(t1)
    800051e8:	00030423          	sb	zero,8(t1)
    800051ec:	00000793          	li	a5,0
    800051f0:	00078513          	mv	a0,a5
    800051f4:	00813403          	ld	s0,8(sp)
    800051f8:	01010113          	addi	sp,sp,16
    800051fc:	00008067          	ret
    80005200:	fe010113          	addi	sp,sp,-32
    80005204:	00813c23          	sd	s0,24(sp)
    80005208:	02010413          	addi	s0,sp,32
    8000520c:	00050793          	mv	a5,a0
    80005210:	fef42623          	sw	a5,-20(s0)
    80005214:	fec42783          	lw	a5,-20(s0)
    80005218:	0ff7f793          	andi	a5,a5,255
    8000521c:	00078513          	mv	a0,a5
    80005220:	00011337          	lui	t1,0x11
    80005224:	2003031b          	addiw	t1,t1,512
    80005228:	02830383          	lb	t2,40(t1) # 11028 <_tbss_end+0x11024>
    8000522c:	0203f393          	andi	t2,t2,32
    80005230:	fe038ce3          	beqz	t2,80005228 <eeprom_data+0x1890>
    80005234:	00a30023          	sb	a0,0(t1)
    80005238:	00000793          	li	a5,0
    8000523c:	00078513          	mv	a0,a5
    80005240:	01813403          	ld	s0,24(sp)
    80005244:	02010113          	addi	sp,sp,32
    80005248:	00008067          	ret
    8000524c:	f4010113          	addi	sp,sp,-192
    80005250:	0a113c23          	sd	ra,184(sp)
    80005254:	0a813823          	sd	s0,176(sp)
    80005258:	0a913423          	sd	s1,168(sp)
    8000525c:	0c010413          	addi	s0,sp,192
    80005260:	00050793          	mv	a5,a0
    80005264:	00058713          	mv	a4,a1
    80005268:	f4f42623          	sw	a5,-180(s0)
    8000526c:	00070793          	mv	a5,a4
    80005270:	f4f42423          	sw	a5,-184(s0)
    80005274:	fe040793          	addi	a5,s0,-32
    80005278:	f7078793          	addi	a5,a5,-144
    8000527c:	03f78793          	addi	a5,a5,63
    80005280:	0067d793          	srli	a5,a5,0x6
    80005284:	00679493          	slli	s1,a5,0x6
    80005288:	00000593          	li	a1,0
    8000528c:	00000513          	li	a0,0
    80005290:	f50ff0ef          	jal	ra,800049e0 <eeprom_data+0x1048>
    80005294:	00050793          	mv	a5,a0
    80005298:	fcf42c23          	sw	a5,-40(s0)
    8000529c:	fc943823          	sd	s1,-48(s0)
    800052a0:	fc042e23          	sw	zero,-36(s0)
    800052a4:	0700006f          	j	80005314 <eeprom_data+0x197c>
    800052a8:	00001717          	auipc	a4,0x1
    800052ac:	ff070713          	addi	a4,a4,-16 # 80006298 <eeprom_data+0x2900>
    800052b0:	fdc42783          	lw	a5,-36(s0)
    800052b4:	00379793          	slli	a5,a5,0x3
    800052b8:	00f707b3          	add	a5,a4,a5
    800052bc:	0007b783          	ld	a5,0(a5)
    800052c0:	04078463          	beqz	a5,80005308 <eeprom_data+0x1970>
    800052c4:	00001717          	auipc	a4,0x1
    800052c8:	fe470713          	addi	a4,a4,-28 # 800062a8 <eeprom_data+0x2910>
    800052cc:	fdc42783          	lw	a5,-36(s0)
    800052d0:	00379793          	slli	a5,a5,0x3
    800052d4:	00f707b3          	add	a5,a4,a5
    800052d8:	0007b683          	ld	a3,0(a5)
    800052dc:	00001717          	auipc	a4,0x1
    800052e0:	fbc70713          	addi	a4,a4,-68 # 80006298 <eeprom_data+0x2900>
    800052e4:	fdc42783          	lw	a5,-36(s0)
    800052e8:	00379793          	slli	a5,a5,0x3
    800052ec:	00f707b3          	add	a5,a4,a5
    800052f0:	0007b783          	ld	a5,0(a5)
    800052f4:	00078613          	mv	a2,a5
    800052f8:	00068593          	mv	a1,a3
    800052fc:	00001517          	auipc	a0,0x1
    80005300:	e2c50513          	addi	a0,a0,-468 # 80006128 <eeprom_data+0x2790>
    80005304:	788000ef          	jal	ra,80005a8c <eeprom_data+0x20f4>
    80005308:	fdc42783          	lw	a5,-36(s0)
    8000530c:	0017879b          	addiw	a5,a5,1
    80005310:	fcf42e23          	sw	a5,-36(s0)
    80005314:	fdc42783          	lw	a5,-36(s0)
    80005318:	0007871b          	sext.w	a4,a5
    8000531c:	00100793          	li	a5,1
    80005320:	f8e7d4e3          	ble	a4,a5,800052a8 <eeprom_data+0x1910>
    80005324:	fd842783          	lw	a5,-40(s0)
    80005328:	00078513          	mv	a0,a5
    8000532c:	d75ff0ef          	jal	ra,800050a0 <eeprom_data+0x1708>
    80005330:	fc010113          	addi	sp,sp,-64
    80005334:	02113c23          	sd	ra,56(sp)
    80005338:	02813823          	sd	s0,48(sp)
    8000533c:	04010413          	addi	s0,sp,64
    80005340:	fca43423          	sd	a0,-56(s0)
    80005344:	fe042623          	sw	zero,-20(s0)
    80005348:	06c0006f          	j	800053b4 <eeprom_data+0x1a1c>
    8000534c:	fc843783          	ld	a5,-56(s0)
    80005350:	0ff7f793          	andi	a5,a5,255
    80005354:	00f7f793          	andi	a5,a5,15
    80005358:	0ff7f713          	andi	a4,a5,255
    8000535c:	fc843783          	ld	a5,-56(s0)
    80005360:	00f7f693          	andi	a3,a5,15
    80005364:	00900793          	li	a5,9
    80005368:	00d7e663          	bltu	a5,a3,80005374 <eeprom_data+0x19dc>
    8000536c:	03000793          	li	a5,48
    80005370:	0080006f          	j	80005378 <eeprom_data+0x19e0>
    80005374:	05700793          	li	a5,87
    80005378:	00f00613          	li	a2,15
    8000537c:	fec42683          	lw	a3,-20(s0)
    80005380:	40d606bb          	subw	a3,a2,a3
    80005384:	0006869b          	sext.w	a3,a3
    80005388:	00e787bb          	addw	a5,a5,a4
    8000538c:	0ff7f713          	andi	a4,a5,255
    80005390:	ff040793          	addi	a5,s0,-16
    80005394:	00d787b3          	add	a5,a5,a3
    80005398:	fee78423          	sb	a4,-24(a5)
    8000539c:	fc843783          	ld	a5,-56(s0)
    800053a0:	0047d793          	srli	a5,a5,0x4
    800053a4:	fcf43423          	sd	a5,-56(s0)
    800053a8:	fec42783          	lw	a5,-20(s0)
    800053ac:	0017879b          	addiw	a5,a5,1
    800053b0:	fef42623          	sw	a5,-20(s0)
    800053b4:	fec42783          	lw	a5,-20(s0)
    800053b8:	0007871b          	sext.w	a4,a5
    800053bc:	00f00793          	li	a5,15
    800053c0:	f8e7d6e3          	ble	a4,a5,8000534c <eeprom_data+0x19b4>
    800053c4:	fe040423          	sb	zero,-24(s0)
    800053c8:	fd840793          	addi	a5,s0,-40
    800053cc:	00078513          	mv	a0,a5
    800053d0:	d0dff0ef          	jal	ra,800050dc <eeprom_data+0x1744>
    800053d4:	00000013          	nop
    800053d8:	03813083          	ld	ra,56(sp)
    800053dc:	03013403          	ld	s0,48(sp)
    800053e0:	04010113          	addi	sp,sp,64
    800053e4:	00008067          	ret
    800053e8:	eb010113          	addi	sp,sp,-336
    800053ec:	14113423          	sd	ra,328(sp)
    800053f0:	14813023          	sd	s0,320(sp)
    800053f4:	15010413          	addi	s0,sp,336
    800053f8:	eca43c23          	sd	a0,-296(s0)
    800053fc:	ecb43823          	sd	a1,-304(s0)
    80005400:	ecc43423          	sd	a2,-312(s0)
    80005404:	00068613          	mv	a2,a3
    80005408:	00070693          	mv	a3,a4
    8000540c:	00078713          	mv	a4,a5
    80005410:	00060793          	mv	a5,a2
    80005414:	ecf42223          	sw	a5,-316(s0)
    80005418:	00068793          	mv	a5,a3
    8000541c:	ecf42023          	sw	a5,-320(s0)
    80005420:	00070793          	mv	a5,a4
    80005424:	eaf42e23          	sw	a5,-324(s0)
    80005428:	fe042623          	sw	zero,-20(s0)
    8000542c:	ec446783          	lwu	a5,-316(s0)
    80005430:	ec843703          	ld	a4,-312(s0)
    80005434:	02f776b3          	remu	a3,a4,a5
    80005438:	fec42783          	lw	a5,-20(s0)
    8000543c:	0017871b          	addiw	a4,a5,1
    80005440:	fee42623          	sw	a4,-20(s0)
    80005444:	0006871b          	sext.w	a4,a3
    80005448:	00279793          	slli	a5,a5,0x2
    8000544c:	ff040693          	addi	a3,s0,-16
    80005450:	00f687b3          	add	a5,a3,a5
    80005454:	eee7ac23          	sw	a4,-264(a5)
    80005458:	ec446783          	lwu	a5,-316(s0)
    8000545c:	ec843703          	ld	a4,-312(s0)
    80005460:	00f76c63          	bltu	a4,a5,80005478 <eeprom_data+0x1ae0>
    80005464:	ec446783          	lwu	a5,-316(s0)
    80005468:	ec843703          	ld	a4,-312(s0)
    8000546c:	02f757b3          	divu	a5,a4,a5
    80005470:	ecf43423          	sd	a5,-312(s0)
    80005474:	fb9ff06f          	j	8000542c <eeprom_data+0x1a94>
    80005478:	00000013          	nop
    8000547c:	0180006f          	j	80005494 <eeprom_data+0x1afc>
    80005480:	ebc42783          	lw	a5,-324(s0)
    80005484:	ed843703          	ld	a4,-296(s0)
    80005488:	ed043583          	ld	a1,-304(s0)
    8000548c:	00078513          	mv	a0,a5
    80005490:	000700e7          	jalr	a4
    80005494:	ec042783          	lw	a5,-320(s0)
    80005498:	fff7871b          	addiw	a4,a5,-1
    8000549c:	ece42023          	sw	a4,-320(s0)
    800054a0:	fec42703          	lw	a4,-20(s0)
    800054a4:	0007071b          	sext.w	a4,a4
    800054a8:	fcf74ce3          	blt	a4,a5,80005480 <eeprom_data+0x1ae8>
    800054ac:	0600006f          	j	8000550c <eeprom_data+0x1b74>
    800054b0:	fec42783          	lw	a5,-20(s0)
    800054b4:	00279793          	slli	a5,a5,0x2
    800054b8:	ff040713          	addi	a4,s0,-16
    800054bc:	00f707b3          	add	a5,a4,a5
    800054c0:	ef87a703          	lw	a4,-264(a5)
    800054c4:	fec42783          	lw	a5,-20(s0)
    800054c8:	00279793          	slli	a5,a5,0x2
    800054cc:	ff040693          	addi	a3,s0,-16
    800054d0:	00f687b3          	add	a5,a3,a5
    800054d4:	ef87a783          	lw	a5,-264(a5)
    800054d8:	00078693          	mv	a3,a5
    800054dc:	00900793          	li	a5,9
    800054e0:	00d7f663          	bleu	a3,a5,800054ec <eeprom_data+0x1b54>
    800054e4:	05700793          	li	a5,87
    800054e8:	0080006f          	j	800054f0 <eeprom_data+0x1b58>
    800054ec:	03000793          	li	a5,48
    800054f0:	00e787bb          	addw	a5,a5,a4
    800054f4:	0007879b          	sext.w	a5,a5
    800054f8:	0007879b          	sext.w	a5,a5
    800054fc:	ed843703          	ld	a4,-296(s0)
    80005500:	ed043583          	ld	a1,-304(s0)
    80005504:	00078513          	mv	a0,a5
    80005508:	000700e7          	jalr	a4
    8000550c:	fec42783          	lw	a5,-20(s0)
    80005510:	fff7871b          	addiw	a4,a5,-1
    80005514:	fee42623          	sw	a4,-20(s0)
    80005518:	f8f04ce3          	bgtz	a5,800054b0 <eeprom_data+0x1b18>
    8000551c:	00000013          	nop
    80005520:	14813083          	ld	ra,328(sp)
    80005524:	14013403          	ld	s0,320(sp)
    80005528:	15010113          	addi	sp,sp,336
    8000552c:	00008067          	ret
    80005530:	fe010113          	addi	sp,sp,-32
    80005534:	00813c23          	sd	s0,24(sp)
    80005538:	02010413          	addi	s0,sp,32
    8000553c:	fea43423          	sd	a0,-24(s0)
    80005540:	00058793          	mv	a5,a1
    80005544:	fef42223          	sw	a5,-28(s0)
    80005548:	fe442783          	lw	a5,-28(s0)
    8000554c:	0007871b          	sext.w	a4,a5
    80005550:	00100793          	li	a5,1
    80005554:	02e7d063          	ble	a4,a5,80005574 <eeprom_data+0x1bdc>
    80005558:	fe843783          	ld	a5,-24(s0)
    8000555c:	0007b783          	ld	a5,0(a5)
    80005560:	00878693          	addi	a3,a5,8
    80005564:	fe843703          	ld	a4,-24(s0)
    80005568:	00d73023          	sd	a3,0(a4)
    8000556c:	0007b783          	ld	a5,0(a5)
    80005570:	04c0006f          	j	800055bc <eeprom_data+0x1c24>
    80005574:	fe442783          	lw	a5,-28(s0)
    80005578:	0007879b          	sext.w	a5,a5
    8000557c:	02078063          	beqz	a5,8000559c <eeprom_data+0x1c04>
    80005580:	fe843783          	ld	a5,-24(s0)
    80005584:	0007b783          	ld	a5,0(a5)
    80005588:	00878693          	addi	a3,a5,8
    8000558c:	fe843703          	ld	a4,-24(s0)
    80005590:	00d73023          	sd	a3,0(a4)
    80005594:	0007b783          	ld	a5,0(a5)
    80005598:	0240006f          	j	800055bc <eeprom_data+0x1c24>
    8000559c:	fe843783          	ld	a5,-24(s0)
    800055a0:	0007b783          	ld	a5,0(a5)
    800055a4:	00878693          	addi	a3,a5,8
    800055a8:	fe843703          	ld	a4,-24(s0)
    800055ac:	00d73023          	sd	a3,0(a4)
    800055b0:	0007a783          	lw	a5,0(a5)
    800055b4:	02079793          	slli	a5,a5,0x20
    800055b8:	0207d793          	srli	a5,a5,0x20
    800055bc:	00078513          	mv	a0,a5
    800055c0:	01813403          	ld	s0,24(sp)
    800055c4:	02010113          	addi	sp,sp,32
    800055c8:	00008067          	ret
    800055cc:	fe010113          	addi	sp,sp,-32
    800055d0:	00813c23          	sd	s0,24(sp)
    800055d4:	02010413          	addi	s0,sp,32
    800055d8:	fea43423          	sd	a0,-24(s0)
    800055dc:	00058793          	mv	a5,a1
    800055e0:	fef42223          	sw	a5,-28(s0)
    800055e4:	fe442783          	lw	a5,-28(s0)
    800055e8:	0007871b          	sext.w	a4,a5
    800055ec:	00100793          	li	a5,1
    800055f0:	02e7d063          	ble	a4,a5,80005610 <eeprom_data+0x1c78>
    800055f4:	fe843783          	ld	a5,-24(s0)
    800055f8:	0007b783          	ld	a5,0(a5)
    800055fc:	00878693          	addi	a3,a5,8
    80005600:	fe843703          	ld	a4,-24(s0)
    80005604:	00d73023          	sd	a3,0(a4)
    80005608:	0007b783          	ld	a5,0(a5)
    8000560c:	0440006f          	j	80005650 <eeprom_data+0x1cb8>
    80005610:	fe442783          	lw	a5,-28(s0)
    80005614:	0007879b          	sext.w	a5,a5
    80005618:	02078063          	beqz	a5,80005638 <eeprom_data+0x1ca0>
    8000561c:	fe843783          	ld	a5,-24(s0)
    80005620:	0007b783          	ld	a5,0(a5)
    80005624:	00878693          	addi	a3,a5,8
    80005628:	fe843703          	ld	a4,-24(s0)
    8000562c:	00d73023          	sd	a3,0(a4)
    80005630:	0007b783          	ld	a5,0(a5)
    80005634:	01c0006f          	j	80005650 <eeprom_data+0x1cb8>
    80005638:	fe843783          	ld	a5,-24(s0)
    8000563c:	0007b783          	ld	a5,0(a5)
    80005640:	00878693          	addi	a3,a5,8
    80005644:	fe843703          	ld	a4,-24(s0)
    80005648:	00d73023          	sd	a3,0(a4)
    8000564c:	0007a783          	lw	a5,0(a5)
    80005650:	00078513          	mv	a0,a5
    80005654:	01813403          	ld	s0,24(sp)
    80005658:	02010113          	addi	sp,sp,32
    8000565c:	00008067          	ret
    80005660:	f9010113          	addi	sp,sp,-112
    80005664:	06113423          	sd	ra,104(sp)
    80005668:	06813023          	sd	s0,96(sp)
    8000566c:	04913c23          	sd	s1,88(sp)
    80005670:	05213823          	sd	s2,80(sp)
    80005674:	07010413          	addi	s0,sp,112
    80005678:	faa43423          	sd	a0,-88(s0)
    8000567c:	fab43023          	sd	a1,-96(s0)
    80005680:	f8c43c23          	sd	a2,-104(s0)
    80005684:	f8d43823          	sd	a3,-112(s0)
    80005688:	0240006f          	j	800056ac <eeprom_data+0x1d14>
    8000568c:	3e048263          	beqz	s1,80005a70 <eeprom_data+0x20d8>
    80005690:	f9843783          	ld	a5,-104(s0)
    80005694:	00178793          	addi	a5,a5,1
    80005698:	f8f43c23          	sd	a5,-104(s0)
    8000569c:	fa843783          	ld	a5,-88(s0)
    800056a0:	fa043583          	ld	a1,-96(s0)
    800056a4:	00048513          	mv	a0,s1
    800056a8:	000780e7          	jalr	a5
    800056ac:	f9843783          	ld	a5,-104(s0)
    800056b0:	0007c783          	lbu	a5,0(a5)
    800056b4:	0007849b          	sext.w	s1,a5
    800056b8:	00048713          	mv	a4,s1
    800056bc:	02500793          	li	a5,37
    800056c0:	fcf716e3          	bne	a4,a5,8000568c <eeprom_data+0x1cf4>
    800056c4:	f9843783          	ld	a5,-104(s0)
    800056c8:	00178793          	addi	a5,a5,1
    800056cc:	f8f43c23          	sd	a5,-104(s0)
    800056d0:	f9843783          	ld	a5,-104(s0)
    800056d4:	faf43c23          	sd	a5,-72(s0)
    800056d8:	02000793          	li	a5,32
    800056dc:	fcf403a3          	sb	a5,-57(s0)
    800056e0:	fff00793          	li	a5,-1
    800056e4:	fcf42623          	sw	a5,-52(s0)
    800056e8:	fff00793          	li	a5,-1
    800056ec:	fcf42423          	sw	a5,-56(s0)
    800056f0:	fc042823          	sw	zero,-48(s0)
    800056f4:	fa042a23          	sw	zero,-76(s0)
    800056f8:	f9843783          	ld	a5,-104(s0)
    800056fc:	00178713          	addi	a4,a5,1
    80005700:	f8e43c23          	sd	a4,-104(s0)
    80005704:	0007c783          	lbu	a5,0(a5)
    80005708:	0007849b          	sext.w	s1,a5
    8000570c:	fdd4869b          	addiw	a3,s1,-35
    80005710:	0006871b          	sext.w	a4,a3
    80005714:	05500793          	li	a5,85
    80005718:	32e7ec63          	bltu	a5,a4,80005a50 <eeprom_data+0x20b8>
    8000571c:	02069793          	slli	a5,a3,0x20
    80005720:	0207d793          	srli	a5,a5,0x20
    80005724:	00279713          	slli	a4,a5,0x2
    80005728:	00001797          	auipc	a5,0x1
    8000572c:	a1878793          	addi	a5,a5,-1512 # 80006140 <eeprom_data+0x27a8>
    80005730:	00f707b3          	add	a5,a4,a5
    80005734:	0007a783          	lw	a5,0(a5)
    80005738:	0007871b          	sext.w	a4,a5
    8000573c:	00001797          	auipc	a5,0x1
    80005740:	a0478793          	addi	a5,a5,-1532 # 80006140 <eeprom_data+0x27a8>
    80005744:	00f707b3          	add	a5,a4,a5
    80005748:	00078067          	jr	a5
    8000574c:	02d00793          	li	a5,45
    80005750:	fcf403a3          	sb	a5,-57(s0)
    80005754:	fa5ff06f          	j	800056f8 <eeprom_data+0x1d60>
    80005758:	03000793          	li	a5,48
    8000575c:	fcf403a3          	sb	a5,-57(s0)
    80005760:	f99ff06f          	j	800056f8 <eeprom_data+0x1d60>
    80005764:	fc042423          	sw	zero,-56(s0)
    80005768:	fc842703          	lw	a4,-56(s0)
    8000576c:	00070793          	mv	a5,a4
    80005770:	0027979b          	slliw	a5,a5,0x2
    80005774:	00e787bb          	addw	a5,a5,a4
    80005778:	0017979b          	slliw	a5,a5,0x1
    8000577c:	0007879b          	sext.w	a5,a5
    80005780:	00f487bb          	addw	a5,s1,a5
    80005784:	0007879b          	sext.w	a5,a5
    80005788:	fd07879b          	addiw	a5,a5,-48
    8000578c:	fcf42423          	sw	a5,-56(s0)
    80005790:	f9843783          	ld	a5,-104(s0)
    80005794:	0007c783          	lbu	a5,0(a5)
    80005798:	0007849b          	sext.w	s1,a5
    8000579c:	00048713          	mv	a4,s1
    800057a0:	02f00793          	li	a5,47
    800057a4:	04e7dc63          	ble	a4,a5,800057fc <eeprom_data+0x1e64>
    800057a8:	00048713          	mv	a4,s1
    800057ac:	03900793          	li	a5,57
    800057b0:	04e7c663          	blt	a5,a4,800057fc <eeprom_data+0x1e64>
    800057b4:	f9843783          	ld	a5,-104(s0)
    800057b8:	00178793          	addi	a5,a5,1
    800057bc:	f8f43c23          	sd	a5,-104(s0)
    800057c0:	fa9ff06f          	j	80005768 <eeprom_data+0x1dd0>
    800057c4:	f9043783          	ld	a5,-112(s0)
    800057c8:	00878713          	addi	a4,a5,8
    800057cc:	f8e43823          	sd	a4,-112(s0)
    800057d0:	0007a783          	lw	a5,0(a5)
    800057d4:	fcf42423          	sw	a5,-56(s0)
    800057d8:	0280006f          	j	80005800 <eeprom_data+0x1e68>
    800057dc:	fcc42783          	lw	a5,-52(s0)
    800057e0:	0007879b          	sext.w	a5,a5
    800057e4:	f007dae3          	bgez	a5,800056f8 <eeprom_data+0x1d60>
    800057e8:	fc042623          	sw	zero,-52(s0)
    800057ec:	f0dff06f          	j	800056f8 <eeprom_data+0x1d60>
    800057f0:	00100793          	li	a5,1
    800057f4:	faf42a23          	sw	a5,-76(s0)
    800057f8:	f01ff06f          	j	800056f8 <eeprom_data+0x1d60>
    800057fc:	00000013          	nop
    80005800:	fcc42783          	lw	a5,-52(s0)
    80005804:	0007879b          	sext.w	a5,a5
    80005808:	ee07d8e3          	bgez	a5,800056f8 <eeprom_data+0x1d60>
    8000580c:	fc842783          	lw	a5,-56(s0)
    80005810:	fcf42623          	sw	a5,-52(s0)
    80005814:	fff00793          	li	a5,-1
    80005818:	fcf42423          	sw	a5,-56(s0)
    8000581c:	eddff06f          	j	800056f8 <eeprom_data+0x1d60>
    80005820:	fd042783          	lw	a5,-48(s0)
    80005824:	0017879b          	addiw	a5,a5,1
    80005828:	fcf42823          	sw	a5,-48(s0)
    8000582c:	ecdff06f          	j	800056f8 <eeprom_data+0x1d60>
    80005830:	f9043783          	ld	a5,-112(s0)
    80005834:	00878713          	addi	a4,a5,8
    80005838:	f8e43823          	sd	a4,-112(s0)
    8000583c:	0007a783          	lw	a5,0(a5)
    80005840:	fa843703          	ld	a4,-88(s0)
    80005844:	fa043583          	ld	a1,-96(s0)
    80005848:	00078513          	mv	a0,a5
    8000584c:	000700e7          	jalr	a4
    80005850:	21c0006f          	j	80005a6c <eeprom_data+0x20d4>
    80005854:	f9043783          	ld	a5,-112(s0)
    80005858:	00878713          	addi	a4,a5,8
    8000585c:	f8e43823          	sd	a4,-112(s0)
    80005860:	0007b903          	ld	s2,0(a5)
    80005864:	00091663          	bnez	s2,80005870 <eeprom_data+0x1ed8>
    80005868:	00001917          	auipc	s2,0x1
    8000586c:	8d090913          	addi	s2,s2,-1840 # 80006138 <eeprom_data+0x27a0>
    80005870:	fcc42783          	lw	a5,-52(s0)
    80005874:	0007879b          	sext.w	a5,a5
    80005878:	08f05a63          	blez	a5,8000590c <eeprom_data+0x1f74>
    8000587c:	fc744783          	lbu	a5,-57(s0)
    80005880:	0ff7f713          	andi	a4,a5,255
    80005884:	02d00793          	li	a5,45
    80005888:	08f70263          	beq	a4,a5,8000590c <eeprom_data+0x1f74>
    8000588c:	fc842783          	lw	a5,-56(s0)
    80005890:	00078593          	mv	a1,a5
    80005894:	00090513          	mv	a0,s2
    80005898:	5cc000ef          	jal	ra,80005e64 <eeprom_data+0x24cc>
    8000589c:	00050793          	mv	a5,a0
    800058a0:	fcc42703          	lw	a4,-52(s0)
    800058a4:	0007879b          	sext.w	a5,a5
    800058a8:	40f707bb          	subw	a5,a4,a5
    800058ac:	0007879b          	sext.w	a5,a5
    800058b0:	fcf42623          	sw	a5,-52(s0)
    800058b4:	0280006f          	j	800058dc <eeprom_data+0x1f44>
    800058b8:	fc744783          	lbu	a5,-57(s0)
    800058bc:	0007879b          	sext.w	a5,a5
    800058c0:	fa843703          	ld	a4,-88(s0)
    800058c4:	fa043583          	ld	a1,-96(s0)
    800058c8:	00078513          	mv	a0,a5
    800058cc:	000700e7          	jalr	a4
    800058d0:	fcc42783          	lw	a5,-52(s0)
    800058d4:	fff7879b          	addiw	a5,a5,-1
    800058d8:	fcf42623          	sw	a5,-52(s0)
    800058dc:	fcc42783          	lw	a5,-52(s0)
    800058e0:	0007879b          	sext.w	a5,a5
    800058e4:	fcf04ae3          	bgtz	a5,800058b8 <eeprom_data+0x1f20>
    800058e8:	0240006f          	j	8000590c <eeprom_data+0x1f74>
    800058ec:	fa843783          	ld	a5,-88(s0)
    800058f0:	fa043583          	ld	a1,-96(s0)
    800058f4:	00048513          	mv	a0,s1
    800058f8:	000780e7          	jalr	a5
    800058fc:	00190913          	addi	s2,s2,1
    80005900:	fcc42783          	lw	a5,-52(s0)
    80005904:	fff7879b          	addiw	a5,a5,-1
    80005908:	fcf42623          	sw	a5,-52(s0)
    8000590c:	00094783          	lbu	a5,0(s2)
    80005910:	0007849b          	sext.w	s1,a5
    80005914:	04048463          	beqz	s1,8000595c <eeprom_data+0x1fc4>
    80005918:	fc842783          	lw	a5,-56(s0)
    8000591c:	0007879b          	sext.w	a5,a5
    80005920:	fc07c6e3          	bltz	a5,800058ec <eeprom_data+0x1f54>
    80005924:	fc842783          	lw	a5,-56(s0)
    80005928:	fff7879b          	addiw	a5,a5,-1
    8000592c:	fcf42423          	sw	a5,-56(s0)
    80005930:	fc842783          	lw	a5,-56(s0)
    80005934:	0007879b          	sext.w	a5,a5
    80005938:	fa07dae3          	bgez	a5,800058ec <eeprom_data+0x1f54>
    8000593c:	0200006f          	j	8000595c <eeprom_data+0x1fc4>
    80005940:	fa843783          	ld	a5,-88(s0)
    80005944:	fa043583          	ld	a1,-96(s0)
    80005948:	02000513          	li	a0,32
    8000594c:	000780e7          	jalr	a5
    80005950:	fcc42783          	lw	a5,-52(s0)
    80005954:	fff7879b          	addiw	a5,a5,-1
    80005958:	fcf42623          	sw	a5,-52(s0)
    8000595c:	fcc42783          	lw	a5,-52(s0)
    80005960:	0007879b          	sext.w	a5,a5
    80005964:	fcf04ee3          	bgtz	a5,80005940 <eeprom_data+0x1fa8>
    80005968:	1040006f          	j	80005a6c <eeprom_data+0x20d4>
    8000596c:	fd042703          	lw	a4,-48(s0)
    80005970:	f9040793          	addi	a5,s0,-112
    80005974:	00070593          	mv	a1,a4
    80005978:	00078513          	mv	a0,a5
    8000597c:	c51ff0ef          	jal	ra,800055cc <eeprom_data+0x1c34>
    80005980:	00050793          	mv	a5,a0
    80005984:	fcf43c23          	sd	a5,-40(s0)
    80005988:	fd843783          	ld	a5,-40(s0)
    8000598c:	0207d063          	bgez	a5,800059ac <eeprom_data+0x2014>
    80005990:	fa843783          	ld	a5,-88(s0)
    80005994:	fa043583          	ld	a1,-96(s0)
    80005998:	02d00513          	li	a0,45
    8000599c:	000780e7          	jalr	a5
    800059a0:	fd843783          	ld	a5,-40(s0)
    800059a4:	40f007b3          	neg	a5,a5
    800059a8:	fcf43c23          	sd	a5,-40(s0)
    800059ac:	00a00793          	li	a5,10
    800059b0:	fcf42a23          	sw	a5,-44(s0)
    800059b4:	0640006f          	j	80005a18 <eeprom_data+0x2080>
    800059b8:	00a00793          	li	a5,10
    800059bc:	fcf42a23          	sw	a5,-44(s0)
    800059c0:	0400006f          	j	80005a00 <eeprom_data+0x2068>
    800059c4:	00800793          	li	a5,8
    800059c8:	fcf42a23          	sw	a5,-44(s0)
    800059cc:	0340006f          	j	80005a00 <eeprom_data+0x2068>
    800059d0:	00100793          	li	a5,1
    800059d4:	fcf42823          	sw	a5,-48(s0)
    800059d8:	fa843783          	ld	a5,-88(s0)
    800059dc:	fa043583          	ld	a1,-96(s0)
    800059e0:	03000513          	li	a0,48
    800059e4:	000780e7          	jalr	a5
    800059e8:	fa843783          	ld	a5,-88(s0)
    800059ec:	fa043583          	ld	a1,-96(s0)
    800059f0:	07800513          	li	a0,120
    800059f4:	000780e7          	jalr	a5
    800059f8:	01000793          	li	a5,16
    800059fc:	fcf42a23          	sw	a5,-44(s0)
    80005a00:	fd042703          	lw	a4,-48(s0)
    80005a04:	f9040793          	addi	a5,s0,-112
    80005a08:	00070593          	mv	a1,a4
    80005a0c:	00078513          	mv	a0,a5
    80005a10:	b21ff0ef          	jal	ra,80005530 <eeprom_data+0x1b98>
    80005a14:	fca43c23          	sd	a0,-40(s0)
    80005a18:	fd442683          	lw	a3,-44(s0)
    80005a1c:	fc744783          	lbu	a5,-57(s0)
    80005a20:	0007879b          	sext.w	a5,a5
    80005a24:	fcc42703          	lw	a4,-52(s0)
    80005a28:	fd843603          	ld	a2,-40(s0)
    80005a2c:	fa043583          	ld	a1,-96(s0)
    80005a30:	fa843503          	ld	a0,-88(s0)
    80005a34:	9b5ff0ef          	jal	ra,800053e8 <eeprom_data+0x1a50>
    80005a38:	0340006f          	j	80005a6c <eeprom_data+0x20d4>
    80005a3c:	fa843783          	ld	a5,-88(s0)
    80005a40:	fa043583          	ld	a1,-96(s0)
    80005a44:	00048513          	mv	a0,s1
    80005a48:	000780e7          	jalr	a5
    80005a4c:	0200006f          	j	80005a6c <eeprom_data+0x20d4>
    80005a50:	fa843783          	ld	a5,-88(s0)
    80005a54:	fa043583          	ld	a1,-96(s0)
    80005a58:	02500513          	li	a0,37
    80005a5c:	000780e7          	jalr	a5
    80005a60:	fb843783          	ld	a5,-72(s0)
    80005a64:	f8f43c23          	sd	a5,-104(s0)
    80005a68:	00000013          	nop
    80005a6c:	c41ff06f          	j	800056ac <eeprom_data+0x1d14>
    80005a70:	00000013          	nop
    80005a74:	06813083          	ld	ra,104(sp)
    80005a78:	06013403          	ld	s0,96(sp)
    80005a7c:	05813483          	ld	s1,88(sp)
    80005a80:	05013903          	ld	s2,80(sp)
    80005a84:	07010113          	addi	sp,sp,112
    80005a88:	00008067          	ret
    80005a8c:	f9010113          	addi	sp,sp,-112
    80005a90:	02113423          	sd	ra,40(sp)
    80005a94:	02813023          	sd	s0,32(sp)
    80005a98:	03010413          	addi	s0,sp,48
    80005a9c:	fca43c23          	sd	a0,-40(s0)
    80005aa0:	00b43423          	sd	a1,8(s0)
    80005aa4:	00c43823          	sd	a2,16(s0)
    80005aa8:	00d43c23          	sd	a3,24(s0)
    80005aac:	02e43023          	sd	a4,32(s0)
    80005ab0:	02f43423          	sd	a5,40(s0)
    80005ab4:	03043823          	sd	a6,48(s0)
    80005ab8:	03143c23          	sd	a7,56(s0)
    80005abc:	04040793          	addi	a5,s0,64
    80005ac0:	fc878793          	addi	a5,a5,-56
    80005ac4:	fef43423          	sd	a5,-24(s0)
    80005ac8:	fe843783          	ld	a5,-24(s0)
    80005acc:	00078693          	mv	a3,a5
    80005ad0:	fd843603          	ld	a2,-40(s0)
    80005ad4:	00000593          	li	a1,0
    80005ad8:	fffff517          	auipc	a0,0xfffff
    80005adc:	72850513          	addi	a0,a0,1832 # 80005200 <eeprom_data+0x1868>
    80005ae0:	b81ff0ef          	jal	ra,80005660 <eeprom_data+0x1cc8>
    80005ae4:	00000793          	li	a5,0
    80005ae8:	00078513          	mv	a0,a5
    80005aec:	02813083          	ld	ra,40(sp)
    80005af0:	02013403          	ld	s0,32(sp)
    80005af4:	07010113          	addi	sp,sp,112
    80005af8:	00008067          	ret
    80005afc:	fc010113          	addi	sp,sp,-64
    80005b00:	02813c23          	sd	s0,56(sp)
    80005b04:	04010413          	addi	s0,sp,64
    80005b08:	00050793          	mv	a5,a0
    80005b0c:	fcb43823          	sd	a1,-48(s0)
    80005b10:	fcf42e23          	sw	a5,-36(s0)
    80005b14:	fc743423          	sd	t2,-56(s0)
    80005b18:	fd043783          	ld	a5,-48(s0)
    80005b1c:	fef43423          	sd	a5,-24(s0)
    80005b20:	fe843783          	ld	a5,-24(s0)
    80005b24:	0007b783          	ld	a5,0(a5)
    80005b28:	fdc42703          	lw	a4,-36(s0)
    80005b2c:	0ff77713          	andi	a4,a4,255
    80005b30:	00e78023          	sb	a4,0(a5)
    80005b34:	fe843783          	ld	a5,-24(s0)
    80005b38:	0007b783          	ld	a5,0(a5)
    80005b3c:	00178713          	addi	a4,a5,1
    80005b40:	fe843783          	ld	a5,-24(s0)
    80005b44:	00e7b023          	sd	a4,0(a5)
    80005b48:	00000013          	nop
    80005b4c:	03813403          	ld	s0,56(sp)
    80005b50:	04010113          	addi	sp,sp,64
    80005b54:	00008067          	ret
    80005b58:	f0010113          	addi	sp,sp,-256
    80005b5c:	0c113423          	sd	ra,200(sp)
    80005b60:	0c813023          	sd	s0,192(sp)
    80005b64:	0d010413          	addi	s0,sp,208
    80005b68:	f2a43c23          	sd	a0,-200(s0)
    80005b6c:	f2b43823          	sd	a1,-208(s0)
    80005b70:	00c43023          	sd	a2,0(s0)
    80005b74:	00d43423          	sd	a3,8(s0)
    80005b78:	00e43823          	sd	a4,16(s0)
    80005b7c:	00f43c23          	sd	a5,24(s0)
    80005b80:	03043023          	sd	a6,32(s0)
    80005b84:	03143423          	sd	a7,40(s0)
    80005b88:	03040793          	addi	a5,s0,48
    80005b8c:	fcf43c23          	sd	a5,-40(s0)
    80005b90:	f4840793          	addi	a5,s0,-184
    80005b94:	f4840713          	addi	a4,s0,-184
    80005b98:	39700693          	li	a3,919
    80005b9c:	00d7a023          	sw	a3,0(a5)
    80005ba0:	0183b6b7          	lui	a3,0x183b
    80005ba4:	3036869b          	addiw	a3,a3,771
    80005ba8:	00d7a223          	sw	a3,4(a5)
    80005bac:	0103b6b7          	lui	a3,0x103b
    80005bb0:	3836869b          	addiw	a3,a3,899
    80005bb4:	00d7a423          	sw	a3,8(a5)
    80005bb8:	000306b7          	lui	a3,0x30
    80005bbc:	0676869b          	addiw	a3,a3,103
    80005bc0:	00d7a623          	sw	a3,12(a5)
    80005bc4:	00e7b823          	sd	a4,16(a5)
    80005bc8:	00000717          	auipc	a4,0x0
    80005bcc:	f3470713          	addi	a4,a4,-204 # 80005afc <eeprom_data+0x2164>
    80005bd0:	00e7bc23          	sd	a4,24(a5)
    80005bd4:	0000100f          	fence.i
    80005bd8:	f3843783          	ld	a5,-200(s0)
    80005bdc:	fef43423          	sd	a5,-24(s0)
    80005be0:	03040793          	addi	a5,s0,48
    80005be4:	fd078793          	addi	a5,a5,-48
    80005be8:	fef43023          	sd	a5,-32(s0)
    80005bec:	fe043703          	ld	a4,-32(s0)
    80005bf0:	f4840793          	addi	a5,s0,-184
    80005bf4:	00078513          	mv	a0,a5
    80005bf8:	f3840793          	addi	a5,s0,-200
    80005bfc:	00070693          	mv	a3,a4
    80005c00:	f3043603          	ld	a2,-208(s0)
    80005c04:	00078593          	mv	a1,a5
    80005c08:	a59ff0ef          	jal	ra,80005660 <eeprom_data+0x1cc8>
    80005c0c:	f3843783          	ld	a5,-200(s0)
    80005c10:	00078023          	sb	zero,0(a5)
    80005c14:	f3843783          	ld	a5,-200(s0)
    80005c18:	00078713          	mv	a4,a5
    80005c1c:	fe843783          	ld	a5,-24(s0)
    80005c20:	40f707b3          	sub	a5,a4,a5
    80005c24:	0007879b          	sext.w	a5,a5
    80005c28:	00078513          	mv	a0,a5
    80005c2c:	0c813083          	ld	ra,200(sp)
    80005c30:	0c013403          	ld	s0,192(sp)
    80005c34:	10010113          	addi	sp,sp,256
    80005c38:	00008067          	ret
    80005c3c:	fb010113          	addi	sp,sp,-80
    80005c40:	04813423          	sd	s0,72(sp)
    80005c44:	05010413          	addi	s0,sp,80
    80005c48:	fca43423          	sd	a0,-56(s0)
    80005c4c:	fcb43023          	sd	a1,-64(s0)
    80005c50:	fac43c23          	sd	a2,-72(s0)
    80005c54:	fc843703          	ld	a4,-56(s0)
    80005c58:	fc043783          	ld	a5,-64(s0)
    80005c5c:	00f76733          	or	a4,a4,a5
    80005c60:	fb843783          	ld	a5,-72(s0)
    80005c64:	00f767b3          	or	a5,a4,a5
    80005c68:	0077f793          	andi	a5,a5,7
    80005c6c:	04079863          	bnez	a5,80005cbc <eeprom_data+0x2324>
    80005c70:	fc043783          	ld	a5,-64(s0)
    80005c74:	fef43423          	sd	a5,-24(s0)
    80005c78:	fc843783          	ld	a5,-56(s0)
    80005c7c:	fef43023          	sd	a5,-32(s0)
    80005c80:	0240006f          	j	80005ca4 <eeprom_data+0x230c>
    80005c84:	fe843703          	ld	a4,-24(s0)
    80005c88:	00870793          	addi	a5,a4,8
    80005c8c:	fef43423          	sd	a5,-24(s0)
    80005c90:	fe043783          	ld	a5,-32(s0)
    80005c94:	00878693          	addi	a3,a5,8
    80005c98:	fed43023          	sd	a3,-32(s0)
    80005c9c:	00073703          	ld	a4,0(a4)
    80005ca0:	00e7b023          	sd	a4,0(a5)
    80005ca4:	fc843703          	ld	a4,-56(s0)
    80005ca8:	fb843783          	ld	a5,-72(s0)
    80005cac:	00f707b3          	add	a5,a4,a5
    80005cb0:	fe043703          	ld	a4,-32(s0)
    80005cb4:	fcf768e3          	bltu	a4,a5,80005c84 <eeprom_data+0x22ec>
    80005cb8:	04c0006f          	j	80005d04 <eeprom_data+0x236c>
    80005cbc:	fc043783          	ld	a5,-64(s0)
    80005cc0:	fcf43c23          	sd	a5,-40(s0)
    80005cc4:	fc843783          	ld	a5,-56(s0)
    80005cc8:	fcf43823          	sd	a5,-48(s0)
    80005ccc:	0240006f          	j	80005cf0 <eeprom_data+0x2358>
    80005cd0:	fd843703          	ld	a4,-40(s0)
    80005cd4:	00170793          	addi	a5,a4,1
    80005cd8:	fcf43c23          	sd	a5,-40(s0)
    80005cdc:	fd043783          	ld	a5,-48(s0)
    80005ce0:	00178693          	addi	a3,a5,1
    80005ce4:	fcd43823          	sd	a3,-48(s0)
    80005ce8:	00074703          	lbu	a4,0(a4)
    80005cec:	00e78023          	sb	a4,0(a5)
    80005cf0:	fc843703          	ld	a4,-56(s0)
    80005cf4:	fb843783          	ld	a5,-72(s0)
    80005cf8:	00f707b3          	add	a5,a4,a5
    80005cfc:	fd043703          	ld	a4,-48(s0)
    80005d00:	fcf768e3          	bltu	a4,a5,80005cd0 <eeprom_data+0x2338>
    80005d04:	fc843783          	ld	a5,-56(s0)
    80005d08:	00078513          	mv	a0,a5
    80005d0c:	04813403          	ld	s0,72(sp)
    80005d10:	05010113          	addi	sp,sp,80
    80005d14:	00008067          	ret
    80005d18:	fb010113          	addi	sp,sp,-80
    80005d1c:	04813423          	sd	s0,72(sp)
    80005d20:	05010413          	addi	s0,sp,80
    80005d24:	fca43423          	sd	a0,-56(s0)
    80005d28:	00058793          	mv	a5,a1
    80005d2c:	fac43c23          	sd	a2,-72(s0)
    80005d30:	fcf42223          	sw	a5,-60(s0)
    80005d34:	fc843703          	ld	a4,-56(s0)
    80005d38:	fb843783          	ld	a5,-72(s0)
    80005d3c:	00f767b3          	or	a5,a4,a5
    80005d40:	0077f793          	andi	a5,a5,7
    80005d44:	08079263          	bnez	a5,80005dc8 <eeprom_data+0x2430>
    80005d48:	fc442783          	lw	a5,-60(s0)
    80005d4c:	0ff7f793          	andi	a5,a5,255
    80005d50:	fcf43c23          	sd	a5,-40(s0)
    80005d54:	fd843783          	ld	a5,-40(s0)
    80005d58:	00879793          	slli	a5,a5,0x8
    80005d5c:	fd843703          	ld	a4,-40(s0)
    80005d60:	00f767b3          	or	a5,a4,a5
    80005d64:	fcf43c23          	sd	a5,-40(s0)
    80005d68:	fd843783          	ld	a5,-40(s0)
    80005d6c:	01079793          	slli	a5,a5,0x10
    80005d70:	fd843703          	ld	a4,-40(s0)
    80005d74:	00f767b3          	or	a5,a4,a5
    80005d78:	fcf43c23          	sd	a5,-40(s0)
    80005d7c:	fd843783          	ld	a5,-40(s0)
    80005d80:	02079793          	slli	a5,a5,0x20
    80005d84:	fd843703          	ld	a4,-40(s0)
    80005d88:	00f767b3          	or	a5,a4,a5
    80005d8c:	fcf43c23          	sd	a5,-40(s0)
    80005d90:	fc843783          	ld	a5,-56(s0)
    80005d94:	fef43423          	sd	a5,-24(s0)
    80005d98:	0180006f          	j	80005db0 <eeprom_data+0x2418>
    80005d9c:	fe843783          	ld	a5,-24(s0)
    80005da0:	00878713          	addi	a4,a5,8
    80005da4:	fee43423          	sd	a4,-24(s0)
    80005da8:	fd843703          	ld	a4,-40(s0)
    80005dac:	00e7b023          	sd	a4,0(a5)
    80005db0:	fc843703          	ld	a4,-56(s0)
    80005db4:	fb843783          	ld	a5,-72(s0)
    80005db8:	00f707b3          	add	a5,a4,a5
    80005dbc:	fe843703          	ld	a4,-24(s0)
    80005dc0:	fcf76ee3          	bltu	a4,a5,80005d9c <eeprom_data+0x2404>
    80005dc4:	03c0006f          	j	80005e00 <eeprom_data+0x2468>
    80005dc8:	fc843783          	ld	a5,-56(s0)
    80005dcc:	fef43023          	sd	a5,-32(s0)
    80005dd0:	01c0006f          	j	80005dec <eeprom_data+0x2454>
    80005dd4:	fe043783          	ld	a5,-32(s0)
    80005dd8:	00178713          	addi	a4,a5,1
    80005ddc:	fee43023          	sd	a4,-32(s0)
    80005de0:	fc442703          	lw	a4,-60(s0)
    80005de4:	0ff77713          	andi	a4,a4,255
    80005de8:	00e78023          	sb	a4,0(a5)
    80005dec:	fc843703          	ld	a4,-56(s0)
    80005df0:	fb843783          	ld	a5,-72(s0)
    80005df4:	00f707b3          	add	a5,a4,a5
    80005df8:	fe043703          	ld	a4,-32(s0)
    80005dfc:	fcf76ce3          	bltu	a4,a5,80005dd4 <eeprom_data+0x243c>
    80005e00:	fc843783          	ld	a5,-56(s0)
    80005e04:	00078513          	mv	a0,a5
    80005e08:	04813403          	ld	s0,72(sp)
    80005e0c:	05010113          	addi	sp,sp,80
    80005e10:	00008067          	ret
    80005e14:	fd010113          	addi	sp,sp,-48
    80005e18:	02813423          	sd	s0,40(sp)
    80005e1c:	03010413          	addi	s0,sp,48
    80005e20:	fca43c23          	sd	a0,-40(s0)
    80005e24:	fd843783          	ld	a5,-40(s0)
    80005e28:	fef43423          	sd	a5,-24(s0)
    80005e2c:	0100006f          	j	80005e3c <eeprom_data+0x24a4>
    80005e30:	fe843783          	ld	a5,-24(s0)
    80005e34:	00178793          	addi	a5,a5,1
    80005e38:	fef43423          	sd	a5,-24(s0)
    80005e3c:	fe843783          	ld	a5,-24(s0)
    80005e40:	0007c783          	lbu	a5,0(a5)
    80005e44:	fe0796e3          	bnez	a5,80005e30 <eeprom_data+0x2498>
    80005e48:	fe843703          	ld	a4,-24(s0)
    80005e4c:	fd843783          	ld	a5,-40(s0)
    80005e50:	40f707b3          	sub	a5,a4,a5
    80005e54:	00078513          	mv	a0,a5
    80005e58:	02813403          	ld	s0,40(sp)
    80005e5c:	03010113          	addi	sp,sp,48
    80005e60:	00008067          	ret
    80005e64:	fd010113          	addi	sp,sp,-48
    80005e68:	02813423          	sd	s0,40(sp)
    80005e6c:	03010413          	addi	s0,sp,48
    80005e70:	fca43c23          	sd	a0,-40(s0)
    80005e74:	fcb43823          	sd	a1,-48(s0)
    80005e78:	fd843783          	ld	a5,-40(s0)
    80005e7c:	fef43423          	sd	a5,-24(s0)
    80005e80:	0100006f          	j	80005e90 <eeprom_data+0x24f8>
    80005e84:	fe843783          	ld	a5,-24(s0)
    80005e88:	00178793          	addi	a5,a5,1
    80005e8c:	fef43423          	sd	a5,-24(s0)
    80005e90:	fd043783          	ld	a5,-48(s0)
    80005e94:	fff78713          	addi	a4,a5,-1
    80005e98:	fce43823          	sd	a4,-48(s0)
    80005e9c:	00078863          	beqz	a5,80005eac <eeprom_data+0x2514>
    80005ea0:	fe843783          	ld	a5,-24(s0)
    80005ea4:	0007c783          	lbu	a5,0(a5)
    80005ea8:	fc079ee3          	bnez	a5,80005e84 <eeprom_data+0x24ec>
    80005eac:	fe843703          	ld	a4,-24(s0)
    80005eb0:	fd843783          	ld	a5,-40(s0)
    80005eb4:	40f707b3          	sub	a5,a4,a5
    80005eb8:	00078513          	mv	a0,a5
    80005ebc:	02813403          	ld	s0,40(sp)
    80005ec0:	03010113          	addi	sp,sp,48
    80005ec4:	00008067          	ret
    80005ec8:	fd010113          	addi	sp,sp,-48
    80005ecc:	02813423          	sd	s0,40(sp)
    80005ed0:	03010413          	addi	s0,sp,48
    80005ed4:	fca43c23          	sd	a0,-40(s0)
    80005ed8:	fcb43823          	sd	a1,-48(s0)
    80005edc:	fd843783          	ld	a5,-40(s0)
    80005ee0:	00178713          	addi	a4,a5,1
    80005ee4:	fce43c23          	sd	a4,-40(s0)
    80005ee8:	0007c783          	lbu	a5,0(a5)
    80005eec:	fef407a3          	sb	a5,-17(s0)
    80005ef0:	fd043783          	ld	a5,-48(s0)
    80005ef4:	00178713          	addi	a4,a5,1
    80005ef8:	fce43823          	sd	a4,-48(s0)
    80005efc:	0007c783          	lbu	a5,0(a5)
    80005f00:	fef40723          	sb	a5,-18(s0)
    80005f04:	fef44783          	lbu	a5,-17(s0)
    80005f08:	0ff7f793          	andi	a5,a5,255
    80005f0c:	00078c63          	beqz	a5,80005f24 <eeprom_data+0x258c>
    80005f10:	fef44703          	lbu	a4,-17(s0)
    80005f14:	fee44783          	lbu	a5,-18(s0)
    80005f18:	0ff77713          	andi	a4,a4,255
    80005f1c:	0ff7f793          	andi	a5,a5,255
    80005f20:	faf70ee3          	beq	a4,a5,80005edc <eeprom_data+0x2544>
    80005f24:	fef44783          	lbu	a5,-17(s0)
    80005f28:	0007871b          	sext.w	a4,a5
    80005f2c:	fee44783          	lbu	a5,-18(s0)
    80005f30:	0007879b          	sext.w	a5,a5
    80005f34:	40f707bb          	subw	a5,a4,a5
    80005f38:	0007879b          	sext.w	a5,a5
    80005f3c:	00078513          	mv	a0,a5
    80005f40:	02813403          	ld	s0,40(sp)
    80005f44:	03010113          	addi	sp,sp,48
    80005f48:	00008067          	ret
    80005f4c:	fd010113          	addi	sp,sp,-48
    80005f50:	02813423          	sd	s0,40(sp)
    80005f54:	03010413          	addi	s0,sp,48
    80005f58:	fca43c23          	sd	a0,-40(s0)
    80005f5c:	fcb43823          	sd	a1,-48(s0)
    80005f60:	fd843783          	ld	a5,-40(s0)
    80005f64:	fef43423          	sd	a5,-24(s0)
    80005f68:	00000013          	nop
    80005f6c:	fd043703          	ld	a4,-48(s0)
    80005f70:	00170793          	addi	a5,a4,1
    80005f74:	fcf43823          	sd	a5,-48(s0)
    80005f78:	fe843783          	ld	a5,-24(s0)
    80005f7c:	00178693          	addi	a3,a5,1
    80005f80:	fed43423          	sd	a3,-24(s0)
    80005f84:	00074703          	lbu	a4,0(a4)
    80005f88:	00e78023          	sb	a4,0(a5)
    80005f8c:	0007c783          	lbu	a5,0(a5)
    80005f90:	fc079ee3          	bnez	a5,80005f6c <eeprom_data+0x25d4>
    80005f94:	fd843783          	ld	a5,-40(s0)
    80005f98:	00078513          	mv	a0,a5
    80005f9c:	02813403          	ld	s0,40(sp)
    80005fa0:	03010113          	addi	sp,sp,48
    80005fa4:	00008067          	ret
    80005fa8:	fd010113          	addi	sp,sp,-48
    80005fac:	02813423          	sd	s0,40(sp)
    80005fb0:	03010413          	addi	s0,sp,48
    80005fb4:	fca43c23          	sd	a0,-40(s0)
    80005fb8:	fe043423          	sd	zero,-24(s0)
    80005fbc:	fe042223          	sw	zero,-28(s0)
    80005fc0:	0100006f          	j	80005fd0 <eeprom_data+0x2638>
    80005fc4:	fd843783          	ld	a5,-40(s0)
    80005fc8:	00178793          	addi	a5,a5,1
    80005fcc:	fcf43c23          	sd	a5,-40(s0)
    80005fd0:	fd843783          	ld	a5,-40(s0)
    80005fd4:	0007c783          	lbu	a5,0(a5)
    80005fd8:	00078713          	mv	a4,a5
    80005fdc:	02000793          	li	a5,32
    80005fe0:	fef702e3          	beq	a4,a5,80005fc4 <eeprom_data+0x262c>
    80005fe4:	fd843783          	ld	a5,-40(s0)
    80005fe8:	0007c783          	lbu	a5,0(a5)
    80005fec:	00078713          	mv	a4,a5
    80005ff0:	02d00793          	li	a5,45
    80005ff4:	00f70c63          	beq	a4,a5,8000600c <eeprom_data+0x2674>
    80005ff8:	fd843783          	ld	a5,-40(s0)
    80005ffc:	0007c783          	lbu	a5,0(a5)
    80006000:	00078713          	mv	a4,a5
    80006004:	02b00793          	li	a5,43
    80006008:	06f71c63          	bne	a4,a5,80006080 <eeprom_data+0x26e8>
    8000600c:	fd843783          	ld	a5,-40(s0)
    80006010:	0007c783          	lbu	a5,0(a5)
    80006014:	0007871b          	sext.w	a4,a5
    80006018:	02d00793          	li	a5,45
    8000601c:	40f707b3          	sub	a5,a4,a5
    80006020:	0017b793          	seqz	a5,a5
    80006024:	0ff7f793          	andi	a5,a5,255
    80006028:	fef42223          	sw	a5,-28(s0)
    8000602c:	fd843783          	ld	a5,-40(s0)
    80006030:	00178793          	addi	a5,a5,1
    80006034:	fcf43c23          	sd	a5,-40(s0)
    80006038:	0480006f          	j	80006080 <eeprom_data+0x26e8>
    8000603c:	fe843703          	ld	a4,-24(s0)
    80006040:	00070793          	mv	a5,a4
    80006044:	00279793          	slli	a5,a5,0x2
    80006048:	00e787b3          	add	a5,a5,a4
    8000604c:	00179793          	slli	a5,a5,0x1
    80006050:	fef43423          	sd	a5,-24(s0)
    80006054:	fd843783          	ld	a5,-40(s0)
    80006058:	00178713          	addi	a4,a5,1
    8000605c:	fce43c23          	sd	a4,-40(s0)
    80006060:	0007c783          	lbu	a5,0(a5)
    80006064:	0007879b          	sext.w	a5,a5
    80006068:	fd07879b          	addiw	a5,a5,-48
    8000606c:	0007879b          	sext.w	a5,a5
    80006070:	00078713          	mv	a4,a5
    80006074:	fe843783          	ld	a5,-24(s0)
    80006078:	00e787b3          	add	a5,a5,a4
    8000607c:	fef43423          	sd	a5,-24(s0)
    80006080:	fd843783          	ld	a5,-40(s0)
    80006084:	0007c783          	lbu	a5,0(a5)
    80006088:	fa079ae3          	bnez	a5,8000603c <eeprom_data+0x26a4>
    8000608c:	fe442783          	lw	a5,-28(s0)
    80006090:	0007879b          	sext.w	a5,a5
    80006094:	00078863          	beqz	a5,800060a4 <eeprom_data+0x270c>
    80006098:	fe843783          	ld	a5,-24(s0)
    8000609c:	40f007b3          	neg	a5,a5
    800060a0:	0080006f          	j	800060a8 <eeprom_data+0x2710>
    800060a4:	fe843783          	ld	a5,-24(s0)
    800060a8:	00078513          	mv	a0,a5
    800060ac:	02813403          	ld	s0,40(sp)
    800060b0:	03010113          	addi	sp,sp,48
    800060b4:	00008067          	ret
    800060b8:	2009                	0x2009
    800060ba:	6f42                	ld	t5,16(sp)
    800060bc:	674d746f          	jal	s0,800dd730 <__global_pointer$+0xd5598>
    800060c0:	3a72                	fld	fs4,312(sp)
    800060c2:	5220                	lw	s0,96(a2)
    800060c4:	7369                	lui	t1,0xffffa
    800060c6:	4365                	li	t1,25
    800060c8:	6572                	ld	a0,280(sp)
    800060ca:	6b65                	lui	s6,0x19
    800060cc:	7320                	ld	s0,96(a4)
    800060ce:	7961                	lui	s2,0xffff8
    800060d0:	65482073          	csrs	0x654,a6
    800060d4:	6c6c                	ld	a1,216(s0)
    800060d6:	62202c6f          	jal	s8,800086f8 <__global_pointer$+0x560>
    800060da:	65746f6f          	jal	t5,8004cf30 <__global_pointer$+0x44d98>
    800060de:	2064                	fld	fs1,192(s0)
    800060e0:	7266                	ld	tp,120(sp)
    800060e2:	49206d6f          	jal	s10,8000c574 <__global_pointer$+0x43dc>
    800060e6:	4332                	lw	t1,12(sp)
    800060e8:	2d20                	fld	fs0,88(a0)
    800060ea:	202d                	0x202d
    800060ec:	6552                	ld	a0,272(sp)
    800060ee:	6f6a                	ld	t5,152(sp)
    800060f0:	6369                	lui	t1,0x1a
    800060f2:	2065                	0x2065
    800060f4:	000a                	0xa
    800060f6:	0000                	unimp
    800060f8:	636d                	lui	t1,0x1b
    800060fa:	6379                	lui	t1,0x1e
    800060fc:	656c                	ld	a1,200(a0)
    800060fe:	0000                	unimp
    80006100:	696d                	lui	s2,0x1b
    80006102:	736e                	ld	t1,248(sp)
    80006104:	7274                	ld	a3,224(a2)
    80006106:	7465                	lui	s0,0xffff9
	...
    80006110:	6d49                	lui	s10,0x12
    80006112:	6c70                	ld	a2,216(s0)
    80006114:	6d65                	lui	s10,0x19
    80006116:	6e65                	lui	t3,0x19
    80006118:	2074                	fld	fa3,192(s0)
    8000611a:	616d                	addi	sp,sp,240
    8000611c:	6e69                	lui	t3,0x1a
    8000611e:	2928                	fld	fa0,80(a0)
    80006120:	202c                	fld	fa1,64(s0)
    80006122:	6f66                	ld	t5,88(sp)
    80006124:	000a216f          	jal	sp,800a8124 <__global_pointer$+0x9ff8c>
    80006128:	7325                	lui	t1,0xfffe9
    8000612a:	3d20                	fld	fs0,120(a0)
    8000612c:	2520                	fld	fs0,72(a0)
    8000612e:	0a64                	addi	s1,sp,284
	...
    80006138:	6e28                	ld	a0,88(a2)
    8000613a:	6c75                	lui	s8,0x1d
    8000613c:	296c                	fld	fa1,208(a0)
    8000613e:	0000                	unimp
    80006140:	f6b0                	sd	a2,104(a3)
    80006142:	ffff                	0xffff
    80006144:	f910                	sd	a2,48(a0)
    80006146:	ffff                	0xffff
    80006148:	f8fc                	sd	a5,240(s1)
    8000614a:	ffff                	0xffff
    8000614c:	f910                	sd	a2,48(a0)
    8000614e:	ffff                	0xffff
    80006150:	f910                	sd	a2,48(a0)
    80006152:	ffff                	0xffff
    80006154:	f910                	sd	a2,48(a0)
    80006156:	ffff                	0xffff
    80006158:	f910                	sd	a2,48(a0)
    8000615a:	ffff                	0xffff
    8000615c:	f684                	sd	s1,40(a3)
    8000615e:	ffff                	0xffff
    80006160:	f910                	sd	a2,48(a0)
    80006162:	ffff                	0xffff
    80006164:	f910                	sd	a2,48(a0)
    80006166:	ffff                	0xffff
    80006168:	f60c                	sd	a1,40(a2)
    8000616a:	ffff                	0xffff
    8000616c:	f69c                	sd	a5,40(a3)
    8000616e:	ffff                	0xffff
    80006170:	f910                	sd	a2,48(a0)
    80006172:	ffff                	0xffff
    80006174:	f618                	sd	a4,40(a2)
    80006176:	ffff                	0xffff
    80006178:	f624                	sd	s1,104(a2)
    8000617a:	ffff                	0xffff
    8000617c:	f624                	sd	s1,104(a2)
    8000617e:	ffff                	0xffff
    80006180:	f624                	sd	s1,104(a2)
    80006182:	ffff                	0xffff
    80006184:	f624                	sd	s1,104(a2)
    80006186:	ffff                	0xffff
    80006188:	f624                	sd	s1,104(a2)
    8000618a:	ffff                	0xffff
    8000618c:	f624                	sd	s1,104(a2)
    8000618e:	ffff                	0xffff
    80006190:	f624                	sd	s1,104(a2)
    80006192:	ffff                	0xffff
    80006194:	f624                	sd	s1,104(a2)
    80006196:	ffff                	0xffff
    80006198:	f624                	sd	s1,104(a2)
    8000619a:	ffff                	0xffff
    8000619c:	f910                	sd	a2,48(a0)
    8000619e:	ffff                	0xffff
    800061a0:	f910                	sd	a2,48(a0)
    800061a2:	ffff                	0xffff
    800061a4:	f910                	sd	a2,48(a0)
    800061a6:	ffff                	0xffff
    800061a8:	f910                	sd	a2,48(a0)
    800061aa:	ffff                	0xffff
    800061ac:	f910                	sd	a2,48(a0)
    800061ae:	ffff                	0xffff
    800061b0:	f910                	sd	a2,48(a0)
    800061b2:	ffff                	0xffff
    800061b4:	f910                	sd	a2,48(a0)
    800061b6:	ffff                	0xffff
    800061b8:	f910                	sd	a2,48(a0)
    800061ba:	ffff                	0xffff
    800061bc:	f910                	sd	a2,48(a0)
    800061be:	ffff                	0xffff
    800061c0:	f910                	sd	a2,48(a0)
    800061c2:	ffff                	0xffff
    800061c4:	f910                	sd	a2,48(a0)
    800061c6:	ffff                	0xffff
    800061c8:	f910                	sd	a2,48(a0)
    800061ca:	ffff                	0xffff
    800061cc:	f910                	sd	a2,48(a0)
    800061ce:	ffff                	0xffff
    800061d0:	f910                	sd	a2,48(a0)
    800061d2:	ffff                	0xffff
    800061d4:	f910                	sd	a2,48(a0)
    800061d6:	ffff                	0xffff
    800061d8:	f910                	sd	a2,48(a0)
    800061da:	ffff                	0xffff
    800061dc:	f910                	sd	a2,48(a0)
    800061de:	ffff                	0xffff
    800061e0:	f910                	sd	a2,48(a0)
    800061e2:	ffff                	0xffff
    800061e4:	f910                	sd	a2,48(a0)
    800061e6:	ffff                	0xffff
    800061e8:	f910                	sd	a2,48(a0)
    800061ea:	ffff                	0xffff
    800061ec:	f910                	sd	a2,48(a0)
    800061ee:	ffff                	0xffff
    800061f0:	f910                	sd	a2,48(a0)
    800061f2:	ffff                	0xffff
    800061f4:	f910                	sd	a2,48(a0)
    800061f6:	ffff                	0xffff
    800061f8:	f910                	sd	a2,48(a0)
    800061fa:	ffff                	0xffff
    800061fc:	f910                	sd	a2,48(a0)
    800061fe:	ffff                	0xffff
    80006200:	f910                	sd	a2,48(a0)
    80006202:	ffff                	0xffff
    80006204:	f910                	sd	a2,48(a0)
    80006206:	ffff                	0xffff
    80006208:	f910                	sd	a2,48(a0)
    8000620a:	ffff                	0xffff
    8000620c:	f910                	sd	a2,48(a0)
    8000620e:	ffff                	0xffff
    80006210:	f910                	sd	a2,48(a0)
    80006212:	ffff                	0xffff
    80006214:	f910                	sd	a2,48(a0)
    80006216:	ffff                	0xffff
    80006218:	f910                	sd	a2,48(a0)
    8000621a:	ffff                	0xffff
    8000621c:	f910                	sd	a2,48(a0)
    8000621e:	ffff                	0xffff
    80006220:	f910                	sd	a2,48(a0)
    80006222:	ffff                	0xffff
    80006224:	f910                	sd	a2,48(a0)
    80006226:	ffff                	0xffff
    80006228:	f910                	sd	a2,48(a0)
    8000622a:	ffff                	0xffff
    8000622c:	f910                	sd	a2,48(a0)
    8000622e:	ffff                	0xffff
    80006230:	f910                	sd	a2,48(a0)
    80006232:	ffff                	0xffff
    80006234:	f910                	sd	a2,48(a0)
    80006236:	ffff                	0xffff
    80006238:	f910                	sd	a2,48(a0)
    8000623a:	ffff                	0xffff
    8000623c:	f910                	sd	a2,48(a0)
    8000623e:	ffff                	0xffff
    80006240:	f6f0                	sd	a2,232(a3)
    80006242:	ffff                	0xffff
    80006244:	f82c                	sd	a1,112(s0)
    80006246:	ffff                	0xffff
    80006248:	f910                	sd	a2,48(a0)
    8000624a:	ffff                	0xffff
    8000624c:	f910                	sd	a2,48(a0)
    8000624e:	ffff                	0xffff
    80006250:	f910                	sd	a2,48(a0)
    80006252:	ffff                	0xffff
    80006254:	f910                	sd	a2,48(a0)
    80006256:	ffff                	0xffff
    80006258:	f910                	sd	a2,48(a0)
    8000625a:	ffff                	0xffff
    8000625c:	f910                	sd	a2,48(a0)
    8000625e:	ffff                	0xffff
    80006260:	f910                	sd	a2,48(a0)
    80006262:	ffff                	0xffff
    80006264:	f6e0                	sd	s0,232(a3)
    80006266:	ffff                	0xffff
    80006268:	f910                	sd	a2,48(a0)
    8000626a:	ffff                	0xffff
    8000626c:	f910                	sd	a2,48(a0)
    8000626e:	ffff                	0xffff
    80006270:	f884                	sd	s1,48(s1)
    80006272:	ffff                	0xffff
    80006274:	f890                	sd	a2,48(s1)
    80006276:	ffff                	0xffff
    80006278:	f910                	sd	a2,48(a0)
    8000627a:	ffff                	0xffff
    8000627c:	f910                	sd	a2,48(a0)
    8000627e:	ffff                	0xffff
    80006280:	f714                	sd	a3,40(a4)
    80006282:	ffff                	0xffff
    80006284:	f910                	sd	a2,48(a0)
    80006286:	ffff                	0xffff
    80006288:	f878                	sd	a4,240(s0)
    8000628a:	ffff                	0xffff
    8000628c:	f910                	sd	a2,48(a0)
    8000628e:	ffff                	0xffff
    80006290:	f910                	sd	a2,48(a0)
    80006292:	ffff                	0xffff
    80006294:	f8b8                	sd	a4,112(s1)
    80006296:	ffff                	0xffff
	...

Disassembly of section .sdata:

0000000080007998 <i2c_control>:
    80007998:	1408                	addi	a0,sp,544
    8000799a:	0001                	nop
    8000799c:	0000                	unimp
	...

00000000800079a0 <i2c_data>:
    800079a0:	1410                	addi	a2,sp,544
    800079a2:	0001                	nop
    800079a4:	0000                	unimp
	...

00000000800079a8 <i2c_status>:
    800079a8:	1418                	addi	a4,sp,544
    800079aa:	0001                	nop
    800079ac:	0000                	unimp
	...

00000000800079b0 <i2c_prescale>:
    800079b0:	1400                	addi	s0,sp,544
    800079b2:	0001                	nop
    800079b4:	0000                	unimp
	...

00000000800079b8 <i2c_scl>:
    800079b8:	1438                	addi	a4,sp,552
    800079ba:	0001                	nop
    800079bc:	0000                	unimp
	...

00000000800079c0 <i2c_led>:
    800079c0:	1600                	addi	s0,sp,800
    800079c2:	0001                	nop
    800079c4:	0000                	unimp
	...

Disassembly of section .bss:

00000000800079c8 <counters>:
	...

00000000800079d8 <counter_names>:
	...

00000000800079e8 <count.2710>:
    800079e8:	0000                	unimp
	...

00000000800079ec <sense.2709>:
    800079ec:	0000                	unimp
	...

Disassembly of section .tbss:

00000000800079f0 <_tls_data>:
    800079f0:	0000                	unimp
	...

Disassembly of section .comment:

0000000000000000 <.comment>:
   0:	3a434347          	fmsub.d	ft6,ft6,ft4,ft7,rmm
   4:	2820                	fld	fs0,80(s0)
   6:	29554e47          	fmsub.s	ft8,fa0,fs5,ft5,rmm
   a:	3720                	fld	fs0,104(a4)
   c:	322e                	fld	ft4,232(sp)
   e:	302e                	fld	ft0,232(sp)
	...
